
bomb:	file format elf64-x86-64


Disassembly of section .interp:

0000000000400238 <.interp>:
  400238: 2f                           	<unknown>
  400239: 6c                           	insb	%dx, %es:(%rdi)
  40023a: 69 62 36 34 2f 6c 64         	imull	$1684811572, 54(%rdx), %esp
  400241: 2d 6c 69 6e 75               	subl	$1970170220, %eax
  400246: 78 2d                        	js	0x400275 <write@@GLIBC_2.2.5+0x400275>
  400248: 78 38                        	js	0x400282 <write@@GLIBC_2.2.5+0x400282>
  40024a: 36 2d 36 34 2e 73            	subl	$1932407862, %eax
  400250: 6f                           	outsl	(%rsi), %dx
  400251: 2e 32 00                     	xorb	%cs:(%rax), %al

Disassembly of section .note.ABI-tag:

0000000000400254 <.note.ABI-tag>:
  400254: 04 00                        	addb	$0, %al
  400256: 00 00                        	addb	%al, (%rax)
  400258: 10 00                        	adcb	%al, (%rax)
  40025a: 00 00                        	addb	%al, (%rax)
  40025c: 01 00                        	addl	%eax, (%rax)
  40025e: 00 00                        	addb	%al, (%rax)
  400260: 47 4e                        	<unknown>
  400262: 55                           	pushq	%rbp
  400263: 00 00                        	addb	%al, (%rax)
  400265: 00 00                        	addb	%al, (%rax)
  400267: 00 03                        	addb	%al, (%rbx)
  400269: 00 00                        	addb	%al, (%rax)
  40026b: 00 02                        	addb	%al, (%rdx)
  40026d: 00 00                        	addb	%al, (%rax)
  40026f: 00 00                        	addb	%al, (%rax)
  400271: 00 00                        	addb	%al, (%rax)
  400273: 00                           	<unknown>

Disassembly of section .note.gnu.build-id:

0000000000400274 <.note.gnu.build-id>:
  400274: 04 00                        	addb	$0, %al
  400276: 00 00                        	addb	%al, (%rax)
  400278: 14 00                        	adcb	$0, %al
  40027a: 00 00                        	addb	%al, (%rax)
  40027c: 03 00                        	addl	(%rax), %eax
  40027e: 00 00                        	addb	%al, (%rax)
  400280: 47 4e                        	<unknown>
  400282: 55                           	pushq	%rbp
  400283: 00 7b 6e                     	addb	%bh, 110(%rbx)
  400286: f6 28                        	imulb	(%rax)
  400288: 40 f9                        	stc
  40028a: 4a 86 5b 87                  	xchgb	%bl, -121(%rbx)
  40028e: 27                           	<unknown>
  40028f: b4 56                        	movb	$86, %ah
  400291: 09 ca                        	orl	%ecx, %edx
  400293: b4 86                        	movb	$-122, %ah
  400295: 4d 04 f9                     	addb	$-7, %al

Disassembly of section .gnu.hash:

0000000000400298 <.gnu.hash>:
  400298: 03 00                        	addl	(%rax), %eax
  40029a: 00 00                        	addb	%al, (%rax)
  40029c: 23 00                        	andl	(%rax), %eax
  40029e: 00 00                        	addb	%al, (%rax)
  4002a0: 01 00                        	addl	%eax, (%rax)
  4002a2: 00 00                        	addb	%al, (%rax)
  4002a4: 06                           	<unknown>
  4002a5: 00 00                        	addb	%al, (%rax)
  4002a7: 00 00                        	addb	%al, (%rax)
  4002a9: 01 20                        	addl	%esp, (%rax)
  4002ab: 00 80 01 10 02 23            	addb	%al, 587337729(%rax)
  4002b1: 00 00                        	addb	%al, (%rax)
  4002b3: 00 24 00                     	addb	%ah, (%rax,%rax)
  4002b6: 00 00                        	addb	%al, (%rax)
  4002b8: 00 00                        	addb	%al, (%rax)
  4002ba: 00 00                        	addb	%al, (%rax)
  4002bc: 29 1d 8c 1c 66 55            	subl	%ebx, 1432755340(%rip)  # 55a61f4e <_end+0x5545ce0e>
  4002c2: 61                           	<unknown>
  4002c3: 10 39                        	adcb	%bh, (%rcx)
  4002c5: f2 8b 1c                     	<unknown>

Disassembly of section .dynsym:

00000000004002c8 <.dynsym>:
		...
  4002e0: 1f                           	<unknown>
  4002e1: 01 00                        	addl	%eax, (%rax)
  4002e3: 00 12                        	addb	%dl, (%rdx)
		...
  4002f5: 00 00                        	addb	%al, (%rax)
  4002f7: 00 ba 00 00 00 12            	addb	%bh, 301989888(%rdx)
		...
  40030d: 00 00                        	addb	%al, (%rax)
  40030f: 00 12                        	addb	%dl, (%rdx)
  400311: 01 00                        	addl	%eax, (%rax)
  400313: 00 12                        	addb	%dl, (%rdx)
		...
  400325: 00 00                        	addb	%al, (%rax)
  400327: 00 92 00 00 00 12            	addb	%dl, 301989888(%rdx)
		...
  40033d: 00 00                        	addb	%al, (%rax)
  40033f: 00 4f 00                     	addb	%cl, (%rdi)
  400342: 00 00                        	addb	%al, (%rax)
  400344: 12 00                        	adcb	(%rax), %al
		...
  400356: 00 00                        	addb	%al, (%rax)
  400358: 41 00 00                     	addb	%al, (%r8)
  40035b: 00 12                        	addb	%dl, (%rdx)
		...
  40036d: 00 00                        	addb	%al, (%rax)
  40036f: 00 d7                        	addb	%dl, %bh
  400371: 00 00                        	addb	%al, (%rax)
  400373: 00 12                        	addb	%dl, (%rdx)
		...
  400385: 00 00                        	addb	%al, (%rax)
  400387: 00 48 01                     	addb	%cl, 1(%rax)
  40038a: 00 00                        	addb	%al, (%rax)
  40038c: 12 00                        	adcb	(%rax), %al
		...
  40039e: 00 00                        	addb	%al, (%rax)
  4003a0: 7d 00                        	jge	0x4003a2 <.dynsym+0xda>
  4003a2: 00 00                        	addb	%al, (%rax)
  4003a4: 12 00                        	adcb	(%rax), %al
		...
  4003b6: 00 00                        	addb	%al, (%rax)
  4003b8: a7                           	cmpsl	%es:(%rdi), (%rsi)
  4003b9: 00 00                        	addb	%al, (%rax)
  4003bb: 00 12                        	addb	%dl, (%rdx)
		...
  4003cd: 00 00                        	addb	%al, (%rax)
  4003cf: 00 84 00 00 00 12 00         	addb	%al, 1179648(%rax,%rax)
		...
  4003e6: 00 00                        	addb	%al, (%rax)
  4003e8: df 00                        	filds	(%rax)
  4003ea: 00 00                        	addb	%al, (%rax)
  4003ec: 12 00                        	adcb	(%rax), %al
		...
  4003fe: 00 00                        	addb	%al, (%rax)
  400400: 19 01                        	sbbl	%eax, (%rcx)
  400402: 00 00                        	addb	%al, (%rax)
  400404: 12 00                        	adcb	(%rax), %al
		...
  400416: 00 00                        	addb	%al, (%rax)
  400418: 5d                           	popq	%rbp
  400419: 00 00                        	addb	%al, (%rax)
  40041b: 00 12                        	addb	%dl, (%rdx)
		...
  40042d: 00 00                        	addb	%al, (%rax)
  40042f: 00 4e 01                     	addb	%cl, 1(%rsi)
  400432: 00 00                        	addb	%al, (%rax)
  400434: 12 00                        	adcb	(%rax), %al
		...
  400446: 00 00                        	addb	%al, (%rax)
  400448: 48 00 00                     	addb	%al, (%rax)
  40044b: 00 12                        	addb	%dl, (%rdx)
		...
  40045d: 00 00                        	addb	%al, (%rax)
  40045f: 00 f3                        	addb	%dh, %bl
  400461: 00 00                        	addb	%al, (%rax)
  400463: 00 12                        	addb	%dl, (%rdx)
		...
  400475: 00 00                        	addb	%al, (%rax)
  400477: 00 57 00                     	addb	%dl, (%rdi)
  40047a: 00 00                        	addb	%al, (%rax)
  40047c: 12 00                        	adcb	(%rax), %al
		...
  40048e: 00 00                        	addb	%al, (%rax)
  400490: 65 00 00                     	addb	%al, %gs:(%rax)
  400493: 00 12                        	addb	%dl, (%rdx)
		...
  4004a5: 00 00                        	addb	%al, (%rax)
  4004a7: 00 78 00                     	addb	%bh, (%rax)
  4004aa: 00 00                        	addb	%al, (%rax)
  4004ac: 12 00                        	adcb	(%rax), %al
		...
  4004be: 00 00                        	addb	%al, (%rax)
  4004c0: ae                           	scasb	%es:(%rdi), %al
  4004c1: 00 00                        	addb	%al, (%rax)
  4004c3: 00 12                        	addb	%dl, (%rdx)
		...
  4004d5: 00 00                        	addb	%al, (%rax)
  4004d7: 00 01                        	addb	%al, (%rcx)
  4004d9: 01 00                        	addl	%eax, (%rax)
  4004db: 00 12                        	addb	%dl, (%rdx)
		...
  4004ed: 00 00                        	addb	%al, (%rax)
  4004ef: 00 2f                        	addb	%ch, (%rdi)
  4004f1: 01 00                        	addl	%eax, (%rax)
  4004f3: 00 12                        	addb	%dl, (%rdx)
		...
  400505: 00 00                        	addb	%al, (%rax)
  400507: 00 9a 00 00 00 12            	addb	%bl, 301989888(%rdx)
		...
  40051d: 00 00                        	addb	%al, (%rax)
  40051f: 00 11                        	addb	%dl, (%rcx)
  400521: 01 00                        	addl	%eax, (%rax)
  400523: 00 12                        	addb	%dl, (%rdx)
		...
  400535: 00 00                        	addb	%al, (%rax)
  400537: 00 cb                        	addb	%cl, %bl
  400539: 00 00                        	addb	%al, (%rax)
  40053b: 00 12                        	addb	%dl, (%rdx)
		...
  40054d: 00 00                        	addb	%al, (%rax)
  40054f: 00 6c 00 00                  	addb	%ch, (%rax,%rax)
  400553: 00 12                        	addb	%dl, (%rdx)
		...
  400565: 00 00                        	addb	%al, (%rax)
  400567: 00 a1 00 00 00 12            	addb	%ah, 301989888(%rcx)
		...
  40057d: 00 00                        	addb	%al, (%rax)
  40057f: 00 27                        	addb	%ah, (%rdi)
  400581: 01 00                        	addl	%eax, (%rax)
  400583: 00 12                        	addb	%dl, (%rdx)
		...
  400595: 00 00                        	addb	%al, (%rax)
  400597: 00 77 00                     	addb	%dh, (%rdi)
  40059a: 00 00                        	addb	%al, (%rax)
  40059c: 12 00                        	adcb	(%rax), %al
		...
  4005ae: 00 00                        	addb	%al, (%rax)
  4005b0: 36 01 00                     	addl	%eax, %ss:(%rax)
  4005b3: 00 12                        	addb	%dl, (%rdx)
		...
  4005c5: 00 00                        	addb	%al, (%rax)
  4005c7: 00 10                        	addb	%dl, (%rax)
  4005c9: 00 00                        	addb	%al, (%rax)
  4005cb: 00 20                        	addb	%ah, (%rax)
		...
  4005dd: 00 00                        	addb	%al, (%rax)
  4005df: 00 ed                        	addb	%ch, %ch
  4005e1: 00 00                        	addb	%al, (%rax)
  4005e3: 00 12                        	addb	%dl, (%rdx)
		...
  4005f5: 00 00                        	addb	%al, (%rax)
  4005f7: 00 0b                        	addb	%cl, (%rbx)
  4005f9: 01 00                        	addl	%eax, (%rax)
  4005fb: 00 12                        	addb	%dl, (%rdx)
		...
  40060d: 00 00                        	addb	%al, (%rax)
  40060f: 00 d0                        	addb	%dl, %al
  400611: 00 00                        	addb	%al, (%rax)
  400613: 00 11                        	addb	%dl, (%rcx)
  400615: 00 18                        	addb	%bl, (%rax)
  400617: 00 a0 43 60 00 00            	addb	%ah, 24643(%rax)
  40061d: 00 00                        	addb	%al, (%rax)
  40061f: 00 08                        	addb	%cl, (%rax)
  400621: 00 00                        	addb	%al, (%rax)
  400623: 00 00                        	addb	%al, (%rax)
  400625: 00 00                        	addb	%al, (%rax)
  400627: 00 71 00                     	addb	%dh, (%rcx)
  40062a: 00 00                        	addb	%al, (%rax)
  40062c: 11 00                        	adcl	%eax, (%rax)
  40062e: 18 00                        	sbbb	%al, (%rax)
  400630: b0 43                        	movb	$67, %al
  400632: 60                           	<unknown>
  400633: 00 00                        	addb	%al, (%rax)
  400635: 00 00                        	addb	%al, (%rax)
  400637: 00 08                        	addb	%cl, (%rax)
  400639: 00 00                        	addb	%al, (%rax)
  40063b: 00 00                        	addb	%al, (%rax)
  40063d: 00 00                        	addb	%al, (%rax)
  40063f: 00 e6                        	addb	%ah, %dh
  400641: 00 00                        	addb	%al, (%rax)
  400643: 00 11                        	addb	%dl, (%rcx)
  400645: 00 18                        	addb	%bl, (%rax)
  400647: 00 c0                        	addb	%al, %al
  400649: 43 60                        	<unknown>
  40064b: 00 00                        	addb	%al, (%rax)
  40064d: 00 00                        	addb	%al, (%rax)
  40064f: 00 08                        	addb	%cl, (%rax)
  400651: 00 00                        	addb	%al, (%rax)
  400653: 00 00                        	addb	%al, (%rax)
  400655: 00 00                        	addb	%al, (%rax)
  400657: 00                           	<unknown>

Disassembly of section .dynstr:

0000000000400658 <.dynstr>:
  400658: 00 6c 69 62                  	addb	%ch, 98(%rcx,%rbp,2)
  40065c: 73 74                        	jae	0x4006d2 <.dynstr+0x7a>
  40065e: 64 63 2b                     	movslq	%fs:(%rbx), %ebp
  400661: 2b 2e                        	subl	(%rsi), %ebp
  400663: 73 6f                        	jae	0x4006d4 <.dynstr+0x7c>
  400665: 2e 36 00 5f 5f               	addb	%bl, %ss:95(%rdi)
  40066a: 67 6d                        	insl	%dx, %es:(%edi)
  40066c: 6f                           	outsl	(%rsi), %dx
  40066d: 6e                           	outsb	(%rsi), %dx
  40066e: 5f                           	popq	%rdi
  40066f: 73 74                        	jae	0x4006e5 <.dynstr+0x8d>
  400671: 61                           	<unknown>
  400672: 72 74                        	jb	0x4006e8 <.dynstr+0x90>
  400674: 5f                           	popq	%rdi
  400675: 5f                           	popq	%rdi
  400676: 00 6c 69 62                  	addb	%ch, 98(%rcx,%rbp,2)
  40067a: 6d                           	insl	%dx, %es:(%rdi)
  40067b: 2e 73 6f                     	jae	0x4006ed <.dynstr+0x95>
  40067e: 2e 36 00 6c 69 62            	addb	%ch, %ss:98(%rcx,%rbp,2)
  400684: 67 63 63 5f                  	movslq	95(%ebx), %esp
  400688: 73 2e                        	jae	0x4006b8 <.dynstr+0x60>
  40068a: 73 6f                        	jae	0x4006fb <.dynstr+0xa3>
  40068c: 2e 31 00                     	xorl	%eax, %cs:(%rax)
  40068f: 6c                           	insb	%dx, %es:(%rdi)
  400690: 69 62 63 2e 73 6f 2e         	imull	$779055918, 99(%rdx), %esp
  400697: 36 00 73 6f                  	addb	%dh, %ss:111(%rbx)
  40069b: 63 6b 65                     	movslq	101(%rbx), %ebp
  40069e: 74 00                        	je	0x4006a0 <.dynstr+0x48>
  4006a0: 73 74                        	jae	0x400716 <.dynstr+0xbe>
  4006a2: 72 63                        	jb	0x400707 <.dynstr+0xaf>
  4006a4: 70 79                        	jo	0x40071f <.dynstr+0xc7>
  4006a6: 00 73 70                     	addb	%dh, 112(%rbx)
  4006a9: 72 69                        	jb	0x400714 <.dynstr+0xbc>
  4006ab: 6e                           	outsb	(%rsi), %dx
  4006ac: 74 66                        	je	0x400714 <.dynstr+0xbc>
  4006ae: 00 66 6f                     	addb	%ah, 111(%rsi)
  4006b1: 70 65                        	jo	0x400718 <.dynstr+0xc0>
  4006b3: 6e                           	outsb	(%rsi), %dx
  4006b4: 00 63 6f                     	addb	%ah, 111(%rbx)
  4006b7: 6e                           	outsb	(%rsi), %dx
  4006b8: 6e                           	outsb	(%rsi), %dx
  4006b9: 65 63 74 00 73               	movslq	%gs:115(%rax,%rax), %esi
  4006be: 69 67 6e 61 6c 00 70         	imull	$1879075937, 110(%rdi), %esp
  4006c5: 75 74                        	jne	0x40073b <.dynstr+0xe3>
  4006c7: 73 00                        	jae	0x4006c9 <.dynstr+0x71>
  4006c9: 73 74                        	jae	0x40073f <.dynstr+0xe7>
  4006cb: 64 69 6e 00 5f 65 78 69      	imull	$1769497951, %fs:(%rsi), %ebp
  4006d3: 74 00                        	je	0x4006d5 <.dynstr+0x7d>
  4006d5: 73 74                        	jae	0x40074b <.dynstr+0xf3>
  4006d7: 72 73                        	jb	0x40074c <.dynstr+0xf4>
  4006d9: 70 6e                        	jo	0x400749 <.dynstr+0xf1>
  4006db: 00 5f 5f                     	addb	%bl, 95(%rdi)
  4006de: 61                           	<unknown>
  4006df: 73 73                        	jae	0x400754 <.dynstr+0xfc>
  4006e1: 65 72 74                     	jb	0x400758 <.dynstr+0x100>
  4006e4: 5f                           	popq	%rdi
  4006e5: 66 61                        	<unknown>
  4006e7: 69 6c 00 69 73 73 70 61      	imull	$1634759539, 105(%rax,%rax), %ebp
  4006ef: 63 65 00                     	movslq	(%rbp), %esp
  4006f2: 73 74                        	jae	0x400768 <.dynstr+0x110>
  4006f4: 72 74                        	jb	0x40076a <.dynstr+0x112>
  4006f6: 6f                           	outsl	(%rsi), %dx
  4006f7: 6c                           	insb	%dx, %es:(%rdi)
  4006f8: 00 66 67                     	addb	%ah, 103(%rsi)
  4006fb: 65 74 73                     	je	0x400771 <.dynstr+0x119>
  4006fe: 00 73 74                     	addb	%dh, 116(%rbx)
  400701: 72 6c                        	jb	0x40076f <.dynstr+0x117>
  400703: 65 6e                        	outsb	%gs:(%rsi), %dx
  400705: 00 73 69                     	addb	%dh, 105(%rbx)
  400708: 67 65 6d                     	insl	%dx, %es:(%edi)
  40070b: 70 74                        	jo	0x400781 <.dynstr+0x129>
  40070d: 79 73                        	jns	0x400782 <.dynstr+0x12a>
  40070f: 65 74 00                     	je	0x400712 <.dynstr+0xba>
  400712: 5f                           	popq	%rdi
  400713: 5f                           	popq	%rdi
  400714: 65 72 72                     	jb	0x400789 <.dynstr+0x131>
  400717: 6e                           	outsb	(%rsi), %dx
  400718: 6f                           	outsl	(%rsi), %dx
  400719: 5f                           	popq	%rdi
  40071a: 6c                           	insb	%dx, %es:(%rdi)
  40071b: 6f                           	outsl	(%rsi), %dx
  40071c: 63 61 74                     	movslq	116(%rcx), %esp
  40071f: 69 6f 6e 00 72 65 61         	imull	$1634038272, 110(%rdi), %ebp
  400726: 64 00 73 74                  	addb	%dh, %fs:116(%rbx)
  40072a: 64 6f                        	outsl	%fs:(%rsi), %dx
  40072c: 75 74                        	jne	0x4007a2 <.dynstr+0x14a>
  40072e: 00 73 74                     	addb	%dh, 116(%rbx)
  400731: 72 74                        	jb	0x4007a7 <.dynstr+0x14f>
  400733: 6f                           	outsl	(%rsi), %dx
  400734: 75 6c                        	jne	0x4007a2 <.dynstr+0x14a>
  400736: 00 73 73                     	addb	%dh, 115(%rbx)
  400739: 63 61 6e                     	movslq	110(%rcx), %esp
  40073c: 66 00 73 74                  	addb	%dh, 116(%rbx)
  400740: 64 65 72 72                  	jb	0x4007b6 <.dynstr+0x15e>
  400744: 00 61 6c                     	addb	%ah, 108(%rcx)
  400747: 61                           	<unknown>
  400748: 72 6d                        	jb	0x4007b7 <.dynstr+0x15f>
  40074a: 00 67 65                     	addb	%ah, 101(%rdi)
  40074d: 74 68                        	je	0x4007b7 <.dynstr+0x15f>
  40074f: 6f                           	outsl	(%rsi), %dx
  400750: 73 74                        	jae	0x4007c6 <write@@GLIBC_2.2.5+0x4007c6>
  400752: 62                           	<unknown>
  400753: 79 6e                        	jns	0x4007c3 <write@@GLIBC_2.2.5+0x4007c3>
  400755: 61                           	<unknown>
  400756: 6d                           	insl	%dx, %es:(%rdi)
  400757: 65 00 73 69                  	addb	%dh, %gs:105(%rbx)
  40075b: 67 61                        	<unknown>
  40075d: 63 74 69 6f                  	movslq	111(%rcx,%rbp,2), %esi
  400761: 6e                           	outsb	(%rsi), %dx
  400762: 00 63 6c                     	addb	%ah, 108(%rbx)
  400765: 6f                           	outsl	(%rsi), %dx
  400766: 73 65                        	jae	0x4007cd <write@@GLIBC_2.2.5+0x4007cd>
  400768: 00 66 70                     	addb	%ah, 112(%rsi)
  40076b: 72 69                        	jb	0x4007d6 <write@@GLIBC_2.2.5+0x4007d6>
  40076d: 6e                           	outsb	(%rsi), %dx
  40076e: 74 66                        	je	0x4007d6 <write@@GLIBC_2.2.5+0x4007d6>
  400770: 00 73 6c                     	addb	%dh, 108(%rbx)
  400773: 65 65 70 00                  	jo	0x400777 <.dynstr+0x11f>
  400777: 73 65                        	jae	0x4007de <write@@GLIBC_2.2.5+0x4007de>
  400779: 74 76                        	je	0x4007f1 <write@@GLIBC_2.2.5+0x4007f1>
  40077b: 62                           	<unknown>
  40077c: 75 66                        	jne	0x4007e4 <write@@GLIBC_2.2.5+0x4007e4>
  40077e: 00 6d 65                     	addb	%ch, 101(%rbp)
  400781: 6d                           	insl	%dx, %es:(%rdi)
  400782: 6d                           	insl	%dx, %es:(%rdi)
  400783: 6f                           	outsl	(%rsi), %dx
  400784: 76 65                        	jbe	0x4007eb <write@@GLIBC_2.2.5+0x4007eb>
  400786: 00 73 74                     	addb	%dh, 116(%rbx)
  400789: 72 63                        	jb	0x4007ee <write@@GLIBC_2.2.5+0x4007ee>
  40078b: 6d                           	insl	%dx, %es:(%rdi)
  40078c: 70 00                        	jo	0x40078e <.dynstr+0x136>
  40078e: 5f                           	popq	%rdi
  40078f: 5f                           	popq	%rdi
  400790: 6c                           	insb	%dx, %es:(%rdi)
  400791: 69 62 63 5f 73 74 61         	imull	$1635021663, 99(%rdx), %esp
  400798: 72 74                        	jb	0x40080e <write@@GLIBC_2.2.5+0x40080e>
  40079a: 5f                           	popq	%rdi
  40079b: 6d                           	insl	%dx, %es:(%rdi)
  40079c: 61                           	<unknown>
  40079d: 69 6e 00 77 72 69 74         	imull	$1953067639, (%rsi), %ebp
  4007a4: 65 00 5f 5f                  	addb	%bl, %gs:95(%rdi)
  4007a8: 63 78 61                     	movslq	97(%rax), %edi
  4007ab: 5f                           	popq	%rdi
  4007ac: 61                           	<unknown>
  4007ad: 74 65                        	je	0x400814 <write@@GLIBC_2.2.5+0x400814>
  4007af: 78 69                        	js	0x40081a <write@@GLIBC_2.2.5+0x40081a>
  4007b1: 74 00                        	je	0x4007b3 <.dynstr+0x15b>
  4007b3: 47 4c                        	<unknown>
  4007b5: 49 42                        	<unknown>
  4007b7: 43 5f                        	popq	%r15
  4007b9: 32 2e                        	xorb	(%rsi), %ch
  4007bb: 32 2e                        	xorb	(%rsi), %ch
  4007bd: 35                           	<unknown>
  4007be: 00                           	<unknown>

Disassembly of section .gnu.version:

00000000004007c0 <.gnu.version>:
  4007c0: 00 00                        	addb	%al, (%rax)
  4007c2: 02 00                        	addb	(%rax), %al
  4007c4: 02 00                        	addb	(%rax), %al
  4007c6: 02 00                        	addb	(%rax), %al
  4007c8: 02 00                        	addb	(%rax), %al
  4007ca: 02 00                        	addb	(%rax), %al
  4007cc: 02 00                        	addb	(%rax), %al
  4007ce: 02 00                        	addb	(%rax), %al
  4007d0: 02 00                        	addb	(%rax), %al
  4007d2: 02 00                        	addb	(%rax), %al
  4007d4: 02 00                        	addb	(%rax), %al
  4007d6: 02 00                        	addb	(%rax), %al
  4007d8: 02 00                        	addb	(%rax), %al
  4007da: 02 00                        	addb	(%rax), %al
  4007dc: 02 00                        	addb	(%rax), %al
  4007de: 02 00                        	addb	(%rax), %al
  4007e0: 02 00                        	addb	(%rax), %al
  4007e2: 02 00                        	addb	(%rax), %al
  4007e4: 02 00                        	addb	(%rax), %al
  4007e6: 02 00                        	addb	(%rax), %al
  4007e8: 02 00                        	addb	(%rax), %al
  4007ea: 02 00                        	addb	(%rax), %al
  4007ec: 02 00                        	addb	(%rax), %al
  4007ee: 02 00                        	addb	(%rax), %al
  4007f0: 02 00                        	addb	(%rax), %al
  4007f2: 02 00                        	addb	(%rax), %al
  4007f4: 02 00                        	addb	(%rax), %al
  4007f6: 02 00                        	addb	(%rax), %al
  4007f8: 02 00                        	addb	(%rax), %al
  4007fa: 02 00                        	addb	(%rax), %al
  4007fc: 02 00                        	addb	(%rax), %al
  4007fe: 02 00                        	addb	(%rax), %al
  400800: 00 00                        	addb	%al, (%rax)
  400802: 02 00                        	addb	(%rax), %al
  400804: 02 00                        	addb	(%rax), %al
  400806: 02 00                        	addb	(%rax), %al
  400808: 02 00                        	addb	(%rax), %al
  40080a: 02 00                        	addb	(%rax), %al

Disassembly of section .gnu.version_r:

0000000000400810 <.gnu.version_r>:
  400810: 01 00                        	addl	%eax, (%rax)
  400812: 01 00                        	addl	%eax, (%rax)
  400814: 37                           	<unknown>
  400815: 00 00                        	addb	%al, (%rax)
  400817: 00 10                        	addb	%dl, (%rax)
  400819: 00 00                        	addb	%al, (%rax)
  40081b: 00 00                        	addb	%al, (%rax)
  40081d: 00 00                        	addb	%al, (%rax)
  40081f: 00 75 1a                     	addb	%dh, 26(%rbp)
  400822: 69 09 00 00 02 00            	imull	$131072, (%rcx), %ecx
  400828: 5b                           	popq	%rbx
  400829: 01 00                        	addl	%eax, (%rax)
  40082b: 00 00                        	addb	%al, (%rax)
  40082d: 00 00                        	addb	%al, (%rax)
  40082f: 00                           	<unknown>

Disassembly of section .rela.dyn:

0000000000400830 <.rela.dyn>:
  400830: f0                           	lock
  400831: 3f                           	<unknown>
  400832: 60                           	<unknown>
  400833: 00 00                        	addb	%al, (%rax)
  400835: 00 00                        	addb	%al, (%rax)
  400837: 00 06                        	addb	%al, (%rsi)
  400839: 00 00                        	addb	%al, (%rax)
  40083b: 00 1f                        	addb	%bl, (%rdi)
		...
  400845: 00 00                        	addb	%al, (%rax)
  400847: 00 f8                        	addb	%bh, %al
  400849: 3f                           	<unknown>
  40084a: 60                           	<unknown>
  40084b: 00 00                        	addb	%al, (%rax)
  40084d: 00 00                        	addb	%al, (%rax)
  40084f: 00 06                        	addb	%al, (%rsi)
  400851: 00 00                        	addb	%al, (%rax)
  400853: 00 20                        	addb	%ah, (%rax)
		...
  40085d: 00 00                        	addb	%al, (%rax)
  40085f: 00 a0 43 60 00 00            	addb	%ah, 24643(%rax)
  400865: 00 00                        	addb	%al, (%rax)
  400867: 00 05 00 00 00 23            	addb	%al, 587202560(%rip)  # 2340086d <_end+0x22dfb72d>
		...
  400875: 00 00                        	addb	%al, (%rax)
  400877: 00 b0 43 60 00 00            	addb	%dh, 24643(%rax)
  40087d: 00 00                        	addb	%al, (%rax)
  40087f: 00 05 00 00 00 24            	addb	%al, 603979776(%rip)  # 24400885 <_end+0x23dfb745>
		...
  40088d: 00 00                        	addb	%al, (%rax)
  40088f: 00 c0                        	addb	%al, %al
  400891: 43 60                        	<unknown>
  400893: 00 00                        	addb	%al, (%rax)
  400895: 00 00                        	addb	%al, (%rax)
  400897: 00 05 00 00 00 25            	addb	%al, 620756992(%rip)  # 2540089d <_end+0x24dfb75d>
		...
  4008a5: 00 00                        	addb	%al, (%rax)
  4008a7: 00                           	<unknown>

Disassembly of section .rela.plt:

00000000004008a8 <.rela.plt>:
  4008a8: 18 40 60                     	sbbb	%al, 96(%rax)
  4008ab: 00 00                        	addb	%al, (%rax)
  4008ad: 00 00                        	addb	%al, (%rax)
  4008af: 00 07                        	addb	%al, (%rdi)
  4008b1: 00 00                        	addb	%al, (%rax)
  4008b3: 00 01                        	addb	%al, (%rcx)
		...
  4008bd: 00 00                        	addb	%al, (%rax)
  4008bf: 00 20                        	addb	%ah, (%rax)
  4008c1: 40 60                        	<unknown>
  4008c3: 00 00                        	addb	%al, (%rax)
  4008c5: 00 00                        	addb	%al, (%rax)
  4008c7: 00 07                        	addb	%al, (%rdi)
  4008c9: 00 00                        	addb	%al, (%rax)
  4008cb: 00 02                        	addb	%al, (%rdx)
		...
  4008d5: 00 00                        	addb	%al, (%rax)
  4008d7: 00 28                        	addb	%ch, (%rax)
  4008d9: 40 60                        	<unknown>
  4008db: 00 00                        	addb	%al, (%rax)
  4008dd: 00 00                        	addb	%al, (%rax)
  4008df: 00 07                        	addb	%al, (%rdi)
  4008e1: 00 00                        	addb	%al, (%rax)
  4008e3: 00 03                        	addb	%al, (%rbx)
		...
  4008ed: 00 00                        	addb	%al, (%rax)
  4008ef: 00 30                        	addb	%dh, (%rax)
  4008f1: 40 60                        	<unknown>
  4008f3: 00 00                        	addb	%al, (%rax)
  4008f5: 00 00                        	addb	%al, (%rax)
  4008f7: 00 07                        	addb	%al, (%rdi)
  4008f9: 00 00                        	addb	%al, (%rax)
  4008fb: 00 04 00                     	addb	%al, (%rax,%rax)
		...
  400906: 00 00                        	addb	%al, (%rax)
  400908: 38 40 60                     	cmpb	%al, 96(%rax)
  40090b: 00 00                        	addb	%al, (%rax)
  40090d: 00 00                        	addb	%al, (%rax)
  40090f: 00 07                        	addb	%al, (%rdi)
  400911: 00 00                        	addb	%al, (%rax)
  400913: 00 05 00 00 00 00            	addb	%al, (%rip)  # 400919 <.rela.plt+0x71>
  400919: 00 00                        	addb	%al, (%rax)
  40091b: 00 00                        	addb	%al, (%rax)
  40091d: 00 00                        	addb	%al, (%rax)
  40091f: 00 40 40                     	addb	%al, 64(%rax)
  400922: 60                           	<unknown>
  400923: 00 00                        	addb	%al, (%rax)
  400925: 00 00                        	addb	%al, (%rax)
  400927: 00 07                        	addb	%al, (%rdi)
  400929: 00 00                        	addb	%al, (%rax)
  40092b: 00 06                        	addb	%al, (%rsi)
		...
  400935: 00 00                        	addb	%al, (%rax)
  400937: 00 48 40                     	addb	%cl, 64(%rax)
  40093a: 60                           	<unknown>
  40093b: 00 00                        	addb	%al, (%rax)
  40093d: 00 00                        	addb	%al, (%rax)
  40093f: 00 07                        	addb	%al, (%rdi)
  400941: 00 00                        	addb	%al, (%rax)
  400943: 00 07                        	addb	%al, (%rdi)
		...
  40094d: 00 00                        	addb	%al, (%rax)
  40094f: 00 50 40                     	addb	%dl, 64(%rax)
  400952: 60                           	<unknown>
  400953: 00 00                        	addb	%al, (%rax)
  400955: 00 00                        	addb	%al, (%rax)
  400957: 00 07                        	addb	%al, (%rdi)
  400959: 00 00                        	addb	%al, (%rax)
  40095b: 00 08                        	addb	%cl, (%rax)
		...
  400965: 00 00                        	addb	%al, (%rax)
  400967: 00 58 40                     	addb	%bl, 64(%rax)
  40096a: 60                           	<unknown>
  40096b: 00 00                        	addb	%al, (%rax)
  40096d: 00 00                        	addb	%al, (%rax)
  40096f: 00 07                        	addb	%al, (%rdi)
  400971: 00 00                        	addb	%al, (%rax)
  400973: 00 09                        	addb	%cl, (%rcx)
		...
  40097d: 00 00                        	addb	%al, (%rax)
  40097f: 00 60 40                     	addb	%ah, 64(%rax)
  400982: 60                           	<unknown>
  400983: 00 00                        	addb	%al, (%rax)
  400985: 00 00                        	addb	%al, (%rax)
  400987: 00 07                        	addb	%al, (%rdi)
  400989: 00 00                        	addb	%al, (%rax)
  40098b: 00 0a                        	addb	%cl, (%rdx)
		...
  400995: 00 00                        	addb	%al, (%rax)
  400997: 00 68 40                     	addb	%ch, 64(%rax)
  40099a: 60                           	<unknown>
  40099b: 00 00                        	addb	%al, (%rax)
  40099d: 00 00                        	addb	%al, (%rax)
  40099f: 00 07                        	addb	%al, (%rdi)
  4009a1: 00 00                        	addb	%al, (%rax)
  4009a3: 00 0b                        	addb	%cl, (%rbx)
		...
  4009ad: 00 00                        	addb	%al, (%rax)
  4009af: 00 70 40                     	addb	%dh, 64(%rax)
  4009b2: 60                           	<unknown>
  4009b3: 00 00                        	addb	%al, (%rax)
  4009b5: 00 00                        	addb	%al, (%rax)
  4009b7: 00 07                        	addb	%al, (%rdi)
  4009b9: 00 00                        	addb	%al, (%rax)
  4009bb: 00 0c 00                     	addb	%cl, (%rax,%rax)
		...
  4009c6: 00 00                        	addb	%al, (%rax)
  4009c8: 78 40                        	js	0x400a0a <.rela.plt+0x162>
  4009ca: 60                           	<unknown>
  4009cb: 00 00                        	addb	%al, (%rax)
  4009cd: 00 00                        	addb	%al, (%rax)
  4009cf: 00 07                        	addb	%al, (%rdi)
  4009d1: 00 00                        	addb	%al, (%rax)
  4009d3: 00 0d 00 00 00 00            	addb	%cl, (%rip)  # 4009d9 <.rela.plt+0x131>
  4009d9: 00 00                        	addb	%al, (%rax)
  4009db: 00 00                        	addb	%al, (%rax)
  4009dd: 00 00                        	addb	%al, (%rax)
  4009df: 00 80 40 60 00 00            	addb	%al, 24640(%rax)
  4009e5: 00 00                        	addb	%al, (%rax)
  4009e7: 00 07                        	addb	%al, (%rdi)
  4009e9: 00 00                        	addb	%al, (%rax)
  4009eb: 00 0e                        	addb	%cl, (%rsi)
		...
  4009f5: 00 00                        	addb	%al, (%rax)
  4009f7: 00 88 40 60 00 00            	addb	%cl, 24640(%rax)
  4009fd: 00 00                        	addb	%al, (%rax)
  4009ff: 00 07                        	addb	%al, (%rdi)
  400a01: 00 00                        	addb	%al, (%rax)
  400a03: 00 0f                        	addb	%cl, (%rdi)
		...
  400a0d: 00 00                        	addb	%al, (%rax)
  400a0f: 00 90 40 60 00 00            	addb	%dl, 24640(%rax)
  400a15: 00 00                        	addb	%al, (%rax)
  400a17: 00 07                        	addb	%al, (%rdi)
  400a19: 00 00                        	addb	%al, (%rax)
  400a1b: 00 10                        	addb	%dl, (%rax)
		...
  400a25: 00 00                        	addb	%al, (%rax)
  400a27: 00 98 40 60 00 00            	addb	%bl, 24640(%rax)
  400a2d: 00 00                        	addb	%al, (%rax)
  400a2f: 00 07                        	addb	%al, (%rdi)
  400a31: 00 00                        	addb	%al, (%rax)
  400a33: 00 11                        	addb	%dl, (%rcx)
		...
  400a3d: 00 00                        	addb	%al, (%rax)
  400a3f: 00 a0 40 60 00 00            	addb	%ah, 24640(%rax)
  400a45: 00 00                        	addb	%al, (%rax)
  400a47: 00 07                        	addb	%al, (%rdi)
  400a49: 00 00                        	addb	%al, (%rax)
  400a4b: 00 12                        	addb	%dl, (%rdx)
		...
  400a55: 00 00                        	addb	%al, (%rax)
  400a57: 00 a8 40 60 00 00            	addb	%ch, 24640(%rax)
  400a5d: 00 00                        	addb	%al, (%rax)
  400a5f: 00 07                        	addb	%al, (%rdi)
  400a61: 00 00                        	addb	%al, (%rax)
  400a63: 00 13                        	addb	%dl, (%rbx)
		...
  400a6d: 00 00                        	addb	%al, (%rax)
  400a6f: 00 b0 40 60 00 00            	addb	%dh, 24640(%rax)
  400a75: 00 00                        	addb	%al, (%rax)
  400a77: 00 07                        	addb	%al, (%rdi)
  400a79: 00 00                        	addb	%al, (%rax)
  400a7b: 00 14 00                     	addb	%dl, (%rax,%rax)
		...
  400a86: 00 00                        	addb	%al, (%rax)
  400a88: b8 40 60 00 00               	movl	$24640, %eax
  400a8d: 00 00                        	addb	%al, (%rax)
  400a8f: 00 07                        	addb	%al, (%rdi)
  400a91: 00 00                        	addb	%al, (%rax)
  400a93: 00 15 00 00 00 00            	addb	%dl, (%rip)  # 400a99 <.rela.plt+0x1f1>
  400a99: 00 00                        	addb	%al, (%rax)
  400a9b: 00 00                        	addb	%al, (%rax)
  400a9d: 00 00                        	addb	%al, (%rax)
  400a9f: 00 c0                        	addb	%al, %al
  400aa1: 40 60                        	<unknown>
  400aa3: 00 00                        	addb	%al, (%rax)
  400aa5: 00 00                        	addb	%al, (%rax)
  400aa7: 00 07                        	addb	%al, (%rdi)
  400aa9: 00 00                        	addb	%al, (%rax)
  400aab: 00 16                        	addb	%dl, (%rsi)
		...
  400ab5: 00 00                        	addb	%al, (%rax)
  400ab7: 00 c8                        	addb	%cl, %al
  400ab9: 40 60                        	<unknown>
  400abb: 00 00                        	addb	%al, (%rax)
  400abd: 00 00                        	addb	%al, (%rax)
  400abf: 00 07                        	addb	%al, (%rdi)
  400ac1: 00 00                        	addb	%al, (%rax)
  400ac3: 00 17                        	addb	%dl, (%rdi)
		...
  400acd: 00 00                        	addb	%al, (%rax)
  400acf: 00 d0                        	addb	%dl, %al
  400ad1: 40 60                        	<unknown>
  400ad3: 00 00                        	addb	%al, (%rax)
  400ad5: 00 00                        	addb	%al, (%rax)
  400ad7: 00 07                        	addb	%al, (%rdi)
  400ad9: 00 00                        	addb	%al, (%rax)
  400adb: 00 18                        	addb	%bl, (%rax)
		...
  400ae5: 00 00                        	addb	%al, (%rax)
  400ae7: 00 d8                        	addb	%bl, %al
  400ae9: 40 60                        	<unknown>
  400aeb: 00 00                        	addb	%al, (%rax)
  400aed: 00 00                        	addb	%al, (%rax)
  400aef: 00 07                        	addb	%al, (%rdi)
  400af1: 00 00                        	addb	%al, (%rax)
  400af3: 00 19                        	addb	%bl, (%rcx)
		...
  400afd: 00 00                        	addb	%al, (%rax)
  400aff: 00 e0                        	addb	%ah, %al
  400b01: 40 60                        	<unknown>
  400b03: 00 00                        	addb	%al, (%rax)
  400b05: 00 00                        	addb	%al, (%rax)
  400b07: 00 07                        	addb	%al, (%rdi)
  400b09: 00 00                        	addb	%al, (%rax)
  400b0b: 00 1a                        	addb	%bl, (%rdx)
		...
  400b15: 00 00                        	addb	%al, (%rax)
  400b17: 00 e8                        	addb	%ch, %al
  400b19: 40 60                        	<unknown>
  400b1b: 00 00                        	addb	%al, (%rax)
  400b1d: 00 00                        	addb	%al, (%rax)
  400b1f: 00 07                        	addb	%al, (%rdi)
  400b21: 00 00                        	addb	%al, (%rax)
  400b23: 00 1b                        	addb	%bl, (%rbx)
		...
  400b2d: 00 00                        	addb	%al, (%rax)
  400b2f: 00 f0                        	addb	%dh, %al
  400b31: 40 60                        	<unknown>
  400b33: 00 00                        	addb	%al, (%rax)
  400b35: 00 00                        	addb	%al, (%rax)
  400b37: 00 07                        	addb	%al, (%rdi)
  400b39: 00 00                        	addb	%al, (%rax)
  400b3b: 00 1c 00                     	addb	%bl, (%rax,%rax)
		...
  400b46: 00 00                        	addb	%al, (%rax)
  400b48: f8                           	clc
  400b49: 40 60                        	<unknown>
  400b4b: 00 00                        	addb	%al, (%rax)
  400b4d: 00 00                        	addb	%al, (%rax)
  400b4f: 00 07                        	addb	%al, (%rdi)
  400b51: 00 00                        	addb	%al, (%rax)
  400b53: 00 1d 00 00 00 00            	addb	%bl, (%rip)  # 400b59 <.rela.plt+0x2b1>
		...
  400b61: 41 60                        	<unknown>
  400b63: 00 00                        	addb	%al, (%rax)
  400b65: 00 00                        	addb	%al, (%rax)
  400b67: 00 07                        	addb	%al, (%rdi)
  400b69: 00 00                        	addb	%al, (%rax)
  400b6b: 00 1e                        	addb	%bl, (%rsi)
		...
  400b75: 00 00                        	addb	%al, (%rax)
  400b77: 00 08                        	addb	%cl, (%rax)
  400b79: 41 60                        	<unknown>
  400b7b: 00 00                        	addb	%al, (%rax)
  400b7d: 00 00                        	addb	%al, (%rax)
  400b7f: 00 07                        	addb	%al, (%rdi)
  400b81: 00 00                        	addb	%al, (%rax)
  400b83: 00 21                        	addb	%ah, (%rcx)
		...
  400b8d: 00 00                        	addb	%al, (%rax)
  400b8f: 00 10                        	addb	%dl, (%rax)
  400b91: 41 60                        	<unknown>
  400b93: 00 00                        	addb	%al, (%rax)
  400b95: 00 00                        	addb	%al, (%rax)
  400b97: 00 07                        	addb	%al, (%rdi)
  400b99: 00 00                        	addb	%al, (%rax)
  400b9b: 00 22                        	addb	%ah, (%rdx)
		...
  400ba5: 00 00                        	addb	%al, (%rax)
  400ba7: 00                           	<unknown>

Disassembly of section .init:

0000000000400ba8 <_init>:
  400ba8: 48 83 ec 08                  	subq	$8, %rsp
  400bac: 48 8b 05 45 34 20 00         	movq	2110533(%rip), %rax  # 603ff8 <write@@GLIBC_2.2.5+0x603ff8>
  400bb3: 48 85 c0                     	testq	%rax, %rax
  400bb6: 74 02                        	je	0x400bba <_init+0x12>
  400bb8: ff d0                        	callq	*%rax
  400bba: 48 83 c4 08                  	addq	$8, %rsp
  400bbe: c3                           	retq

Disassembly of section .plt:

0000000000400bc0 <.plt>:
  400bc0: ff 35 42 34 20 00            	pushq	2110530(%rip)  # 604008 <_GLOBAL_OFFSET_TABLE_+0x8>
  400bc6: ff 25 44 34 20 00            	jmpq	*2110532(%rip)  # 604010 <_GLOBAL_OFFSET_TABLE_+0x10>
  400bcc: 0f 1f 40 00                  	nopl	(%rax)

0000000000400bd0 <setvbuf@plt>:
  400bd0: ff 25 42 34 20 00            	jmpq	*2110530(%rip)  # 604018 <_GLOBAL_OFFSET_TABLE_+0x18>
  400bd6: 68 00 00 00 00               	pushq	$0
  400bdb: e9 e0 ff ff ff               	jmp	0x400bc0 <.plt>

0000000000400be0 <__errno_location@plt>:
  400be0: ff 25 3a 34 20 00            	jmpq	*2110522(%rip)  # 604020 <_GLOBAL_OFFSET_TABLE_+0x20>
  400be6: 68 01 00 00 00               	pushq	$1
  400beb: e9 d0 ff ff ff               	jmp	0x400bc0 <.plt>

0000000000400bf0 <printf@plt>:
  400bf0: ff 25 32 34 20 00            	jmpq	*2110514(%rip)  # 604028 <_GLOBAL_OFFSET_TABLE_+0x28>
  400bf6: 68 02 00 00 00               	pushq	$2
  400bfb: e9 c0 ff ff ff               	jmp	0x400bc0 <.plt>

0000000000400c00 <isspace@plt>:
  400c00: ff 25 2a 34 20 00            	jmpq	*2110506(%rip)  # 604030 <_GLOBAL_OFFSET_TABLE_+0x30>
  400c06: 68 03 00 00 00               	pushq	$3
  400c0b: e9 b0 ff ff ff               	jmp	0x400bc0 <.plt>

0000000000400c10 <sprintf@plt>:
  400c10: ff 25 22 34 20 00            	jmpq	*2110498(%rip)  # 604038 <_GLOBAL_OFFSET_TABLE_+0x38>
  400c16: 68 04 00 00 00               	pushq	$4
  400c1b: e9 a0 ff ff ff               	jmp	0x400bc0 <.plt>

0000000000400c20 <socket@plt>:
  400c20: ff 25 1a 34 20 00            	jmpq	*2110490(%rip)  # 604040 <_GLOBAL_OFFSET_TABLE_+0x40>
  400c26: 68 05 00 00 00               	pushq	$5
  400c2b: e9 90 ff ff ff               	jmp	0x400bc0 <.plt>

0000000000400c30 <strtoul@plt>:
  400c30: ff 25 12 34 20 00            	jmpq	*2110482(%rip)  # 604048 <_GLOBAL_OFFSET_TABLE_+0x48>
  400c36: 68 06 00 00 00               	pushq	$6
  400c3b: e9 80 ff ff ff               	jmp	0x400bc0 <.plt>

0000000000400c40 <write@plt>:
  400c40: ff 25 0a 34 20 00            	jmpq	*2110474(%rip)  # 604050 <_GLOBAL_OFFSET_TABLE_+0x50>
  400c46: 68 07 00 00 00               	pushq	$7
  400c4b: e9 70 ff ff ff               	jmp	0x400bc0 <.plt>

0000000000400c50 <strspn@plt>:
  400c50: ff 25 02 34 20 00            	jmpq	*2110466(%rip)  # 604058 <_GLOBAL_OFFSET_TABLE_+0x58>
  400c56: 68 08 00 00 00               	pushq	$8
  400c5b: e9 60 ff ff ff               	jmp	0x400bc0 <.plt>

0000000000400c60 <strlen@plt>:
  400c60: ff 25 fa 33 20 00            	jmpq	*2110458(%rip)  # 604060 <_GLOBAL_OFFSET_TABLE_+0x60>
  400c66: 68 09 00 00 00               	pushq	$9
  400c6b: e9 50 ff ff ff               	jmp	0x400bc0 <.plt>

0000000000400c70 <__assert_fail@plt>:
  400c70: ff 25 f2 33 20 00            	jmpq	*2110450(%rip)  # 604068 <_GLOBAL_OFFSET_TABLE_+0x68>
  400c76: 68 0a 00 00 00               	pushq	$10
  400c7b: e9 40 ff ff ff               	jmp	0x400bc0 <.plt>

0000000000400c80 <sscanf@plt>:
  400c80: ff 25 ea 33 20 00            	jmpq	*2110442(%rip)  # 604070 <_GLOBAL_OFFSET_TABLE_+0x70>
  400c86: 68 0b 00 00 00               	pushq	$11
  400c8b: e9 30 ff ff ff               	jmp	0x400bc0 <.plt>

0000000000400c90 <sleep@plt>:
  400c90: ff 25 e2 33 20 00            	jmpq	*2110434(%rip)  # 604078 <_GLOBAL_OFFSET_TABLE_+0x78>
  400c96: 68 0c 00 00 00               	pushq	$12
  400c9b: e9 20 ff ff ff               	jmp	0x400bc0 <.plt>

0000000000400ca0 <connect@plt>:
  400ca0: ff 25 da 33 20 00            	jmpq	*2110426(%rip)  # 604080 <_GLOBAL_OFFSET_TABLE_+0x80>
  400ca6: 68 0d 00 00 00               	pushq	$13
  400cab: e9 10 ff ff ff               	jmp	0x400bc0 <.plt>

0000000000400cb0 <__cxa_atexit@plt>:
  400cb0: ff 25 d2 33 20 00            	jmpq	*2110418(%rip)  # 604088 <_GLOBAL_OFFSET_TABLE_+0x88>
  400cb6: 68 0e 00 00 00               	pushq	$14
  400cbb: e9 00 ff ff ff               	jmp	0x400bc0 <.plt>

0000000000400cc0 <strcpy@plt>:
  400cc0: ff 25 ca 33 20 00            	jmpq	*2110410(%rip)  # 604090 <_GLOBAL_OFFSET_TABLE_+0x90>
  400cc6: 68 0f 00 00 00               	pushq	$15
  400ccb: e9 f0 fe ff ff               	jmp	0x400bc0 <.plt>

0000000000400cd0 <gethostbyname@plt>:
  400cd0: ff 25 c2 33 20 00            	jmpq	*2110402(%rip)  # 604098 <_GLOBAL_OFFSET_TABLE_+0x98>
  400cd6: 68 10 00 00 00               	pushq	$16
  400cdb: e9 e0 fe ff ff               	jmp	0x400bc0 <.plt>

0000000000400ce0 <fopen@plt>:
  400ce0: ff 25 ba 33 20 00            	jmpq	*2110394(%rip)  # 6040a0 <_GLOBAL_OFFSET_TABLE_+0xa0>
  400ce6: 68 11 00 00 00               	pushq	$17
  400ceb: e9 d0 fe ff ff               	jmp	0x400bc0 <.plt>

0000000000400cf0 <signal@plt>:
  400cf0: ff 25 b2 33 20 00            	jmpq	*2110386(%rip)  # 6040a8 <_GLOBAL_OFFSET_TABLE_+0xa8>
  400cf6: 68 12 00 00 00               	pushq	$18
  400cfb: e9 c0 fe ff ff               	jmp	0x400bc0 <.plt>

0000000000400d00 <exit@plt>:
  400d00: ff 25 aa 33 20 00            	jmpq	*2110378(%rip)  # 6040b0 <_GLOBAL_OFFSET_TABLE_+0xb0>
  400d06: 68 13 00 00 00               	pushq	$19
  400d0b: e9 b0 fe ff ff               	jmp	0x400bc0 <.plt>

0000000000400d10 <sigemptyset@plt>:
  400d10: ff 25 a2 33 20 00            	jmpq	*2110370(%rip)  # 6040b8 <_GLOBAL_OFFSET_TABLE_+0xb8>
  400d16: 68 14 00 00 00               	pushq	$20
  400d1b: e9 a0 fe ff ff               	jmp	0x400bc0 <.plt>

0000000000400d20 <sigaction@plt>:
  400d20: ff 25 9a 33 20 00            	jmpq	*2110362(%rip)  # 6040c0 <_GLOBAL_OFFSET_TABLE_+0xc0>
  400d26: 68 15 00 00 00               	pushq	$21
  400d2b: e9 90 fe ff ff               	jmp	0x400bc0 <.plt>

0000000000400d30 <strcmp@plt>:
  400d30: ff 25 92 33 20 00            	jmpq	*2110354(%rip)  # 6040c8 <_GLOBAL_OFFSET_TABLE_+0xc8>
  400d36: 68 16 00 00 00               	pushq	$22
  400d3b: e9 80 fe ff ff               	jmp	0x400bc0 <.plt>

0000000000400d40 <strtol@plt>:
  400d40: ff 25 8a 33 20 00            	jmpq	*2110346(%rip)  # 6040d0 <_GLOBAL_OFFSET_TABLE_+0xd0>
  400d46: 68 17 00 00 00               	pushq	$23
  400d4b: e9 70 fe ff ff               	jmp	0x400bc0 <.plt>

0000000000400d50 <fprintf@plt>:
  400d50: ff 25 82 33 20 00            	jmpq	*2110338(%rip)  # 6040d8 <_GLOBAL_OFFSET_TABLE_+0xd8>
  400d56: 68 18 00 00 00               	pushq	$24
  400d5b: e9 60 fe ff ff               	jmp	0x400bc0 <.plt>

0000000000400d60 <read@plt>:
  400d60: ff 25 7a 33 20 00            	jmpq	*2110330(%rip)  # 6040e0 <_GLOBAL_OFFSET_TABLE_+0xe0>
  400d66: 68 19 00 00 00               	pushq	$25
  400d6b: e9 50 fe ff ff               	jmp	0x400bc0 <.plt>

0000000000400d70 <puts@plt>:
  400d70: ff 25 72 33 20 00            	jmpq	*2110322(%rip)  # 6040e8 <_GLOBAL_OFFSET_TABLE_+0xe8>
  400d76: 68 1a 00 00 00               	pushq	$26
  400d7b: e9 40 fe ff ff               	jmp	0x400bc0 <.plt>

0000000000400d80 <fgets@plt>:
  400d80: ff 25 6a 33 20 00            	jmpq	*2110314(%rip)  # 6040f0 <_GLOBAL_OFFSET_TABLE_+0xf0>
  400d86: 68 1b 00 00 00               	pushq	$27
  400d8b: e9 30 fe ff ff               	jmp	0x400bc0 <.plt>

0000000000400d90 <memmove@plt>:
  400d90: ff 25 62 33 20 00            	jmpq	*2110306(%rip)  # 6040f8 <_GLOBAL_OFFSET_TABLE_+0xf8>
  400d96: 68 1c 00 00 00               	pushq	$28
  400d9b: e9 20 fe ff ff               	jmp	0x400bc0 <.plt>

0000000000400da0 <_exit@plt>:
  400da0: ff 25 5a 33 20 00            	jmpq	*2110298(%rip)  # 604100 <_GLOBAL_OFFSET_TABLE_+0x100>
  400da6: 68 1d 00 00 00               	pushq	$29
  400dab: e9 10 fe ff ff               	jmp	0x400bc0 <.plt>

0000000000400db0 <alarm@plt>:
  400db0: ff 25 52 33 20 00            	jmpq	*2110290(%rip)  # 604108 <_GLOBAL_OFFSET_TABLE_+0x108>
  400db6: 68 1e 00 00 00               	pushq	$30
  400dbb: e9 00 fe ff ff               	jmp	0x400bc0 <.plt>

0000000000400dc0 <close@plt>:
  400dc0: ff 25 4a 33 20 00            	jmpq	*2110282(%rip)  # 604110 <_GLOBAL_OFFSET_TABLE_+0x110>
  400dc6: 68 1f 00 00 00               	pushq	$31
  400dcb: e9 f0 fd ff ff               	jmp	0x400bc0 <.plt>

Disassembly of section .text:

0000000000400dd0 <main>:
  400dd0: 55                           	pushq	%rbp
  400dd1: 48 89 e5                     	movq	%rsp, %rbp
  400dd4: 41 54                        	pushq	%r12
  400dd6: 53                           	pushq	%rbx
  400dd7: 48 89 f3                     	movq	%rsi, %rbx
  400dda: 83 ff 02                     	cmpl	$2, %edi
  400ddd: 0f 84 e0 00 00 00            	je	0x400ec3 <main+0xf3>
  400de3: 0f 8f 2b 01 00 00            	jg	0x400f14 <main+0x144>
  400de9: e8 02 0a 00 00               	callq	0x4017f0 <_Z15initialize_bombv>
  400dee: bf f7 23 40 00               	movl	$4203511, %edi
  400df3: e8 78 ff ff ff               	callq	0x400d70 <puts@plt>
  400df8: e8 e3 0a 00 00               	callq	0x4018e0 <_Z9read_linev>
  400dfd: 48 89 c7                     	movq	%rax, %rdi
  400e00: e8 1b 02 00 00               	callq	0x401020 <_Z6phase1Pc>
  400e05: e8 46 0d 00 00               	callq	0x401b50 <_Z13phase_defusedv>
  400e0a: bf 07 24 40 00               	movl	$4203527, %edi
  400e0f: e8 5c ff ff ff               	callq	0x400d70 <puts@plt>
  400e14: e8 c7 0a 00 00               	callq	0x4018e0 <_Z9read_linev>
  400e19: 48 89 c7                     	movq	%rax, %rdi
  400e1c: e8 2f 02 00 00               	callq	0x401050 <_Z6phase2Pc>
  400e21: e8 2a 0d 00 00               	callq	0x401b50 <_Z13phase_defusedv>
  400e26: bf 18 24 40 00               	movl	$4203544, %edi
  400e2b: e8 40 ff ff ff               	callq	0x400d70 <puts@plt>
  400e30: e8 ab 0a 00 00               	callq	0x4018e0 <_Z9read_linev>
  400e35: 48 89 c7                     	movq	%rax, %rdi
  400e38: e8 53 02 00 00               	callq	0x401090 <_Z6phase3Pc>
  400e3d: e8 0e 0d 00 00               	callq	0x401b50 <_Z13phase_defusedv>
  400e42: bf 29 24 40 00               	movl	$4203561, %edi
  400e47: e8 24 ff ff ff               	callq	0x400d70 <puts@plt>
  400e4c: e8 8f 0a 00 00               	callq	0x4018e0 <_Z9read_linev>
  400e51: 48 89 c7                     	movq	%rax, %rdi
  400e54: e8 87 02 00 00               	callq	0x4010e0 <_Z6phase4Pc>
  400e59: e8 f2 0c 00 00               	callq	0x401b50 <_Z13phase_defusedv>
  400e5e: bf 3a 24 40 00               	movl	$4203578, %edi
  400e63: e8 08 ff ff ff               	callq	0x400d70 <puts@plt>
  400e68: e8 73 0a 00 00               	callq	0x4018e0 <_Z9read_linev>
  400e6d: 48 89 c7                     	movq	%rax, %rdi
  400e70: e8 ab 03 00 00               	callq	0x401220 <_Z6phase5Pc>
  400e75: e8 d6 0c 00 00               	callq	0x401b50 <_Z13phase_defusedv>
  400e7a: bf 4b 24 40 00               	movl	$4203595, %edi
  400e7f: e8 ec fe ff ff               	callq	0x400d70 <puts@plt>
  400e84: e8 57 0a 00 00               	callq	0x4018e0 <_Z9read_linev>
  400e89: 48 89 c7                     	movq	%rax, %rdi
  400e8c: e8 2f 06 00 00               	callq	0x4014c0 <_Z6phase6Pc>
  400e91: e8 ba 0c 00 00               	callq	0x401b50 <_Z13phase_defusedv>
  400e96: bf 5c 24 40 00               	movl	$4203612, %edi
  400e9b: e8 d0 fe ff ff               	callq	0x400d70 <puts@plt>
  400ea0: e8 3b 0a 00 00               	callq	0x4018e0 <_Z9read_linev>
  400ea5: 48 89 c7                     	movq	%rax, %rdi
  400ea8: e8 83 06 00 00               	callq	0x401530 <_Z6phase7Pc>
  400ead: e8 9e 0c 00 00               	callq	0x401b50 <_Z13phase_defusedv>
  400eb2: bf 6d 24 40 00               	movl	$4203629, %edi
  400eb7: e8 b4 fe ff ff               	callq	0x400d70 <puts@plt>
  400ebc: 31 c0                        	xorl	%eax, %eax
  400ebe: 5b                           	popq	%rbx
  400ebf: 41 5c                        	popq	%r12
  400ec1: 5d                           	popq	%rbp
  400ec2: c3                           	retq
  400ec3: 4c 8b 66 08                  	movq	8(%rsi), %r12
  400ec7: be c4 23 40 00               	movl	$4203460, %esi
  400ecc: 4c 89 e7                     	movq	%r12, %rdi
  400ecf: e8 5c fe ff ff               	callq	0x400d30 <strcmp@plt>
  400ed4: 85 c0                        	testl	%eax, %eax
  400ed6: 0f 84 0d ff ff ff            	je	0x400de9 <main+0x19>
  400edc: be c6 23 40 00               	movl	$4203462, %esi
  400ee1: 4c 89 e7                     	movq	%r12, %rdi
  400ee4: e8 f7 fd ff ff               	callq	0x400ce0 <fopen@plt>
  400ee9: 48 89 05 e0 34 20 00         	movq	%rax, 2110688(%rip)  # 6043d0 <infile>
  400ef0: 48 85 c0                     	testq	%rax, %rax
  400ef3: 0f 85 f0 fe ff ff            	jne	0x400de9 <main+0x19>
  400ef9: 48 8b 53 08                  	movq	8(%rbx), %rdx
  400efd: 48 8b 33                     	movq	(%rbx), %rsi
  400f00: bf c8 23 40 00               	movl	$4203464, %edi
  400f05: e8 e6 fc ff ff               	callq	0x400bf0 <printf@plt>
  400f0a: bf 08 00 00 00               	movl	$8, %edi
  400f0f: e8 ec fd ff ff               	callq	0x400d00 <exit@plt>
  400f14: 48 8b 36                     	movq	(%rsi), %rsi
  400f17: bf e5 23 40 00               	movl	$4203493, %edi
  400f1c: 31 c0                        	xorl	%eax, %eax
  400f1e: e8 cd fc ff ff               	callq	0x400bf0 <printf@plt>
  400f23: bf 08 00 00 00               	movl	$8, %edi
  400f28: e8 d3 fd ff ff               	callq	0x400d00 <exit@plt>
  400f2d: 0f 1f 00                     	nopl	(%rax)

0000000000400f30 <_GLOBAL__sub_I_infile>:
  400f30: 48 8b 05 79 34 20 00         	movq	2110585(%rip), %rax  # 6043b0 <stdin@@GLIBC_2.2.5>
  400f37: 48 89 05 92 34 20 00         	movq	%rax, 2110610(%rip)  # 6043d0 <infile>
  400f3e: c3                           	retq
  400f3f: 90                           	nop

0000000000400f40 <_start>:
  400f40: 31 ed                        	xorl	%ebp, %ebp
  400f42: 49 89 d1                     	movq	%rdx, %r9
  400f45: 5e                           	popq	%rsi
  400f46: 48 89 e2                     	movq	%rsp, %rdx
  400f49: 48 83 e4 f0                  	andq	$-16, %rsp
  400f4d: 50                           	pushq	%rax
  400f4e: 54                           	pushq	%rsp
  400f4f: 49 c7 c0 80 23 40 00         	movq	$4203392, %r8
  400f56: 48 c7 c1 20 23 40 00         	movq	$4203296, %rcx
  400f5d: 48 c7 c7 d0 0d 40 00         	movq	$4197840, %rdi
  400f64: ff 15 86 30 20 00            	callq	*2109574(%rip)  # 603ff0 <write@@GLIBC_2.2.5+0x603ff0>
  400f6a: f4                           	hlt
  400f6b: 0f 1f 44 00 00               	nopl	(%rax,%rax)

0000000000400f70 <deregister_tm_clones>:
  400f70: b8 98 43 60 00               	movl	$6308760, %eax
  400f75: 48 3d 98 43 60 00            	cmpq	$6308760, %rax
  400f7b: 74 13                        	je	0x400f90 <deregister_tm_clones+0x20>
  400f7d: b8 00 00 00 00               	movl	$0, %eax
  400f82: 48 85 c0                     	testq	%rax, %rax
  400f85: 74 09                        	je	0x400f90 <deregister_tm_clones+0x20>
  400f87: bf 98 43 60 00               	movl	$6308760, %edi
  400f8c: ff e0                        	jmpq	*%rax
  400f8e: 66 90                        	nop
  400f90: c3                           	retq
  400f91: 0f 1f 44 00 00               	nopl	(%rax,%rax)
  400f96: 66 2e 0f 1f 84 00 00 00 00 00	nopw	%cs:(%rax,%rax)

0000000000400fa0 <register_tm_clones>:
  400fa0: be 98 43 60 00               	movl	$6308760, %esi
  400fa5: 48 81 ee 98 43 60 00         	subq	$6308760, %rsi
  400fac: 48 89 f0                     	movq	%rsi, %rax
  400faf: 48 c1 ee 3f                  	shrq	$63, %rsi
  400fb3: 48 c1 f8 03                  	sarq	$3, %rax
  400fb7: 48 01 c6                     	addq	%rax, %rsi
  400fba: 48 d1 fe                     	sarq	%rsi
  400fbd: 74 11                        	je	0x400fd0 <register_tm_clones+0x30>
  400fbf: b8 00 00 00 00               	movl	$0, %eax
  400fc4: 48 85 c0                     	testq	%rax, %rax
  400fc7: 74 07                        	je	0x400fd0 <register_tm_clones+0x30>
  400fc9: bf 98 43 60 00               	movl	$6308760, %edi
  400fce: ff e0                        	jmpq	*%rax
  400fd0: c3                           	retq
  400fd1: 0f 1f 44 00 00               	nopl	(%rax,%rax)
  400fd6: 66 2e 0f 1f 84 00 00 00 00 00	nopw	%cs:(%rax,%rax)

0000000000400fe0 <__do_global_dtors_aux>:
  400fe0: f3 0f 1e fa                  	endbr64
  400fe4: 80 3d dd 33 20 00 00         	cmpb	$0, 2110429(%rip)  # 6043c8 <completed.0>
  400feb: 75 13                        	jne	0x401000 <__do_global_dtors_aux+0x20>
  400fed: 55                           	pushq	%rbp
  400fee: 48 89 e5                     	movq	%rsp, %rbp
  400ff1: e8 7a ff ff ff               	callq	0x400f70 <deregister_tm_clones>
  400ff6: c6 05 cb 33 20 00 01         	movb	$1, 2110411(%rip)  # 6043c8 <completed.0>
  400ffd: 5d                           	popq	%rbp
  400ffe: c3                           	retq
  400fff: 90                           	nop
  401000: c3                           	retq
  401001: 0f 1f 44 00 00               	nopl	(%rax,%rax)
  401006: 66 2e 0f 1f 84 00 00 00 00 00	nopw	%cs:(%rax,%rax)

0000000000401010 <frame_dummy>:
  401010: f3 0f 1e fa                  	endbr64
  401014: eb 8a                        	jmp	0x400fa0 <register_tm_clones>
  401016: 66 2e 0f 1f 84 00 00 00 00 00	nopw	%cs:(%rax,%rax)

0000000000401020 <_Z6phase1Pc>:
  401020: 55                           	pushq	%rbp
  401021: 31 d2                        	xorl	%edx, %edx
  401023: 48 89 e5                     	movq	%rsp, %rbp
  401026: 48 83 ec 10                  	subq	$16, %rsp
  40102a: 48 8d 75 f8                  	leaq	-8(%rbp), %rsi
  40102e: e8 0d fd ff ff               	callq	0x400d40 <strtol@plt>
  401033: 48 3d fb 1f 00 00            	cmpq	$8187, %rax
  401039: 75 05                        	jne	0x401040 <_Z6phase1Pc+0x20>
  40103b: c9                           	leave
  40103c: c3                           	retq
  40103d: 0f 1f 00                     	nopl	(%rax)
  401040: e8 8b 0a 00 00               	callq	0x401ad0 <_Z12explode_bombv>
  401045: 90                           	nop
  401046: 66 2e 0f 1f 84 00 00 00 00 00	nopw	%cs:(%rax,%rax)

0000000000401050 <_Z6phase2Pc>:
  401050: 55                           	pushq	%rbp
  401051: 48 89 e5                     	movq	%rsp, %rbp
  401054: 48 83 ec 30                  	subq	$48, %rsp
  401058: 48 8d 75 e0                  	leaq	-32(%rbp), %rsi
  40105c: e8 af 0a 00 00               	callq	0x401b10 <_Z16read_six_numbersPKcPi>
  401061: b8 01 00 00 00               	movl	$1, %eax
  401066: 89 c1                        	movl	%eax, %ecx
  401068: 8b 74 85 dc                  	movl	-36(%rbp,%rax,4), %esi
  40106c: 0f af c8                     	imull	%eax, %ecx
  40106f: 89 f2                        	movl	%esi, %edx
  401071: 89 75 dc                     	movl	%esi, -36(%rbp)
  401074: 29 ca                        	subl	%ecx, %edx
  401076: 39 54 85 e0                  	cmpl	%edx, -32(%rbp,%rax,4)
  40107a: 75 0c                        	jne	0x401088 <_Z6phase2Pc+0x38>
  40107c: 48 83 c0 01                  	addq	$1, %rax
  401080: 48 83 f8 06                  	cmpq	$6, %rax
  401084: 75 e0                        	jne	0x401066 <_Z6phase2Pc+0x16>
  401086: c9                           	leave
  401087: c3                           	retq
  401088: e8 43 0a 00 00               	callq	0x401ad0 <_Z12explode_bombv>
  40108d: 0f 1f 00                     	nopl	(%rax)

0000000000401090 <_Z6phase3Pc>:
  401090: 55                           	pushq	%rbp
  401091: 31 c0                        	xorl	%eax, %eax
  401093: be 7e 24 40 00               	movl	$4203646, %esi
  401098: 48 89 e5                     	movq	%rsp, %rbp
  40109b: 48 83 ec 10                  	subq	$16, %rsp
  40109f: 4c 8d 45 fc                  	leaq	-4(%rbp), %r8
  4010a3: 48 8d 4d f7                  	leaq	-9(%rbp), %rcx
  4010a7: 48 8d 55 f8                  	leaq	-8(%rbp), %rdx
  4010ab: e8 d0 fb ff ff               	callq	0x400c80 <sscanf@plt>
  4010b0: 83 f8 02                     	cmpl	$2, %eax
  4010b3: 7e 22                        	jle	0x4010d7 <_Z6phase3Pc+0x47>
  4010b5: 8b 45 f8                     	movl	-8(%rbp), %eax
  4010b8: 83 f8 07                     	cmpl	$7, %eax
  4010bb: 77 1a                        	ja	0x4010d7 <_Z6phase3Pc+0x47>
  4010bd: 8b 14 85 c0 25 40 00         	movl	4203968(,%rax,4), %edx
  4010c4: 0f b6 80 a0 25 40 00         	movzbl	4203936(%rax), %eax
  4010cb: 38 45 f7                     	cmpb	%al, -9(%rbp)
  4010ce: 75 07                        	jne	0x4010d7 <_Z6phase3Pc+0x47>
  4010d0: 39 55 fc                     	cmpl	%edx, -4(%rbp)
  4010d3: 75 02                        	jne	0x4010d7 <_Z6phase3Pc+0x47>
  4010d5: c9                           	leave
  4010d6: c3                           	retq
  4010d7: e8 f4 09 00 00               	callq	0x401ad0 <_Z12explode_bombv>
  4010dc: 0f 1f 40 00                  	nopl	(%rax)

00000000004010e0 <_Z6phase4Pc>:
  4010e0: 55                           	pushq	%rbp
  4010e1: be d8 24 40 00               	movl	$4203736, %esi
  4010e6: 48 89 e5                     	movq	%rsp, %rbp
  4010e9: e8 42 fc ff ff               	callq	0x400d30 <strcmp@plt>
  4010ee: 85 c0                        	testl	%eax, %eax
  4010f0: 75 02                        	jne	0x4010f4 <_Z6phase4Pc+0x14>
  4010f2: 5d                           	popq	%rbp
  4010f3: c3                           	retq
  4010f4: e8 d7 09 00 00               	callq	0x401ad0 <_Z12explode_bombv>
  4010f9: 0f 1f 80 00 00 00 00         	nopl	(%rax)

0000000000401100 <_Z12phase5_word1PKc>:
  401100: 55                           	pushq	%rbp
  401101: 48 89 e5                     	movq	%rsp, %rbp
  401104: 41 54                        	pushq	%r12
  401106: 49 89 fc                     	movq	%rdi, %r12
  401109: bf 87 24 40 00               	movl	$4203655, %edi
  40110e: 53                           	pushq	%rbx
  40110f: bb e0 25 40 00               	movl	$4204000, %ebx
  401114: eb 17                        	jmp	0x40112d <_Z12phase5_word1PKc+0x2d>
  401116: 66 2e 0f 1f 84 00 00 00 00 00	nopw	%cs:(%rax,%rax)
  401120: 48 8b 7b 08                  	movq	8(%rbx), %rdi
  401124: 48 83 c3 08                  	addq	$8, %rbx
  401128: 48 85 ff                     	testq	%rdi, %rdi *reach this test
  40112b: 74 1b                        	je	0x401148 <_Z12phase5_word1PKc+0x48> *end of loop
  40112d: 4c 89 e6                     	movq	%r12, %rsi
  401130: e8 fb fb ff ff               	callq	0x400d30 <strcmp@plt>
  401135: 85 c0                        	testl	%eax, %eax *never
  401137: 75 e7                        	jne	0x401120 <_Z12phase5_word1PKc+0x20>
  401139: 5b                           	popq	%rbx
  40113a: b8 01 00 00 00               	movl	$1, %eax
  40113f: 41 5c                        	popq	%r12
  401141: 5d                           	popq	%rbp
  401142: c3                           	retq
  401143: 0f 1f 44 00 00               	nopl	(%rax,%rax)
  401148: 5b                           	popq	%rbx
  401149: 31 c0                        	xorl	%eax, %eax
  40114b: 41 5c                        	popq	%r12
  40114d: 5d                           	popq	%rbp
  40114e: c3                           	retq
  40114f: 90                           	nop

0000000000401150 <_Z12phase5_word2PKcm>:
  401150: b8 01 00 00 00               	movl	$1, %eax
  401155: 48 83 fe 01                  	cmpq	$1, %rsi
  401159: 76 15                        	jbe	0x401170 <_Z12phase5_word2PKcm+0x20>
  40115b: 48 8d 54 37 fe               	leaq	-2(%rdi,%rsi), %rdx
  401160: 0f be 42 01                  	movsbl	1(%rdx), %eax
  401164: 0f be 0f                     	movsbl	(%rdi), %ecx
  401167: 83 c0 20                     	addl	$32, %eax
  40116a: 39 c1                        	cmpl	%eax, %ecx
  40116c: 74 0a                        	je	0x401178 <_Z12phase5_word2PKcm+0x28>
  40116e: 31 c0                        	xorl	%eax, %eax
  401170: c3                           	retq
  401171: 0f 1f 80 00 00 00 00         	nopl	(%rax)
  401178: 48 8d 46 fe                  	leaq	-2(%rsi), %rax
  40117c: 48 83 f8 01                  	cmpq	$1, %rax
  401180: 76 20                        	jbe	0x4011a2 <_Z12phase5_word2PKcm+0x52>
  401182: 0f be 02                     	movsbl	(%rdx), %eax
  401185: 0f be 4f 01                  	movsbl	1(%rdi), %ecx
  401189: 83 c0 20                     	addl	$32, %eax
  40118c: 39 c1                        	cmpl	%eax, %ecx
  40118e: 75 de                        	jne	0x40116e <_Z12phase5_word2PKcm+0x1e>
  401190: 48 83 ee 04                  	subq	$4, %rsi
  401194: 48 83 c7 02                  	addq	$2, %rdi
  401198: 48 83 ea 02                  	subq	$2, %rdx
  40119c: 48 83 fe 01                  	cmpq	$1, %rsi
  4011a0: 77 be                        	ja	0x401160 <_Z12phase5_word2PKcm+0x10>
  4011a2: b8 01 00 00 00               	movl	$1, %eax
  4011a7: c3                           	retq
  4011a8: 0f 1f 84 00 00 00 00 00      	nopl	(%rax,%rax)

00000000004011b0 <_Z18phase5_word1_word2PKcS0_>:
  4011b0: 55                           	pushq	%rbp
  4011b1: 48 89 e5                     	movq	%rsp, %rbp
  4011b4: 41 55                        	pushq	%r13
  4011b6: 41 54                        	pushq	%r12
  4011b8: 49 89 f4                     	movq	%rsi, %r12
  4011bb: 53                           	pushq	%rbx
  4011bc: 48 89 fb                     	movq	%rdi, %rbx
  4011bf: 48 89 f7                     	movq	%rsi, %rdi
  4011c2: 48 83 ec 08                  	subq	$8, %rsp
  4011c6: e8 95 fa ff ff               	callq	0x400c60 <strlen@plt>
  4011cb: 48 89 df                     	movq	%rbx, %rdi
  4011ce: 49 89 c5                     	movq	%rax, %r13
  4011d1: e8 8a fa ff ff               	callq	0x400c60 <strlen@plt>
  4011d6: 48 8d 54 00 02               	leaq	2(%rax,%rax), %rdx
  4011db: 31 c0                        	xorl	%eax, %eax
  4011dd: 49 39 d5                     	cmpq	%rdx, %r13
  4011e0: 72 22                        	jb	0x401204 <_Z18phase5_word1_word2PKcS0_+0x54>
  4011e2: 0f b6 13                     	movzbl	(%rbx), %edx
  4011e5: 84 d2                        	testb	%dl, %dl
  4011e7: 74 27                        	je	0x401210 <_Z18phase5_word1_word2PKcS0_+0x60>
  4011e9: 31 c0                        	xorl	%eax, %eax
  4011eb: eb 0f                        	jmp	0x4011fc <_Z18phase5_word1_word2PKcS0_+0x4c>
  4011ed: 0f 1f 00                     	nopl	(%rax)
  4011f0: 48 83 c0 01                  	addq	$1, %rax
  4011f4: 0f b6 14 03                  	movzbl	(%rbx,%rax), %edx
  4011f8: 84 d2                        	testb	%dl, %dl
  4011fa: 74 14                        	je	0x401210 <_Z18phase5_word1_word2PKcS0_+0x60>
  4011fc: 41 38 14 04                  	cmpb	%dl, (%r12,%rax)
  401200: 74 ee                        	je	0x4011f0 <_Z18phase5_word1_word2PKcS0_+0x40>
  401202: 31 c0                        	xorl	%eax, %eax
  401204: 48 83 c4 08                  	addq	$8, %rsp
  401208: 5b                           	popq	%rbx
  401209: 41 5c                        	popq	%r12
  40120b: 41 5d                        	popq	%r13
  40120d: 5d                           	popq	%rbp
  40120e: c3                           	retq
  40120f: 90                           	nop
  401210: 48 83 c4 08                  	addq	$8, %rsp
  401214: b8 01 00 00 00               	movl	$1, %eax
  401219: 5b                           	popq	%rbx
  40121a: 41 5c                        	popq	%r12
  40121c: 41 5d                        	popq	%r13
  40121e: 5d                           	popq	%rbp
  40121f: c3                           	retq

0000000000401220 <_Z6phase5Pc>:
  401220: 55                           	pushq	%rbp
  401221: 31 c0                        	xorl	%eax, %eax
  401223: be a1 27 40 00               	movl	$4204449, %esi
  401228: 48 89 e5                     	movq	%rsp, %rbp
  40122b: 53                           	pushq	%rbx
  40122c: 48 8d 8d 50 ff ff ff         	leaq	-176(%rbp), %rcx
  401233: 48 8d 95 b0 fe ff ff         	leaq	-336(%rbp), %rdx
  40123a: 48 81 ec 48 01 00 00         	subq	$328, %rsp
  401241: e8 3a fa ff ff               	callq	0x400c80 <sscanf@plt>
  401246: 83 f8 02                     	cmpl	$2, %eax
  401249: 0f 85 81 00 00 00            	jne	0x4012d0 <_Z6phase5Pc+0xb0>
  40124f: bb e0 25 40 00               	movl	$4204000, %ebx
  401254: bf 87 24 40 00               	movl	$4203655, %edi
  401259: eb 12                        	jmp	0x40126d <_Z6phase5Pc+0x4d>
  40125b: 0f 1f 44 00 00               	nopl	(%rax,%rax)
  401260: 48 8b 7b 08                  	movq	8(%rbx), %rdi
  401264: 48 83 c3 08                  	addq	$8, %rbx
  401268: 48 85 ff                     	testq	%rdi, %rdi
  40126b: 74 63                        	je	0x4012d0 <_Z6phase5Pc+0xb0>
  40126d: 48 8d b5 b0 fe ff ff         	leaq	-336(%rbp), %rsi
  401274: e8 b7 fa ff ff               	callq	0x400d30 <strcmp@plt>
  401279: 85 c0                        	testl	%eax, %eax
  40127b: 75 e3                        	jne	0x401260 <_Z6phase5Pc+0x40>
  40127d: 48 8d bd 50 ff ff ff         	leaq	-176(%rbp), %rdi
  401284: e8 d7 f9 ff ff               	callq	0x400c60 <strlen@plt>
  401289: 48 89 c3                     	movq	%rax, %rbx
  40128c: 48 83 f8 01                  	cmpq	$1, %rax
  401290: 76 5e                        	jbe	0x4012f0 <_Z6phase5Pc+0xd0>
  401292: 0f be 84 1d 4f ff ff ff      	movsbl	-177(%rbp,%rbx), %eax
  40129a: 0f be 95 50 ff ff ff         	movsbl	-176(%rbp), %edx
  4012a1: 83 c0 20                     	addl	$32, %eax
  4012a4: 39 c2                        	cmpl	%eax, %edx
  4012a6: 75 28                        	jne	0x4012d0 <_Z6phase5Pc+0xb0>
  4012a8: 48 8d 43 fe                  	leaq	-2(%rbx), %rax
  4012ac: 48 83 f8 01                  	cmpq	$1, %rax
  4012b0: 76 3e                        	jbe	0x4012f0 <_Z6phase5Pc+0xd0>
  4012b2: 0f be 84 1d 4e ff ff ff      	movsbl	-178(%rbp,%rbx), %eax
  4012ba: 0f be 95 51 ff ff ff         	movsbl	-175(%rbp), %edx
  4012c1: 83 c0 20                     	addl	$32, %eax
  4012c4: 39 c2                        	cmpl	%eax, %edx
  4012c6: 74 0d                        	je	0x4012d5 <_Z6phase5Pc+0xb5>
  4012c8: 0f 1f 84 00 00 00 00 00      	nopl	(%rax,%rax)
  4012d0: e8 fb 07 00 00               	callq	0x401ad0 <_Z12explode_bombv>
  4012d5: 48 8d 73 fc                  	leaq	-4(%rbx), %rsi
  4012d9: 48 8d bd 52 ff ff ff         	leaq	-174(%rbp), %rdi
  4012e0: e8 6b fe ff ff               	callq	0x401150 <_Z12phase5_word2PKcm>
  4012e5: 84 c0                        	testb	%al, %al
  4012e7: 74 e7                        	je	0x4012d0 <_Z6phase5Pc+0xb0>
  4012e9: 0f 1f 80 00 00 00 00         	nopl	(%rax)
  4012f0: 48 8d bd b0 fe ff ff         	leaq	-336(%rbp), %rdi
  4012f7: e8 64 f9 ff ff               	callq	0x400c60 <strlen@plt>
  4012fc: 48 8d 44 00 02               	leaq	2(%rax,%rax), %rax
  401301: 48 39 c3                     	cmpq	%rax, %rbx
  401304: 72 ca                        	jb	0x4012d0 <_Z6phase5Pc+0xb0>
  401306: 0f b6 95 b0 fe ff ff         	movzbl	-336(%rbp), %edx
  40130d: 84 d2                        	testb	%dl, %dl
  40130f: 74 27                        	je	0x401338 <_Z6phase5Pc+0x118>
  401311: 31 c0                        	xorl	%eax, %eax
  401313: eb 13                        	jmp	0x401328 <_Z6phase5Pc+0x108>
  401315: 0f 1f 00                     	nopl	(%rax)
  401318: 48 83 c0 01                  	addq	$1, %rax
  40131c: 0f b6 94 05 b0 fe ff ff      	movzbl	-336(%rbp,%rax), %edx
  401324: 84 d2                        	testb	%dl, %dl
  401326: 74 10                        	je	0x401338 <_Z6phase5Pc+0x118>
  401328: 38 94 05 50 ff ff ff         	cmpb	%dl, -176(%rbp,%rax)
  40132f: 74 e7                        	je	0x401318 <_Z6phase5Pc+0xf8>
  401331: eb 9d                        	jmp	0x4012d0 <_Z6phase5Pc+0xb0>
  401333: 0f 1f 44 00 00               	nopl	(%rax,%rax)
  401338: 48 8b 5d f8                  	movq	-8(%rbp), %rbx
  40133c: c9                           	leave
  40133d: c3                           	retq
  40133e: 66 90                        	nop

0000000000401340 <_Z12calc6_factorPcP5calc6>:
  401340: 55                           	pushq	%rbp
  401341: 48 89 e5                     	movq	%rsp, %rbp
  401344: 41 55                        	pushq	%r13
  401346: 41 54                        	pushq	%r12
  401348: 49 89 f4                     	movq	%rsi, %r12
  40134b: be 8e 24 40 00               	movl	$4203662, %esi
  401350: 53                           	pushq	%rbx
  401351: 48 89 fb                     	movq	%rdi, %rbx
  401354: 48 83 ec 08                  	subq	$8, %rsp
  401358: e8 f3 f8 ff ff               	callq	0x400c50 <strspn@plt>
  40135d: ba 0a 00 00 00               	movl	$10, %edx
  401362: 31 f6                        	xorl	%esi, %esi
  401364: 48 89 df                     	movq	%rbx, %rdi
  401367: 49 89 c5                     	movq	%rax, %r13
  40136a: e8 c1 f8 ff ff               	callq	0x400c30 <strtoul@plt>
  40136f: 4d 85 ed                     	testq	%r13, %r13
  401372: 0f 94 c2                     	sete	%dl
  401375: 41 89 04 24                  	movl	%eax, (%r12)
  401379: 41 08 54 24 08               	orb	%dl, 8(%r12)
  40137e: 83 f8 01                     	cmpl	$1, %eax
  401381: 77 06                        	ja	0x401389 <_Z12calc6_factorPcP5calc6+0x49>
  401383: 41 83 6c 24 04 01            	subl	$1, 4(%r12)
  401389: 48 83 c4 08                  	addq	$8, %rsp
  40138d: 4a 8d 04 2b                  	leaq	(%rbx,%r13), %rax
  401391: 5b                           	popq	%rbx
  401392: 41 5c                        	popq	%r12
  401394: 41 5d                        	popq	%r13
  401396: 5d                           	popq	%rbp
  401397: c3                           	retq
  401398: 0f 1f 84 00 00 00 00 00      	nopl	(%rax,%rax)

00000000004013a0 <_Z10calc6_termPcP5calc6>:
  4013a0: 55                           	pushq	%rbp
  4013a1: 48 89 e5                     	movq	%rsp, %rbp
  4013a4: 41 54                        	pushq	%r12
  4013a6: 53                           	pushq	%rbx
  4013a7: 48 89 f3                     	movq	%rsi, %rbx
  4013aa: e8 91 ff ff ff               	callq	0x401340 <_Z12calc6_factorPcP5calc6>
  4013af: 80 38 2a                     	cmpb	$42, (%rax)
  4013b2: 75 28                        	jne	0x4013dc <_Z10calc6_termPcP5calc6+0x3c>
  4013b4: 44 8b 23                     	movl	(%rbx), %r12d
  4013b7: 66 0f 1f 84 00 00 00 00 00   	nopw	(%rax,%rax)
  4013c0: 48 8d 78 01                  	leaq	1(%rax), %rdi
  4013c4: 48 89 de                     	movq	%rbx, %rsi
  4013c7: e8 74 ff ff ff               	callq	0x401340 <_Z12calc6_factorPcP5calc6>
  4013cc: 44 0f af 23                  	imull	(%rbx), %r12d
  4013d0: 83 43 04 01                  	addl	$1, 4(%rbx)
  4013d4: 44 89 23                     	movl	%r12d, (%rbx)
  4013d7: 80 38 2a                     	cmpb	$42, (%rax)
  4013da: 74 e4                        	je	0x4013c0 <_Z10calc6_termPcP5calc6+0x20>
  4013dc: 5b                           	popq	%rbx
  4013dd: 41 5c                        	popq	%r12
  4013df: 5d                           	popq	%rbp
  4013e0: c3                           	retq
  4013e1: 0f 1f 44 00 00               	nopl	(%rax,%rax)
  4013e6: 66 2e 0f 1f 84 00 00 00 00 00	nopw	%cs:(%rax,%rax)

00000000004013f0 <_Z10calc6_exprPcP5calc6>:
  4013f0: 55                           	pushq	%rbp
  4013f1: 48 89 e5                     	movq	%rsp, %rbp
  4013f4: 41 55                        	pushq	%r13
  4013f6: 41 54                        	pushq	%r12
  4013f8: 49 89 f4                     	movq	%rsi, %r12
  4013fb: 53                           	pushq	%rbx
  4013fc: 48 83 ec 08                  	subq	$8, %rsp
  401400: e8 3b ff ff ff               	callq	0x401340 <_Z12calc6_factorPcP5calc6>
  401405: 0f b6 10                     	movzbl	(%rax), %edx
  401408: 80 fa 2a                     	cmpb	$42, %dl
  40140b: 75 2e                        	jne	0x40143b <_Z10calc6_exprPcP5calc6+0x4b>
  40140d: 41 8b 1c 24                  	movl	(%r12), %ebx
  401411: 0f 1f 80 00 00 00 00         	nopl	(%rax)
  401418: 48 8d 78 01                  	leaq	1(%rax), %rdi
  40141c: 4c 89 e6                     	movq	%r12, %rsi
  40141f: e8 1c ff ff ff               	callq	0x401340 <_Z12calc6_factorPcP5calc6>
  401424: 41 0f af 1c 24               	imull	(%r12), %ebx
  401429: 41 83 44 24 04 01            	addl	$1, 4(%r12)
  40142f: 41 89 1c 24                  	movl	%ebx, (%r12)
  401433: 0f b6 10                     	movzbl	(%rax), %edx
  401436: 80 fa 2a                     	cmpb	$42, %dl
  401439: 74 dd                        	je	0x401418 <_Z10calc6_exprPcP5calc6+0x28>
  40143b: 80 fa 7c                     	cmpb	$124, %dl
  40143e: 75 5b                        	jne	0x40149b <_Z10calc6_exprPcP5calc6+0xab>
  401440: 41 8b 1c 24                  	movl	(%r12), %ebx
  401444: 0f 1f 40 00                  	nopl	(%rax)
  401448: 48 8d 78 01                  	leaq	1(%rax), %rdi
  40144c: 4c 89 e6                     	movq	%r12, %rsi
  40144f: e8 ec fe ff ff               	callq	0x401340 <_Z12calc6_factorPcP5calc6>
  401454: 45 8b 2c 24                  	movl	(%r12), %r13d
  401458: 80 38 2a                     	cmpb	$42, (%rax)
  40145b: 75 53                        	jne	0x4014b0 <_Z10calc6_exprPcP5calc6+0xc0>
  40145d: 0f 1f 00                     	nopl	(%rax)
  401460: 48 8d 78 01                  	leaq	1(%rax), %rdi
  401464: 4c 89 e6                     	movq	%r12, %rsi
  401467: e8 d4 fe ff ff               	callq	0x401340 <_Z12calc6_factorPcP5calc6>
  40146c: 45 0f af 2c 24               	imull	(%r12), %r13d
  401471: 41 8b 4c 24 04               	movl	4(%r12), %ecx
  401476: 8d 51 01                     	leal	1(%rcx), %edx
  401479: 45 89 2c 24                  	movl	%r13d, (%r12)
  40147d: 41 89 54 24 04               	movl	%edx, 4(%r12)
  401482: 80 38 2a                     	cmpb	$42, (%rax)
  401485: 74 d9                        	je	0x401460 <_Z10calc6_exprPcP5calc6+0x70>
  401487: 44 09 eb                     	orl	%r13d, %ebx
  40148a: 83 c2 01                     	addl	$1, %edx
  40148d: 41 89 1c 24                  	movl	%ebx, (%r12)
  401491: 41 89 54 24 04               	movl	%edx, 4(%r12)
  401496: 80 38 7c                     	cmpb	$124, (%rax)
  401499: 74 ad                        	je	0x401448 <_Z10calc6_exprPcP5calc6+0x58>
  40149b: 48 83 c4 08                  	addq	$8, %rsp
  40149f: 5b                           	popq	%rbx
  4014a0: 41 5c                        	popq	%r12
  4014a2: 41 5d                        	popq	%r13
  4014a4: 5d                           	popq	%rbp
  4014a5: c3                           	retq
  4014a6: 66 2e 0f 1f 84 00 00 00 00 00	nopw	%cs:(%rax,%rax)
  4014b0: 41 8b 54 24 04               	movl	4(%r12), %edx
  4014b5: eb d0                        	jmp	0x401487 <_Z10calc6_exprPcP5calc6+0x97>
  4014b7: 66 0f 1f 84 00 00 00 00 00   	nopw	(%rax,%rax)

00000000004014c0 <_Z6phase6Pc>:
  4014c0: 55                           	pushq	%rbp
  4014c1: 48 89 e5                     	movq	%rsp, %rbp
  4014c4: 48 83 ec 10                  	subq	$16, %rsp                           *subtract 16 from stack ptr
  4014c8: 48 8d 75 f4                  	leaq	-12(%rbp), %rsi
  4014cc: 48 c7 45 f4 00 00 00 00      	movq	$0, -12(%rbp)
  4014d4: c6 45 fc 00                  	movb	$0, -4(%rbp)
  4014d8: e8 13 ff ff ff               	callq	0x4013f0 <_Z10calc6_exprPcP5calc6>  *call helper
  4014dd: 80 7d fc 00                  	cmpb	$0, -4(%rbp)
  4014e1: 75 1d                        	jne	0x401500 <_Z6phase6Pc+0x40>
  4014e3: 8b 75 f4                     	movl	-12(%rbp), %esi
  4014e6: 81 fe d1 b3 2c c3            	cmpl	$3274486737, %esi
  4014ec: 75 17                        	jne	0x401505 <_Z6phase6Pc+0x45>
  4014ee: 83 7d f8 03                  	cmpl	$3, -8(%rbp)
  4014f2: 7e 2c                        	jle	0x401520 <_Z6phase6Pc+0x60>
  4014f4: c9                           	leave
  4014f5: c3                           	retq
  4014f6: 66 2e 0f 1f 84 00 00 00 00 00	nopw	%cs:(%rax,%rax)
  401500: be ff ff ff ff               	movl	$4294967295, %esi
  401505: bf 99 24 40 00               	movl	$4203673, %edi
  40150a: 31 c0                        	xorl	%eax, %eax
  40150c: e8 df f6 ff ff               	callq	0x400bf0 <printf@plt>
  401511: e8 ba 05 00 00               	callq	0x401ad0 <_Z12explode_bombv>
  401516: 66 2e 0f 1f 84 00 00 00 00 00	nopw	%cs:(%rax,%rax)
  401520: bf b4 24 40 00               	movl	$4203700, %edi
  401525: e8 46 f8 ff ff               	callq	0x400d70 <puts@plt>
  40152a: e8 a1 05 00 00               	callq	0x401ad0 <_Z12explode_bombv>
  40152f: 90                           	nop

0000000000401530 <_Z6phase7Pc>:
  401530: 55                           	pushq	%rbp
  401531: 48 89 e5                     	movq	%rsp, %rbp
  401534: 48 83 ec 50                  	subq	$80, %rsp
  401538: 48 8d 75 b0                  	leaq	-80(%rbp), %rsi
  40153c: e8 cf 05 00 00               	callq	0x401b10 <_Z16read_six_numbersPKcPi>
  401541: b9 01 00 00 00               	movl	$1, %ecx
  401546: 66 2e 0f 1f 84 00 00 00 00 00	nopw	%cs:(%rax,%rax)
  401550: 8b 54 8d ac                  	movl	-84(%rbp,%rcx,4), %edx
  401554: 8d 42 ff                     	leal	-1(%rdx), %eax
  401557: 83 f8 05                     	cmpl	$5, %eax
  40155a: 0f 87 b0 00 00 00            	ja	0x401610 <_Z6phase7Pc+0xe0>
  401560: 48 83 f9 06                  	cmpq	$6, %rcx
  401564: 74 23                        	je	0x401589 <_Z6phase7Pc+0x59>
  401566: 48 89 c8                     	movq	%rcx, %rax
  401569: 0f 1f 80 00 00 00 00         	nopl	(%rax)
  401570: 3b 54 85 b0                  	cmpl	-80(%rbp,%rax,4), %edx
  401574: 0f 84 96 00 00 00            	je	0x401610 <_Z6phase7Pc+0xe0>
  40157a: 48 83 c0 01                  	addq	$1, %rax
  40157e: 83 f8 06                     	cmpl	$6, %eax
  401581: 75 ed                        	jne	0x401570 <_Z6phase7Pc+0x40>
  401583: 48 83 c1 01                  	addq	$1, %rcx
  401587: eb c7                        	jmp	0x401550 <_Z6phase7Pc+0x20>
  401589: 31 f6                        	xorl	%esi, %esi
  40158b: 0f 1f 44 00 00               	nopl	(%rax,%rax)
  401590: 8b 4c b5 b0                  	movl	-80(%rbp,%rsi,4), %ecx
  401594: b8 01 00 00 00               	movl	$1, %eax
  401599: ba 10 43 60 00               	movl	$6308624, %edx
  40159e: 83 f9 01                     	cmpl	$1, %ecx
  4015a1: 7e 10                        	jle	0x4015b3 <_Z6phase7Pc+0x83>
  4015a3: 0f 1f 44 00 00               	nopl	(%rax,%rax)
  4015a8: 83 c0 01                     	addl	$1, %eax
  4015ab: 48 8b 52 08                  	movq	8(%rdx), %rdx
  4015af: 39 c1                        	cmpl	%eax, %ecx
  4015b1: 75 f5                        	jne	0x4015a8 <_Z6phase7Pc+0x78>
  4015b3: 48 89 54 f5 d0               	movq	%rdx, -48(%rbp,%rsi,8)
  4015b8: 48 83 c6 01                  	addq	$1, %rsi
  4015bc: 48 83 fe 06                  	cmpq	$6, %rsi
  4015c0: 75 ce                        	jne	0x401590 <_Z6phase7Pc+0x60>
  4015c2: 48 8b 55 d8                  	movq	-40(%rbp), %rdx
  4015c6: 48 8b 4d e0                  	movq	-32(%rbp), %rcx
  4015ca: 48 8b 45 d0                  	movq	-48(%rbp), %rax
  4015ce: 48 89 50 08                  	movq	%rdx, 8(%rax)
  4015d2: 48 89 4a 08                  	movq	%rcx, 8(%rdx)
  4015d6: 48 8b 55 e8                  	movq	-24(%rbp), %rdx
  4015da: 48 89 51 08                  	movq	%rdx, 8(%rcx)
  4015de: 48 8b 4d f0                  	movq	-16(%rbp), %rcx
  4015e2: 48 89 4a 08                  	movq	%rcx, 8(%rdx)
  4015e6: 48 8b 55 f8                  	movq	-8(%rbp), %rdx
  4015ea: 48 89 51 08                  	movq	%rdx, 8(%rcx)
  4015ee: 8b 08                        	movl	(%rax), %ecx
  4015f0: 48 c7 42 08 00 00 00 00      	movq	$0, 8(%rdx)
  4015f8: ba 05 00 00 00               	movl	$5, %edx
  4015fd: 48 8b 40 08                  	movq	8(%rax), %rax
  401601: 89 ce                        	movl	%ecx, %esi
  401603: 8b 08                        	movl	(%rax), %ecx
  401605: 39 f1                        	cmpl	%esi, %ecx
  401607: 7f 07                        	jg	0x401610 <_Z6phase7Pc+0xe0>
  401609: 83 ea 01                     	subl	$1, %edx
  40160c: 75 ef                        	jne	0x4015fd <_Z6phase7Pc+0xcd>
  40160e: c9                           	leave
  40160f: c3                           	retq
  401610: e8 bb 04 00 00               	callq	0x401ad0 <_Z12explode_bombv>
  401615: 90                           	nop
  401616: 66 2e 0f 1f 84 00 00 00 00 00	nopw	%cs:(%rax,%rax)

0000000000401620 <_Z2f8P14treeNodeStructi>:
  401620: 48 85 ff                     	testq	%rdi, %rdi
  401623: 74 30                        	je	0x401655 <_Z2f8P14treeNodeStructi+0x35>
  401625: 55                           	pushq	%rbp
  401626: 48 89 e5                     	movq	%rsp, %rbp
  401629: 39 37                        	cmpl	%esi, (%rdi)
  40162b: 7f 1b                        	jg	0x401648 <_Z2f8P14treeNodeStructi+0x28>
  40162d: b8 00 00 00 00               	movl	$0, %eax
  401632: 74 0d                        	je	0x401641 <_Z2f8P14treeNodeStructi+0x21>
  401634: 48 8b 7f 10                  	movq	16(%rdi), %rdi
  401638: e8 e3 ff ff ff               	callq	0x401620 <_Z2f8P14treeNodeStructi>
  40163d: 8d 44 00 01                  	leal	1(%rax,%rax), %eax
  401641: 5d                           	popq	%rbp
  401642: c3                           	retq
  401643: 0f 1f 44 00 00               	nopl	(%rax,%rax)
  401648: 48 8b 7f 08                  	movq	8(%rdi), %rdi
  40164c: e8 cf ff ff ff               	callq	0x401620 <_Z2f8P14treeNodeStructi>
  401651: 5d                           	popq	%rbp
  401652: 01 c0                        	addl	%eax, %eax
  401654: c3                           	retq
  401655: b8 ff ff ff ff               	movl	$4294967295, %eax
  40165a: c3                           	retq
  40165b: 0f 1f 44 00 00               	nopl	(%rax,%rax)

0000000000401660 <_Z12secret_phasev>:
  401660: 55                           	pushq	%rbp
  401661: 48 89 e5                     	movq	%rsp, %rbp
  401664: e8 77 02 00 00               	callq	0x4018e0 <_Z9read_linev>
  401669: 31 d2                        	xorl	%edx, %edx
  40166b: 31 f6                        	xorl	%esi, %esi
  40166d: 48 89 c7                     	movq	%rax, %rdi
  401670: e8 cb f6 ff ff               	callq	0x400d40 <strtol@plt>
  401675: 48 8d 50 ff                  	leaq	-1(%rax), %rdx
  401679: 48 81 fa e8 03 00 00         	cmpq	$1000, %rdx
  401680: 77 46                        	ja	0x4016c8 <_Z12secret_phasev+0x68>
  401682: 3b 05 a8 2a 20 00            	cmpl	2108072(%rip), %eax  # 604130 <n1>
  401688: 89 c6                        	movl	%eax, %esi
  40168a: 7c 2c                        	jl	0x4016b8 <_Z12secret_phasev+0x58>
  40168c: 74 3a                        	je	0x4016c8 <_Z12secret_phasev+0x68>
  40168e: 48 8b 3d ab 2a 20 00         	movq	2108075(%rip), %rdi  # 604140 <n1+0x10>
  401695: e8 86 ff ff ff               	callq	0x401620 <_Z2f8P14treeNodeStructi>
  40169a: 8d 44 00 01                  	leal	1(%rax,%rax), %eax
  40169e: 83 f8 02                     	cmpl	$2, %eax
  4016a1: 75 25                        	jne	0x4016c8 <_Z12secret_phasev+0x68>
  4016a3: bf 60 25 40 00               	movl	$4203872, %edi
  4016a8: e8 c3 f6 ff ff               	callq	0x400d70 <puts@plt>
  4016ad: 5d                           	popq	%rbp
  4016ae: e9 9d 04 00 00               	jmp	0x401b50 <_Z13phase_defusedv>
  4016b3: 0f 1f 44 00 00               	nopl	(%rax,%rax)
  4016b8: 48 8b 3d 79 2a 20 00         	movq	2108025(%rip), %rdi  # 604138 <n1+0x8>
  4016bf: e8 5c ff ff ff               	callq	0x401620 <_Z2f8P14treeNodeStructi>
  4016c4: 01 c0                        	addl	%eax, %eax
  4016c6: eb d6                        	jmp	0x40169e <_Z12secret_phasev+0x3e>
  4016c8: e8 03 04 00 00               	callq	0x401ad0 <_Z12explode_bombv>
  4016cd: 0f 1f 00                     	nopl	(%rax)

00000000004016d0 <_ZL11sig_handleri>:
  4016d0: 55                           	pushq	%rbp
  4016d1: ba 39 00 00 00               	movl	$57, %edx
  4016d6: be 08 26 40 00               	movl	$4204040, %esi
  4016db: bf 01 00 00 00               	movl	$1, %edi
  4016e0: 48 89 e5                     	movq	%rsp, %rbp
  4016e3: e8 58 f5 ff ff               	callq	0x400c40 <write@plt>
  4016e8: bf 03 00 00 00               	movl	$3, %edi
  4016ed: e8 9e f5 ff ff               	callq	0x400c90 <sleep@plt>
  4016f2: ba 07 00 00 00               	movl	$7, %edx
  4016f7: be 8b 27 40 00               	movl	$4204427, %esi
  4016fc: bf 01 00 00 00               	movl	$1, %edi
  401701: e8 3a f5 ff ff               	callq	0x400c40 <write@plt>
  401706: bf 01 00 00 00               	movl	$1, %edi
  40170b: e8 80 f5 ff ff               	callq	0x400c90 <sleep@plt>
  401710: bf 01 00 00 00               	movl	$1, %edi
  401715: ba 08 00 00 00               	movl	$8, %edx
  40171a: be 93 27 40 00               	movl	$4204435, %esi
  40171f: e8 1c f5 ff ff               	callq	0x400c40 <write@plt>
  401724: bf 10 00 00 00               	movl	$16, %edi
  401729: e8 72 f6 ff ff               	callq	0x400da0 <_exit@plt>
  40172e: 66 90                        	nop

0000000000401730 <_Z1ev.part.0>:
  401730: 55                           	pushq	%rbp
  401731: 31 c0                        	xorl	%eax, %eax
  401733: be 9c 27 40 00               	movl	$4204444, %esi
  401738: bf 40 45 60 00               	movl	$6309184, %edi
  40173d: 48 89 e5                     	movq	%rsp, %rbp
  401740: 48 81 ec 40 01 00 00         	subq	$320, %rsp
  401747: 4c 8d 85 c0 fe ff ff         	leaq	-320(%rbp), %r8
  40174e: 4c 8d 8d 60 ff ff ff         	leaq	-160(%rbp), %r9
  401755: 4c 89 c1                     	movq	%r8, %rcx
  401758: 4c 89 c2                     	movq	%r8, %rdx
  40175b: e8 20 f5 ff ff               	callq	0x400c80 <sscanf@plt>
  401760: 83 f8 04                     	cmpl	$4, %eax
  401763: 74 1b                        	je	0x401780 <_Z1ev.part.0+0x50>
  401765: bf a8 26 40 00               	movl	$4204200, %edi
  40176a: e8 01 f6 ff ff               	callq	0x400d70 <puts@plt>
  40176f: bf d0 26 40 00               	movl	$4204240, %edi
  401774: e8 f7 f5 ff ff               	callq	0x400d70 <puts@plt>
  401779: c9                           	leave
  40177a: c3                           	retq
  40177b: 0f 1f 44 00 00               	nopl	(%rax,%rax)
  401780: be a8 27 40 00               	movl	$4204456, %esi
  401785: 48 8d bd 60 ff ff ff         	leaq	-160(%rbp), %rdi
  40178c: e8 9f f5 ff ff               	callq	0x400d30 <strcmp@plt>
  401791: 85 c0                        	testl	%eax, %eax
  401793: 75 d0                        	jne	0x401765 <_Z1ev.part.0+0x35>
  401795: bf 48 26 40 00               	movl	$4204104, %edi
  40179a: e8 d1 f5 ff ff               	callq	0x400d70 <puts@plt>
  40179f: bf 70 26 40 00               	movl	$4204144, %edi
  4017a4: e8 c7 f5 ff ff               	callq	0x400d70 <puts@plt>
  4017a9: e8 b2 fe ff ff               	callq	0x401660 <_Z12secret_phasev>
  4017ae: eb b5                        	jmp	0x401765 <_Z1ev.part.0+0x35>

00000000004017b0 <_Z1ev>:
  4017b0: 83 3d 29 2c 20 00 07         	cmpl	$7, 2108457(%rip)  # 6043e0 <ndefused>
  4017b7: 74 07                        	je	0x4017c0 <_Z1ev+0x10>
  4017b9: c3                           	retq
  4017ba: 66 0f 1f 44 00 00            	nopw	(%rax,%rax)
  4017c0: e9 6b ff ff ff               	jmp	0x401730 <_Z1ev.part.0>
  4017c5: 90                           	nop
  4017c6: 66 2e 0f 1f 84 00 00 00 00 00	nopw	%cs:(%rax,%rax)

00000000004017d0 <_Z13invalid_phasePc>:
  4017d0: 55                           	pushq	%rbp
  4017d1: 48 89 fe                     	movq	%rdi, %rsi
  4017d4: 31 c0                        	xorl	%eax, %eax
  4017d6: bf b4 27 40 00               	movl	$4204468, %edi
  4017db: 48 89 e5                     	movq	%rsp, %rbp
  4017de: e8 0d f4 ff ff               	callq	0x400bf0 <printf@plt>
  4017e3: bf 08 00 00 00               	movl	$8, %edi
  4017e8: e8 13 f5 ff ff               	callq	0x400d00 <exit@plt>
  4017ed: 0f 1f 00                     	nopl	(%rax)

00000000004017f0 <_Z15initialize_bombv>:
  4017f0: 55                           	pushq	%rbp
  4017f1: 48 89 e5                     	movq	%rsp, %rbp
  4017f4: 48 81 ec a0 20 00 00         	subq	$8352, %rsp
  4017fb: 48 8d bd 68 df ff ff         	leaq	-8344(%rbp), %rdi
  401802: 48 c7 85 60 df ff ff d0 16 40 00     	movq	$4200144, -8352(%rbp)
  40180d: e8 fe f4 ff ff               	callq	0x400d10 <sigemptyset@plt>
  401812: 31 d2                        	xorl	%edx, %edx
  401814: bf 02 00 00 00               	movl	$2, %edi
  401819: 48 8d b5 60 df ff ff         	leaq	-8352(%rbp), %rsi
  401820: c7 85 e8 df ff ff 00 00 00 00	movl	$0, -8216(%rbp)
  40182a: e8 f1 f4 ff ff               	callq	0x400d20 <sigaction@plt>
  40182f: 48 8b 3d 6a 2b 20 00         	movq	2108266(%rip), %rdi  # 6043a0 <stdout@@GLIBC_2.2.5>
  401836: 31 c9                        	xorl	%ecx, %ecx
  401838: 31 f6                        	xorl	%esi, %esi
  40183a: ba 02 00 00 00               	movl	$2, %edx
  40183f: e8 8c f3 ff ff               	callq	0x400bd0 <setvbuf@plt>
  401844: 48 8b 3d 75 2b 20 00         	movq	2108277(%rip), %rdi  # 6043c0 <stderr@@GLIBC_2.2.5>
  40184b: 31 c9                        	xorl	%ecx, %ecx
  40184d: 31 f6                        	xorl	%esi, %esi
  40184f: ba 02 00 00 00               	movl	$2, %edx
  401854: e8 77 f3 ff ff               	callq	0x400bd0 <setvbuf@plt>
  401859: 48 8d bd 00 e0 ff ff         	leaq	-8192(%rbp), %rdi
  401860: e8 db 08 00 00               	callq	0x402140 <_Z11init_driverPc>
  401865: 85 c0                        	testl	%eax, %eax
  401867: 78 0c                        	js	0x401875 <_Z15initialize_bombv+0x85>
  401869: bf b0 17 40 00               	movl	$4200368, %edi
  40186e: e8 1d 0b 00 00               	callq	0x402390 <atexit>
  401873: c9                           	leave
  401874: c3                           	retq
  401875: bf c5 27 40 00               	movl	$4204485, %edi
  40187a: 48 8d b5 00 e0 ff ff         	leaq	-8192(%rbp), %rsi
  401881: 31 c0                        	xorl	%eax, %eax
  401883: e8 68 f3 ff ff               	callq	0x400bf0 <printf@plt>
  401888: bf 08 00 00 00               	movl	$8, %edi
  40188d: e8 6e f4 ff ff               	callq	0x400d00 <exit@plt>
  401892: 0f 1f 40 00                  	nopl	(%rax)
  401896: 66 2e 0f 1f 84 00 00 00 00 00	nopw	%cs:(%rax,%rax)

00000000004018a0 <_Z21initialize_bomb_solvev>:
  4018a0: c3                           	retq
  4018a1: 0f 1f 44 00 00               	nopl	(%rax,%rax)
  4018a6: 66 2e 0f 1f 84 00 00 00 00 00	nopw	%cs:(%rax,%rax)

00000000004018b0 <_Z10blank_linePc>:
  4018b0: 55                           	pushq	%rbp
  4018b1: 48 89 e5                     	movq	%rsp, %rbp
  4018b4: 53                           	pushq	%rbx
  4018b5: 48 89 fb                     	movq	%rdi, %rbx
  4018b8: 48 83 ec 08                  	subq	$8, %rsp
  4018bc: eb 0f                        	jmp	0x4018cd <_Z10blank_linePc+0x1d>
  4018be: 66 90                        	nop
  4018c0: 48 83 c3 01                  	addq	$1, %rbx
  4018c4: e8 37 f3 ff ff               	callq	0x400c00 <isspace@plt>
  4018c9: 85 c0                        	testl	%eax, %eax
  4018cb: 74 0d                        	je	0x4018da <_Z10blank_linePc+0x2a>
  4018cd: 0f be 3b                     	movsbl	(%rbx), %edi
  4018d0: 40 84 ff                     	testb	%dil, %dil
  4018d3: 75 eb                        	jne	0x4018c0 <_Z10blank_linePc+0x10>
  4018d5: b8 01 00 00 00               	movl	$1, %eax
  4018da: 48 8b 5d f8                  	movq	-8(%rbp), %rbx
  4018de: c9                           	leave
  4018df: c3                           	retq

00000000004018e0 <_Z9read_linev>:
  4018e0: 55                           	pushq	%rbp
  4018e1: 48 63 05 f8 2a 20 00         	movslq	2108152(%rip), %rax  # 6043e0 <ndefused>
  4018e8: 48 89 e5                     	movq	%rsp, %rbp
  4018eb: 41 54                        	pushq	%r12
  4018ed: 53                           	pushq	%rbx
  4018ee: 83 f8 13                     	cmpl	$19, %eax
  4018f1: 0f 87 e5 00 00 00            	ja	0x4019dc <_Z9read_linev+0xfc>
  4018f7: 4c 8d 24 80                  	leaq	(%rax,%rax,4), %r12
  4018fb: 49 c1 e4 05                  	shlq	$5, %r12
  4018ff: 49 81 c4 00 44 60 00         	addq	$6308864, %r12
  401906: 66 2e 0f 1f 84 00 00 00 00 00	nopw	%cs:(%rax,%rax)
  401910: 48 8b 15 b9 2a 20 00         	movq	2108089(%rip), %rdx  # 6043d0 <infile>
  401917: be a0 00 00 00               	movl	$160, %esi
  40191c: 4c 89 e7                     	movq	%r12, %rdi
  40191f: 4c 89 e3                     	movq	%r12, %rbx
  401922: e8 59 f4 ff ff               	callq	0x400d80 <fgets@plt>
  401927: 48 85 c0                     	testq	%rax, %rax
  40192a: 0f 84 90 00 00 00            	je	0x4019c0 <_Z9read_linev+0xe0>
  401930: 0f be 3b                     	movsbl	(%rbx), %edi
  401933: 40 84 ff                     	testb	%dil, %dil
  401936: 74 d8                        	je	0x401910 <_Z9read_linev+0x30>
  401938: 48 83 c3 01                  	addq	$1, %rbx
  40193c: e8 bf f2 ff ff               	callq	0x400c00 <isspace@plt>
  401941: 85 c0                        	testl	%eax, %eax
  401943: 75 eb                        	jne	0x401930 <_Z9read_linev+0x50>
  401945: 4c 89 e7                     	movq	%r12, %rdi
  401948: e8 13 f3 ff ff               	callq	0x400c60 <strlen@plt>
  40194d: 48 3d 9e 00 00 00            	cmpq	$158, %rax
  401953: 76 4b                        	jbe	0x4019a0 <_Z9read_linev+0xc0>
  401955: 41 80 bc 24 9f 00 00 00 0a   	cmpb	$10, 159(%r12)
  40195e: 74 28                        	je	0x401988 <_Z9read_linev+0xa8>
  401960: bf 11 28 40 00               	movl	$4204561, %edi
  401965: e8 06 f4 ff ff               	callq	0x400d70 <puts@plt>
  40196a: 4c 89 e7                     	movq	%r12, %rdi
  40196d: be 2c 28 40 00               	movl	$4204588, %esi
  401972: e8 49 f3 ff ff               	callq	0x400cc0 <strcpy@plt>
  401977: 4c 89 e7                     	movq	%r12, %rdi
  40197a: e8 e1 f2 ff ff               	callq	0x400c60 <strlen@plt>
  40197f: 48 85 c0                     	testq	%rax, %rax
  401982: 74 21                        	je	0x4019a5 <_Z9read_linev+0xc5>
  401984: 0f 1f 40 00                  	nopl	(%rax)
  401988: 48 83 e8 01                  	subq	$1, %rax
  40198c: 41 0f b6 14 04               	movzbl	(%r12,%rax), %edx
  401991: 80 fa 0d                     	cmpb	$13, %dl
  401994: 74 05                        	je	0x40199b <_Z9read_linev+0xbb>
  401996: 80 fa 0a                     	cmpb	$10, %dl
  401999: 75 0a                        	jne	0x4019a5 <_Z9read_linev+0xc5>
  40199b: 41 c6 04 04 00               	movb	$0, (%r12,%rax)
  4019a0: 48 85 c0                     	testq	%rax, %rax
  4019a3: 75 e3                        	jne	0x401988 <_Z9read_linev+0xa8>
  4019a5: 4c 89 e6                     	movq	%r12, %rsi
  4019a8: bf a0 50 60 00               	movl	$6312096, %edi
  4019ad: e8 0e f3 ff ff               	callq	0x400cc0 <strcpy@plt>
  4019b2: 4c 89 e0                     	movq	%r12, %rax
  4019b5: 5b                           	popq	%rbx
  4019b6: 41 5c                        	popq	%r12
  4019b8: 5d                           	popq	%rbp
  4019b9: c3                           	retq
  4019ba: 66 0f 1f 44 00 00            	nopw	(%rax,%rax)
  4019c0: 48 8b 05 e9 29 20 00         	movq	2107881(%rip), %rax  # 6043b0 <stdin@@GLIBC_2.2.5>
  4019c7: 48 39 05 02 2a 20 00         	cmpq	%rax, 2107906(%rip)  # 6043d0 <infile>
  4019ce: 74 25                        	je	0x4019f5 <_Z9read_linev+0x115>
  4019d0: 48 89 05 f9 29 20 00         	movq	%rax, 2107897(%rip)  # 6043d0 <infile>
  4019d7: e9 34 ff ff ff               	jmp	0x401910 <_Z9read_linev+0x30>
  4019dc: b9 df 27 40 00               	movl	$4204511, %ecx
  4019e1: ba c4 00 00 00               	movl	$196, %edx
  4019e6: be f1 27 40 00               	movl	$4204529, %esi
  4019eb: bf 18 27 40 00               	movl	$4204312, %edi
  4019f0: e8 7b f2 ff ff               	callq	0x400c70 <__assert_fail@plt>
  4019f5: bf fc 27 40 00               	movl	$4204540, %edi
  4019fa: e8 71 f3 ff ff               	callq	0x400d70 <puts@plt>
  4019ff: bf 08 00 00 00               	movl	$8, %edi
  401a04: e8 97 f3 ff ff               	callq	0x400da0 <_exit@plt>
  401a09: 0f 1f 80 00 00 00 00         	nopl	(%rax)

0000000000401a10 <_Z8send_msgi>:
  401a10: 55                           	pushq	%rbp
  401a11: 48 89 e5                     	movq	%rsp, %rbp
  401a14: 53                           	pushq	%rbx
  401a15: 89 fb                        	movl	%edi, %ebx
  401a17: bf a0 50 60 00               	movl	$6312096, %edi
  401a1c: 48 81 ec 08 40 00 00         	subq	$16392, %rsp
  401a23: e8 38 f2 ff ff               	callq	0x400c60 <strlen@plt>
  401a28: 48 83 c0 64                  	addq	$100, %rax
  401a2c: 48 3d 00 20 00 00            	cmpq	$8192, %rax
  401a32: 77 7f                        	ja	0x401ab3 <_Z8send_msgi+0xa3>
  401a34: 85 db                        	testl	%ebx, %ebx
  401a36: b8 49 28 40 00               	movl	$4204617, %eax
  401a3b: b9 41 28 40 00               	movl	$4204609, %ecx
  401a40: 8b 15 4e 29 20 00            	movl	2107726(%rip), %edx  # 604394 <bomb_id>
  401a46: 48 0f 44 c8                  	cmoveq	%rax, %rcx
  401a4a: 8b 05 90 29 20 00            	movl	2107792(%rip), %eax  # 6043e0 <ndefused>
  401a50: be 52 28 40 00               	movl	$4204626, %esi
  401a55: 48 8d bd f0 bf ff ff         	leaq	-16400(%rbp), %rdi
  401a5c: 41 b9 a0 50 60 00            	movl	$6312096, %r9d
  401a62: 44 8d 40 01                  	leal	1(%rax), %r8d
  401a66: 31 c0                        	xorl	%eax, %eax
  401a68: e8 a3 f1 ff ff               	callq	0x400c10 <sprintf@plt>
  401a6d: 31 c9                        	xorl	%ecx, %ecx
  401a6f: be 70 43 60 00               	movl	$6308720, %esi
  401a74: 4c 8d 85 f0 df ff ff         	leaq	-8208(%rbp), %r8
  401a7b: 48 8d 95 f0 bf ff ff         	leaq	-16400(%rbp), %rdx
  401a82: bf 88 43 60 00               	movl	$6308744, %edi
  401a87: e8 d4 07 00 00               	callq	0x402260 <_Z11driver_postPcS_S_iS_>
  401a8c: 85 c0                        	testl	%eax, %eax
  401a8e: 78 10                        	js	0x401aa0 <_Z8send_msgi+0x90>
  401a90: 48 8b 5d f8                  	movq	-8(%rbp), %rbx
  401a94: c9                           	leave
  401a95: c3                           	retq
  401a96: 66 2e 0f 1f 84 00 00 00 00 00	nopw	%cs:(%rax,%rax)
  401aa0: 48 8d bd f0 df ff ff         	leaq	-8208(%rbp), %rdi
  401aa7: e8 c4 f2 ff ff               	callq	0x400d70 <puts@plt>
  401aac: 31 ff                        	xorl	%edi, %edi
  401aae: e8 ed f2 ff ff               	callq	0x400da0 <_exit@plt>
  401ab3: bf 40 27 40 00               	movl	$4204352, %edi
  401ab8: e8 b3 f2 ff ff               	callq	0x400d70 <puts@plt>
  401abd: bf 08 00 00 00               	movl	$8, %edi
  401ac2: e8 d9 f2 ff ff               	callq	0x400da0 <_exit@plt>
  401ac7: 66 0f 1f 84 00 00 00 00 00   	nopw	(%rax,%rax)

0000000000401ad0 <_Z12explode_bombv>:
  401ad0: 55                           	pushq	%rbp
  401ad1: bf 5e 28 40 00               	movl	$4204638, %edi
  401ad6: 48 89 e5                     	movq	%rsp, %rbp
  401ad9: e8 92 f2 ff ff               	callq	0x400d70 <puts@plt>
  401ade: bf 67 28 40 00               	movl	$4204647, %edi
  401ae3: e8 88 f2 ff ff               	callq	0x400d70 <puts@plt>
  401ae8: 31 ff                        	xorl	%edi, %edi
  401aea: e8 21 ff ff ff               	callq	0x401a10 <_Z8send_msgi>
  401aef: bf 68 27 40 00               	movl	$4204392, %edi
  401af4: e8 77 f2 ff ff               	callq	0x400d70 <puts@plt>
  401af9: bf 08 00 00 00               	movl	$8, %edi
  401afe: e8 9d f2 ff ff               	callq	0x400da0 <_exit@plt>
  401b03: 0f 1f 00                     	nopl	(%rax)
  401b06: 66 2e 0f 1f 84 00 00 00 00 00	nopw	%cs:(%rax,%rax)

0000000000401b10 <_Z16read_six_numbersPKcPi>:
  401b10: 55                           	pushq	%rbp
  401b11: 48 8d 46 14                  	leaq	20(%rsi), %rax
  401b15: 48 89 f2                     	movq	%rsi, %rdx
  401b18: 48 8d 4e 04                  	leaq	4(%rsi), %rcx
  401b1c: 4c 8d 4e 0c                  	leaq	12(%rsi), %r9
  401b20: 4c 8d 46 08                  	leaq	8(%rsi), %r8
  401b24: 48 89 e5                     	movq	%rsp, %rbp
  401b27: 50                           	pushq	%rax
  401b28: 48 8d 46 10                  	leaq	16(%rsi), %rax
  401b2c: be 7e 28 40 00               	movl	$4204670, %esi
  401b31: 50                           	pushq	%rax
  401b32: 31 c0                        	xorl	%eax, %eax
  401b34: e8 47 f1 ff ff               	callq	0x400c80 <sscanf@plt>
  401b39: 5a                           	popq	%rdx
  401b3a: 59                           	popq	%rcx
  401b3b: 83 f8 05                     	cmpl	$5, %eax
  401b3e: 7e 02                        	jle	0x401b42 <_Z16read_six_numbersPKcPi+0x32>
  401b40: c9                           	leave
  401b41: c3                           	retq
  401b42: e8 89 ff ff ff               	callq	0x401ad0 <_Z12explode_bombv>
  401b47: 66 0f 1f 84 00 00 00 00 00   	nopw	(%rax,%rax)

0000000000401b50 <_Z13phase_defusedv>:
  401b50: 55                           	pushq	%rbp
  401b51: bf 01 00 00 00               	movl	$1, %edi
  401b56: 48 89 e5                     	movq	%rsp, %rbp
  401b59: e8 b2 fe ff ff               	callq	0x401a10 <_Z8send_msgi>
  401b5e: 83 05 7b 28 20 00 01         	addl	$1, 2107515(%rip)  # 6043e0 <ndefused>
  401b65: 5d                           	popq	%rbp
  401b66: c3                           	retq
  401b67: 66 0f 1f 84 00 00 00 00 00   	nopw	(%rax,%rax)

0000000000401b70 <_Z15sigalrm_handleri>:
  401b70: 55                           	pushq	%rbp
  401b71: 48 8b 3d 48 28 20 00         	movq	2107464(%rip), %rdi  # 6043c0 <stderr@@GLIBC_2.2.5>
  401b78: 31 d2                        	xorl	%edx, %edx
  401b7a: be 90 28 40 00               	movl	$4204688, %esi
  401b7f: 31 c0                        	xorl	%eax, %eax
  401b81: 48 89 e5                     	movq	%rsp, %rbp
  401b84: e8 c7 f1 ff ff               	callq	0x400d50 <fprintf@plt>
  401b89: bf 01 00 00 00               	movl	$1, %edi
  401b8e: e8 0d f2 ff ff               	callq	0x400da0 <_exit@plt>
  401b93: 0f 1f 00                     	nopl	(%rax)
  401b96: 66 2e 0f 1f 84 00 00 00 00 00	nopw	%cs:(%rax,%rax)

0000000000401ba0 <_ZL13rio_readlinebP5rio_tPvm.constprop.0>:
  401ba0: 55                           	pushq	%rbp
  401ba1: 48 89 e5                     	movq	%rsp, %rbp
  401ba4: 41 57                        	pushq	%r15
  401ba6: 41 bf 01 00 00 00            	movl	$1, %r15d
  401bac: 41 56                        	pushq	%r14
  401bae: 49 89 f6                     	movq	%rsi, %r14
  401bb1: 41 55                        	pushq	%r13
  401bb3: 41 54                        	pushq	%r12
  401bb5: 4c 8d 67 10                  	leaq	16(%rdi), %r12
  401bb9: 53                           	pushq	%rbx
  401bba: 48 89 fb                     	movq	%rdi, %rbx
  401bbd: 48 83 ec 08                  	subq	$8, %rsp
  401bc1: eb 3d                        	jmp	0x401c00 <_ZL13rio_readlinebP5rio_tPvm.constprop.0+0x60>
  401bc3: 0f 1f 44 00 00               	nopl	(%rax,%rax)
  401bc8: 85 c0                        	testl	%eax, %eax
  401bca: 0f 84 80 00 00 00            	je	0x401c50 <_ZL13rio_readlinebP5rio_tPvm.constprop.0+0xb0>
  401bd0: 4c 89 63 08                  	movq	%r12, 8(%rbx)
  401bd4: 41 0f b6 45 00               	movzbl	(%r13), %eax
  401bd9: 83 ea 01                     	subl	$1, %edx
  401bdc: 49 83 c5 01                  	addq	$1, %r13
  401be0: 49 83 c6 01                  	addq	$1, %r14
  401be4: 4c 89 6b 08                  	movq	%r13, 8(%rbx)
  401be8: 89 53 04                     	movl	%edx, 4(%rbx)
  401beb: 41 88 46 ff                  	movb	%al, -1(%r14)
  401bef: 3c 0a                        	cmpb	$10, %al
  401bf1: 74 65                        	je	0x401c58 <_ZL13rio_readlinebP5rio_tPvm.constprop.0+0xb8>
  401bf3: 49 83 c7 01                  	addq	$1, %r15
  401bf7: 49 81 ff 00 20 00 00         	cmpq	$8192, %r15
  401bfe: 74 6e                        	je	0x401c6e <_ZL13rio_readlinebP5rio_tPvm.constprop.0+0xce>
  401c00: 8b 53 04                     	movl	4(%rbx), %edx
  401c03: 4d 89 e5                     	movq	%r12, %r13
  401c06: 85 d2                        	testl	%edx, %edx
  401c08: 7f 6b                        	jg	0x401c75 <_ZL13rio_readlinebP5rio_tPvm.constprop.0+0xd5>
  401c0a: 66 0f 1f 44 00 00            	nopw	(%rax,%rax)
  401c10: 8b 3b                        	movl	(%rbx), %edi
  401c12: ba 00 20 00 00               	movl	$8192, %edx
  401c17: 4c 89 e6                     	movq	%r12, %rsi
  401c1a: e8 41 f1 ff ff               	callq	0x400d60 <read@plt>
  401c1f: 89 43 04                     	movl	%eax, 4(%rbx)
  401c22: 89 c2                        	movl	%eax, %edx
  401c24: 85 c0                        	testl	%eax, %eax
  401c26: 79 a0                        	jns	0x401bc8 <_ZL13rio_readlinebP5rio_tPvm.constprop.0+0x28>
  401c28: e8 b3 ef ff ff               	callq	0x400be0 <__errno_location@plt>
  401c2d: 83 38 04                     	cmpl	$4, (%rax)
  401c30: 74 de                        	je	0x401c10 <_ZL13rio_readlinebP5rio_tPvm.constprop.0+0x70>
  401c32: 48 c7 c0 ff ff ff ff         	movq	$-1, %rax
  401c39: 48 83 c4 08                  	addq	$8, %rsp
  401c3d: 5b                           	popq	%rbx
  401c3e: 41 5c                        	popq	%r12
  401c40: 41 5d                        	popq	%r13
  401c42: 41 5e                        	popq	%r14
  401c44: 41 5f                        	popq	%r15
  401c46: 5d                           	popq	%rbp
  401c47: c3                           	retq
  401c48: 0f 1f 84 00 00 00 00 00      	nopl	(%rax,%rax)
  401c50: 31 c0                        	xorl	%eax, %eax
  401c52: 49 83 ff 01                  	cmpq	$1, %r15
  401c56: 74 e1                        	je	0x401c39 <_ZL13rio_readlinebP5rio_tPvm.constprop.0+0x99>
  401c58: 4c 89 f8                     	movq	%r15, %rax
  401c5b: 41 c6 06 00                  	movb	$0, (%r14)
  401c5f: 48 83 c4 08                  	addq	$8, %rsp
  401c63: 5b                           	popq	%rbx
  401c64: 41 5c                        	popq	%r12
  401c66: 41 5d                        	popq	%r13
  401c68: 41 5e                        	popq	%r14
  401c6a: 41 5f                        	popq	%r15
  401c6c: 5d                           	popq	%rbp
  401c6d: c3                           	retq
  401c6e: b8 00 20 00 00               	movl	$8192, %eax
  401c73: eb e6                        	jmp	0x401c5b <_ZL13rio_readlinebP5rio_tPvm.constprop.0+0xbb>
  401c75: 4c 8b 6b 08                  	movq	8(%rbx), %r13
  401c79: e9 56 ff ff ff               	jmp	0x401bd4 <_ZL13rio_readlinebP5rio_tPvm.constprop.0+0x34>
  401c7e: 66 90                        	nop

0000000000401c80 <_Z7submitrPKciS0_S0_S0_S0_S0_Pc>:
  401c80: 55                           	pushq	%rbp
  401c81: 48 89 e5                     	movq	%rsp, %rbp
  401c84: 41 57                        	pushq	%r15
  401c86: 4d 89 cf                     	movq	%r9, %r15
  401c89: 41 56                        	pushq	%r14
  401c8b: 49 89 ce                     	movq	%rcx, %r14
  401c8e: 41 55                        	pushq	%r13
  401c90: 41 54                        	pushq	%r12
  401c92: 53                           	pushq	%rbx
  401c93: 89 f3                        	movl	%esi, %ebx
  401c95: be 01 00 00 00               	movl	$1, %esi
  401c9a: 48 81 ec 58 c0 00 00         	subq	$49240, %rsp
  401ca1: 48 89 bd 90 3f ff ff         	movq	%rdi, -49264(%rbp)
  401ca8: bf 02 00 00 00               	movl	$2, %edi
  401cad: 4c 8b 6d 10                  	movq	16(%rbp), %r13
  401cb1: 48 89 95 98 3f ff ff         	movq	%rdx, -49256(%rbp)
  401cb8: 31 d2                        	xorl	%edx, %edx
  401cba: 4c 89 85 88 3f ff ff         	movq	%r8, -49272(%rbp)
  401cc1: c7 85 ac 3f ff ff 00 00 00 00	movl	$0, -49236(%rbp)
  401ccb: e8 50 ef ff ff               	callq	0x400c20 <socket@plt>
  401cd0: 4c 8b 95 90 3f ff ff         	movq	-49264(%rbp), %r10
  401cd7: 85 c0                        	testl	%eax, %eax
  401cd9: 0f 88 dc 03 00 00            	js	0x4020bb <_Z7submitrPKciS0_S0_S0_S0_S0_Pc+0x43b>
  401cdf: 4c 89 d7                     	movq	%r10, %rdi
  401ce2: 41 89 c4                     	movl	%eax, %r12d
  401ce5: e8 e6 ef ff ff               	callq	0x400cd0 <gethostbyname@plt>
  401cea: 48 85 c0                     	testq	%rax, %rax
  401ced: 0f 84 ea 03 00 00            	je	0x4020dd <_Z7submitrPKciS0_S0_S0_S0_S0_Pc+0x45d>
  401cf3: 48 63 50 14                  	movslq	20(%rax), %rdx
  401cf7: 48 8b 40 18                  	movq	24(%rax), %rax
  401cfb: 66 0f ef c0                  	pxor	%xmm0, %xmm0
  401cff: b9 02 00 00 00               	movl	$2, %ecx
  401d04: 0f 29 85 b0 3f ff ff         	movaps	%xmm0, -49232(%rbp)
  401d0b: 48 8d bd b4 3f ff ff         	leaq	-49228(%rbp), %rdi
  401d12: 48 8b 30                     	movq	(%rax), %rsi
  401d15: 66 89 8d b0 3f ff ff         	movw	%cx, -49232(%rbp)
  401d1c: 66 c1 cb 08                  	rorw	$8, %bx
  401d20: e8 6b f0 ff ff               	callq	0x400d90 <memmove@plt>
  401d25: ba 10 00 00 00               	movl	$16, %edx
  401d2a: 44 89 e7                     	movl	%r12d, %edi
  401d2d: 48 8d b5 b0 3f ff ff         	leaq	-49232(%rbp), %rsi
  401d34: 66 89 9d b2 3f ff ff         	movw	%bx, -49230(%rbp)
  401d3b: e8 60 ef ff ff               	callq	0x400ca0 <connect@plt>
  401d40: 85 c0                        	testl	%eax, %eax
  401d42: 0f 88 9f 03 00 00            	js	0x4020e7 <_Z7submitrPKciS0_S0_S0_S0_S0_Pc+0x467>
  401d48: 4c 89 ef                     	movq	%r13, %rdi
  401d4b: e8 10 ef ff ff               	callq	0x400c60 <strlen@plt>
  401d50: 48 8b bd 98 3f ff ff         	movq	-49256(%rbp), %rdi
  401d57: 48 89 85 90 3f ff ff         	movq	%rax, -49264(%rbp)
  401d5e: e8 fd ee ff ff               	callq	0x400c60 <strlen@plt>
  401d63: 4c 89 f7                     	movq	%r14, %rdi
  401d66: 48 89 c3                     	movq	%rax, %rbx
  401d69: e8 f2 ee ff ff               	callq	0x400c60 <strlen@plt>
  401d6e: 4c 89 ff                     	movq	%r15, %rdi
  401d71: 48 01 c3                     	addq	%rax, %rbx
  401d74: e8 e7 ee ff ff               	callq	0x400c60 <strlen@plt>
  401d79: 48 8b 95 90 3f ff ff         	movq	-49264(%rbp), %rdx
  401d80: 48 8d 84 03 80 00 00 00      	leaq	128(%rbx,%rax), %rax
  401d88: 48 8d 14 52                  	leaq	(%rdx,%rdx,2), %rdx
  401d8c: 48 01 d0                     	addq	%rdx, %rax
  401d8f: 48 3d 00 20 00 00            	cmpq	$8192, %rax
  401d95: 0f 87 f0 02 00 00            	ja	0x40208b <_Z7submitrPKciS0_S0_S0_S0_S0_Pc+0x40b>
  401d9b: 4c 8d 8d c0 3f ff ff         	leaq	-49216(%rbp), %r9
  401da2: 31 c0                        	xorl	%eax, %eax
  401da4: b9 00 04 00 00               	movl	$1024, %ecx
  401da9: 4c 89 cf                     	movq	%r9, %rdi
  401dac: f3 48 ab                     	rep		stosq	%rax, %es:(%rdi)
  401daf: 4c 89 ef                     	movq	%r13, %rdi
  401db2: e8 a9 ee ff ff               	callq	0x400c60 <strlen@plt>
  401db7: 4c 8d 8d c0 3f ff ff         	leaq	-49216(%rbp), %r9
  401dbe: 85 c0                        	testl	%eax, %eax
  401dc0: 0f 84 b2 00 00 00            	je	0x401e78 <_Z7submitrPKciS0_S0_S0_S0_S0_Pc+0x1f8>
  401dc6: 49 ba 26 00 ff ff ff ff df ff	movabsq	$-9007199254806490, %r10
  401dd0: 83 e8 01                     	subl	$1, %eax
  401dd3: 4c 89 cb                     	movq	%r9, %rbx
  401dd6: 49 8d 4c 05 01               	leaq	1(%r13,%rax), %rcx
  401ddb: 0f 1f 44 00 00               	nopl	(%rax,%rax)
  401de0: 41 0f b6 45 00               	movzbl	(%r13), %eax
  401de5: 8d 50 d6                     	leal	-42(%rax), %edx
  401de8: 80 fa 35                     	cmpb	$53, %dl
  401deb: 0f 86 ff 01 00 00            	jbe	0x401ff0 <_Z7submitrPKciS0_S0_S0_S0_S0_Pc+0x370>
  401df1: 89 c2                        	movl	%eax, %edx
  401df3: 83 e2 df                     	andl	$-33, %edx
  401df6: 83 ea 41                     	subl	$65, %edx
  401df9: 80 fa 19                     	cmpb	$25, %dl
  401dfc: 0f 86 f4 01 00 00            	jbe	0x401ff6 <_Z7submitrPKciS0_S0_S0_S0_S0_Pc+0x376>
  401e02: 3c 20                        	cmpb	$32, %al
  401e04: 0f 84 6e 02 00 00            	je	0x402078 <_Z7submitrPKciS0_S0_S0_S0_S0_Pc+0x3f8>
  401e0a: 8d 50 e0                     	leal	-32(%rax), %edx
  401e0d: 80 fa 5f                     	cmpb	$95, %dl
  401e10: 76 08                        	jbe	0x401e1a <_Z7submitrPKciS0_S0_S0_S0_S0_Pc+0x19a>
  401e12: 3c 09                        	cmpb	$9, %al
  401e14: 0f 85 6a 02 00 00            	jne	0x402084 <_Z7submitrPKciS0_S0_S0_S0_S0_Pc+0x404>
  401e1a: 0f b6 d0                     	movzbl	%al, %edx
  401e1d: be 40 2b 40 00               	movl	$4205376, %esi
  401e22: 31 c0                        	xorl	%eax, %eax
  401e24: 49 83 c5 01                  	addq	$1, %r13
  401e28: 48 8d bd d0 bf ff ff         	leaq	-16432(%rbp), %rdi
  401e2f: 48 89 8d 90 3f ff ff         	movq	%rcx, -49264(%rbp)
  401e36: 48 83 c3 03                  	addq	$3, %rbx
  401e3a: e8 d1 ed ff ff               	callq	0x400c10 <sprintf@plt>
  401e3f: 0f b7 85 d0 bf ff ff         	movzwl	-16432(%rbp), %eax
  401e46: 48 8b 8d 90 3f ff ff         	movq	-49264(%rbp), %rcx
  401e4d: 49 ba 26 00 ff ff ff ff df ff	movabsq	$-9007199254806490, %r10
  401e57: 4c 8d 8d c0 3f ff ff         	leaq	-49216(%rbp), %r9
  401e5e: 66 89 43 fd                  	movw	%ax, -3(%rbx)
  401e62: 0f b6 85 d2 bf ff ff         	movzbl	-16430(%rbp), %eax
  401e69: 88 43 ff                     	movb	%al, -1(%rbx)
  401e6c: 49 39 cd                     	cmpq	%rcx, %r13
  401e6f: 0f 85 6b ff ff ff            	jne	0x401de0 <_Z7submitrPKciS0_S0_S0_S0_S0_Pc+0x160>
  401e75: 0f 1f 00                     	nopl	(%rax)
  401e78: 48 83 ec 08                  	subq	$8, %rsp
  401e7c: 48 8b 95 98 3f ff ff         	movq	-49256(%rbp), %rdx
  401e83: 4c 89 f1                     	movq	%r14, %rcx
  401e86: 31 c0                        	xorl	%eax, %eax
  401e88: 41 51                        	pushq	%r9
  401e8a: be c0 2a 40 00               	movl	$4205248, %esi
  401e8f: 4d 89 f9                     	movq	%r15, %r9
  401e92: 4c 8b 85 88 3f ff ff         	movq	-49272(%rbp), %r8
  401e99: 48 8d bd d0 bf ff ff         	leaq	-16432(%rbp), %rdi
  401ea0: 4c 8d ad d0 bf ff ff         	leaq	-16432(%rbp), %r13
  401ea7: e8 64 ed ff ff               	callq	0x400c10 <sprintf@plt>
  401eac: 48 8d bd d0 bf ff ff         	leaq	-16432(%rbp), %rdi
  401eb3: e8 a8 ed ff ff               	callq	0x400c60 <strlen@plt>
  401eb8: 49 89 c6                     	movq	%rax, %r14
  401ebb: 58                           	popq	%rax
  401ebc: 5a                           	popq	%rdx
  401ebd: 4c 89 f3                     	movq	%r14, %rbx
  401ec0: 4d 85 f6                     	testq	%r14, %r14
  401ec3: 74 2b                        	je	0x401ef0 <_Z7submitrPKciS0_S0_S0_S0_S0_Pc+0x270>
  401ec5: 0f 1f 00                     	nopl	(%rax)
  401ec8: 48 89 da                     	movq	%rbx, %rdx
  401ecb: 4c 89 ee                     	movq	%r13, %rsi
  401ece: 44 89 e7                     	movl	%r12d, %edi
  401ed1: e8 6a ed ff ff               	callq	0x400c40 <write@plt>
  401ed6: 48 85 c0                     	testq	%rax, %rax
  401ed9: 0f 8e 51 01 00 00            	jle	0x402030 <_Z7submitrPKciS0_S0_S0_S0_S0_Pc+0x3b0>
  401edf: 49 01 c5                     	addq	%rax, %r13
  401ee2: 48 29 c3                     	subq	%rax, %rbx
  401ee5: 75 e1                        	jne	0x401ec8 <_Z7submitrPKciS0_S0_S0_S0_S0_Pc+0x248>
  401ee7: 4d 85 f6                     	testq	%r14, %r14
  401eea: 0f 88 4e 01 00 00            	js	0x40203e <_Z7submitrPKciS0_S0_S0_S0_S0_Pc+0x3be>
  401ef0: 48 8d 85 d0 9f ff ff         	leaq	-24624(%rbp), %rax
  401ef7: 48 8d b5 d0 bf ff ff         	leaq	-16432(%rbp), %rsi
  401efe: 44 89 a5 c0 9f ff ff         	movl	%r12d, -24640(%rbp)
  401f05: 48 8d bd c0 9f ff ff         	leaq	-24640(%rbp), %rdi
  401f0c: 48 89 85 c8 9f ff ff         	movq	%rax, -24632(%rbp)
  401f13: c7 85 c4 9f ff ff 00 00 00 00	movl	$0, -24636(%rbp)
  401f1d: e8 7e fc ff ff               	callq	0x401ba0 <_ZL13rio_readlinebP5rio_tPvm.constprop.0>
  401f22: 48 85 c0                     	testq	%rax, %rax
  401f25: 0f 8e a8 01 00 00            	jle	0x4020d3 <_Z7submitrPKciS0_S0_S0_S0_S0_Pc+0x453>
  401f2b: 48 8d 95 c0 5f ff ff         	leaq	-41024(%rbp), %rdx
  401f32: 4c 8d 85 c0 7f ff ff         	leaq	-32832(%rbp), %r8
  401f39: 31 c0                        	xorl	%eax, %eax
  401f3b: be 47 2b 40 00               	movl	$4205383, %esi
  401f40: 48 8d 8d ac 3f ff ff         	leaq	-49236(%rbp), %rcx
  401f47: 48 8d bd d0 bf ff ff         	leaq	-16432(%rbp), %rdi
  401f4e: e8 2d ed ff ff               	callq	0x400c80 <sscanf@plt>
  401f53: 8b 95 ac 3f ff ff            	movl	-49236(%rbp), %edx
  401f59: 81 fa c8 00 00 00            	cmpl	$200, %edx
  401f5f: 74 1d                        	je	0x401f7e <_Z7submitrPKciS0_S0_S0_S0_S0_Pc+0x2fe>
  401f61: e9 2c 01 00 00               	jmp	0x402092 <_Z7submitrPKciS0_S0_S0_S0_S0_Pc+0x412>
  401f66: 66 2e 0f 1f 84 00 00 00 00 00	nopw	%cs:(%rax,%rax)
  401f70: e8 2b fc ff ff               	callq	0x401ba0 <_ZL13rio_readlinebP5rio_tPvm.constprop.0>
  401f75: 48 85 c0                     	testq	%rax, %rax
  401f78: 0f 8e ca 00 00 00            	jle	0x402048 <_Z7submitrPKciS0_S0_S0_S0_S0_Pc+0x3c8>
  401f7e: be 58 2b 40 00               	movl	$4205400, %esi
  401f83: 48 8d bd d0 bf ff ff         	leaq	-16432(%rbp), %rdi
  401f8a: e8 a1 ed ff ff               	callq	0x400d30 <strcmp@plt>
  401f8f: 48 8d b5 d0 bf ff ff         	leaq	-16432(%rbp), %rsi
  401f96: 48 8d bd c0 9f ff ff         	leaq	-24640(%rbp), %rdi
  401f9d: 85 c0                        	testl	%eax, %eax
  401f9f: 75 cf                        	jne	0x401f70 <_Z7submitrPKciS0_S0_S0_S0_S0_Pc+0x2f0>
  401fa1: e8 fa fb ff ff               	callq	0x401ba0 <_ZL13rio_readlinebP5rio_tPvm.constprop.0>
  401fa6: 48 85 c0                     	testq	%rax, %rax
  401fa9: 0f 8e 42 01 00 00            	jle	0x4020f1 <_Z7submitrPKciS0_S0_S0_S0_S0_Pc+0x471>
  401faf: 48 8b 7d 18                  	movq	24(%rbp), %rdi
  401fb3: 48 8d b5 d0 bf ff ff         	leaq	-16432(%rbp), %rsi
  401fba: e8 01 ed ff ff               	callq	0x400cc0 <strcpy@plt>
  401fbf: 44 89 e7                     	movl	%r12d, %edi
  401fc2: e8 f9 ed ff ff               	callq	0x400dc0 <close@plt>
  401fc7: 48 8b 7d 18                  	movq	24(%rbp), %rdi
  401fcb: be 5b 2b 40 00               	movl	$4205403, %esi
  401fd0: e8 5b ed ff ff               	callq	0x400d30 <strcmp@plt>
  401fd5: f7 d8                        	negl	%eax
  401fd7: 19 c0                        	sbbl	%eax, %eax
  401fd9: 48 8d 65 d8                  	leaq	-40(%rbp), %rsp
  401fdd: 5b                           	popq	%rbx
  401fde: 41 5c                        	popq	%r12
  401fe0: 41 5d                        	popq	%r13
  401fe2: 41 5e                        	popq	%r14
  401fe4: 41 5f                        	popq	%r15
  401fe6: 5d                           	popq	%rbp
  401fe7: c3                           	retq
  401fe8: 0f 1f 84 00 00 00 00 00      	nopl	(%rax,%rax)
  401ff0: 49 0f a3 d2                  	btq	%rdx, %r10
  401ff4: 72 1a                        	jb	0x402010 <_Z7submitrPKciS0_S0_S0_S0_S0_Pc+0x390>
  401ff6: 88 03                        	movb	%al, (%rbx)
  401ff8: 48 83 c3 01                  	addq	$1, %rbx
  401ffc: 49 83 c5 01                  	addq	$1, %r13
  402000: 49 39 cd                     	cmpq	%rcx, %r13
  402003: 0f 85 d7 fd ff ff            	jne	0x401de0 <_Z7submitrPKciS0_S0_S0_S0_S0_Pc+0x160>
  402009: e9 6a fe ff ff               	jmp	0x401e78 <_Z7submitrPKciS0_S0_S0_S0_S0_Pc+0x1f8>
  40200e: 66 90                        	nop
  402010: 89 c2                        	movl	%eax, %edx
  402012: 83 e2 df                     	andl	$-33, %edx
  402015: 83 ea 41                     	subl	$65, %edx
  402018: 80 fa 19                     	cmpb	$25, %dl
  40201b: 76 d9                        	jbe	0x401ff6 <_Z7submitrPKciS0_S0_S0_S0_S0_Pc+0x376>
  40201d: 8d 50 e0                     	leal	-32(%rax), %edx
  402020: 80 fa 5f                     	cmpb	$95, %dl
  402023: 0f 87 e9 fd ff ff            	ja	0x401e12 <_Z7submitrPKciS0_S0_S0_S0_S0_Pc+0x192>
  402029: e9 ec fd ff ff               	jmp	0x401e1a <_Z7submitrPKciS0_S0_S0_S0_S0_Pc+0x19a>
  40202e: 66 90                        	nop
  402030: e8 ab eb ff ff               	callq	0x400be0 <__errno_location@plt>
  402035: 83 38 04                     	cmpl	$4, (%rax)
  402038: 0f 84 8a fe ff ff            	je	0x401ec8 <_Z7submitrPKciS0_S0_S0_S0_S0_Pc+0x248>
  40203e: be 70 29 40 00               	movl	$4204912, %esi
  402043: eb 08                        	jmp	0x40204d <_Z7submitrPKciS0_S0_S0_S0_S0_Pc+0x3cd>
  402045: 0f 1f 00                     	nopl	(%rax)
  402048: be 08 2a 40 00               	movl	$4205064, %esi
  40204d: 48 8b 7d 18                  	movq	24(%rbp), %rdi
  402051: e8 6a ec ff ff               	callq	0x400cc0 <strcpy@plt>
  402056: 44 89 e7                     	movl	%r12d, %edi
  402059: e8 62 ed ff ff               	callq	0x400dc0 <close@plt>
  40205e: 48 8d 65 d8                  	leaq	-40(%rbp), %rsp
  402062: b8 ff ff ff ff               	movl	$4294967295, %eax
  402067: 5b                           	popq	%rbx
  402068: 41 5c                        	popq	%r12
  40206a: 41 5d                        	popq	%r13
  40206c: 41 5e                        	popq	%r14
  40206e: 41 5f                        	popq	%r15
  402070: 5d                           	popq	%rbp
  402071: c3                           	retq
  402072: 66 0f 1f 44 00 00            	nopw	(%rax,%rax)
  402078: c6 03 2b                     	movb	$43, (%rbx)
  40207b: 48 83 c3 01                  	addq	$1, %rbx
  40207f: e9 78 ff ff ff               	jmp	0x401ffc <_Z7submitrPKciS0_S0_S0_S0_S0_Pc+0x37c>
  402084: be 78 2a 40 00               	movl	$4205176, %esi
  402089: eb c2                        	jmp	0x40204d <_Z7submitrPKciS0_S0_S0_S0_S0_Pc+0x3cd>
  40208b: be 38 29 40 00               	movl	$4204856, %esi
  402090: eb bb                        	jmp	0x40204d <_Z7submitrPKciS0_S0_S0_S0_S0_Pc+0x3cd>
  402092: 48 8b 7d 18                  	movq	24(%rbp), %rdi
  402096: 48 8d 8d c0 7f ff ff         	leaq	-32832(%rbp), %rcx
  40209d: be d8 29 40 00               	movl	$4205016, %esi
  4020a2: 31 c0                        	xorl	%eax, %eax
  4020a4: e8 67 eb ff ff               	callq	0x400c10 <sprintf@plt>
  4020a9: 44 89 e7                     	movl	%r12d, %edi
  4020ac: e8 0f ed ff ff               	callq	0x400dc0 <close@plt>
  4020b1: b8 ff ff ff ff               	movl	$4294967295, %eax
  4020b6: e9 1e ff ff ff               	jmp	0x401fd9 <_Z7submitrPKciS0_S0_S0_S0_S0_Pc+0x359>
  4020bb: 48 8b 7d 18                  	movq	24(%rbp), %rdi
  4020bf: be b8 28 40 00               	movl	$4204728, %esi
  4020c4: e8 f7 eb ff ff               	callq	0x400cc0 <strcpy@plt>
  4020c9: b8 ff ff ff ff               	movl	$4294967295, %eax
  4020ce: e9 06 ff ff ff               	jmp	0x401fd9 <_Z7submitrPKciS0_S0_S0_S0_S0_Pc+0x359>
  4020d3: be a0 29 40 00               	movl	$4204960, %esi
  4020d8: e9 70 ff ff ff               	jmp	0x40204d <_Z7submitrPKciS0_S0_S0_S0_S0_Pc+0x3cd>
  4020dd: be e0 28 40 00               	movl	$4204768, %esi
  4020e2: e9 66 ff ff ff               	jmp	0x40204d <_Z7submitrPKciS0_S0_S0_S0_S0_Pc+0x3cd>
  4020e7: be 10 29 40 00               	movl	$4204816, %esi
  4020ec: e9 5c ff ff ff               	jmp	0x40204d <_Z7submitrPKciS0_S0_S0_S0_S0_Pc+0x3cd>
  4020f1: be 40 2a 40 00               	movl	$4205120, %esi
  4020f6: e9 52 ff ff ff               	jmp	0x40204d <_Z7submitrPKciS0_S0_S0_S0_S0_Pc+0x3cd>
  4020fb: 0f 1f 44 00 00               	nopl	(%rax,%rax)

0000000000402100 <_Z12init_timeouti>:
  402100: 85 ff                        	testl	%edi, %edi
  402102: 75 04                        	jne	0x402108 <_Z12init_timeouti+0x8>
  402104: c3                           	retq
  402105: 0f 1f 00                     	nopl	(%rax)
  402108: 55                           	pushq	%rbp
  402109: be 70 1b 40 00               	movl	$4201328, %esi
  40210e: 48 89 e5                     	movq	%rsp, %rbp
  402111: 53                           	pushq	%rbx
  402112: 89 fb                        	movl	%edi, %ebx
  402114: bf 0e 00 00 00               	movl	$14, %edi
  402119: 48 83 ec 08                  	subq	$8, %rsp
  40211d: e8 ce eb ff ff               	callq	0x400cf0 <signal@plt>
  402122: 31 c0                        	xorl	%eax, %eax
  402124: 85 db                        	testl	%ebx, %ebx
  402126: 0f 49 c3                     	cmovnsl	%ebx, %eax
  402129: 48 8b 5d f8                  	movq	-8(%rbp), %rbx
  40212d: c9                           	leave
  40212e: 89 c7                        	movl	%eax, %edi
  402130: e9 7b ec ff ff               	jmp	0x400db0 <alarm@plt>
  402135: 90                           	nop
  402136: 66 2e 0f 1f 84 00 00 00 00 00	nopw	%cs:(%rax,%rax)

0000000000402140 <_Z11init_driverPc>:
  402140: 55                           	pushq	%rbp
  402141: be 01 00 00 00               	movl	$1, %esi
  402146: 48 89 e5                     	movq	%rsp, %rbp
  402149: 41 55                        	pushq	%r13
  40214b: 49 89 fd                     	movq	%rdi, %r13
  40214e: bf 0d 00 00 00               	movl	$13, %edi
  402153: 41 54                        	pushq	%r12
  402155: 48 83 ec 10                  	subq	$16, %rsp
  402159: e8 92 eb ff ff               	callq	0x400cf0 <signal@plt>
  40215e: be 01 00 00 00               	movl	$1, %esi
  402163: bf 1d 00 00 00               	movl	$29, %edi
  402168: e8 83 eb ff ff               	callq	0x400cf0 <signal@plt>
  40216d: be 01 00 00 00               	movl	$1, %esi
  402172: bf 1d 00 00 00               	movl	$29, %edi
  402177: e8 74 eb ff ff               	callq	0x400cf0 <signal@plt>
  40217c: 31 d2                        	xorl	%edx, %edx
  40217e: be 01 00 00 00               	movl	$1, %esi
  402183: bf 02 00 00 00               	movl	$2, %edi
  402188: e8 93 ea ff ff               	callq	0x400c20 <socket@plt>
  40218d: 85 c0                        	testl	%eax, %eax
  40218f: 78 7a                        	js	0x40220b <_Z11init_driverPc+0xcb>
  402191: bf 5e 2b 40 00               	movl	$4205406, %edi
  402196: 41 89 c4                     	movl	%eax, %r12d
  402199: e8 32 eb ff ff               	callq	0x400cd0 <gethostbyname@plt>
  40219e: 48 85 c0                     	testq	%rax, %rax
  4021a1: 0f 84 9b 00 00 00            	je	0x402242 <_Z11init_driverPc+0x102>
  4021a7: 66 0f ef c0                  	pxor	%xmm0, %xmm0
  4021ab: ba 02 00 00 00               	movl	$2, %edx
  4021b0: 48 8d 7d e4                  	leaq	-28(%rbp), %rdi
  4021b4: 0f 29 45 e0                  	movaps	%xmm0, -32(%rbp)
  4021b8: 66 89 55 e0                  	movw	%dx, -32(%rbp)
  4021bc: 48 63 50 14                  	movslq	20(%rax), %rdx
  4021c0: 48 8b 40 18                  	movq	24(%rax), %rax
  4021c4: 48 8b 30                     	movq	(%rax), %rsi
  4021c7: e8 c4 eb ff ff               	callq	0x400d90 <memmove@plt>
  4021cc: b9 3b 6e 00 00               	movl	$28219, %ecx
  4021d1: ba 10 00 00 00               	movl	$16, %edx
  4021d6: 44 89 e7                     	movl	%r12d, %edi
  4021d9: 48 8d 75 e0                  	leaq	-32(%rbp), %rsi
  4021dd: 66 89 4d e2                  	movw	%cx, -30(%rbp)
  4021e1: e8 ba ea ff ff               	callq	0x400ca0 <connect@plt>
  4021e6: 85 c0                        	testl	%eax, %eax
  4021e8: 78 35                        	js	0x40221f <_Z11init_driverPc+0xdf>
  4021ea: 44 89 e7                     	movl	%r12d, %edi
  4021ed: e8 ce eb ff ff               	callq	0x400dc0 <close@plt>
  4021f2: be 5b 2b 40 00               	movl	$4205403, %esi
  4021f7: 4c 89 ef                     	movq	%r13, %rdi
  4021fa: e8 c1 ea ff ff               	callq	0x400cc0 <strcpy@plt>
  4021ff: 31 c0                        	xorl	%eax, %eax
  402201: 48 83 c4 10                  	addq	$16, %rsp
  402205: 41 5c                        	popq	%r12
  402207: 41 5d                        	popq	%r13
  402209: 5d                           	popq	%rbp
  40220a: c3                           	retq
  40220b: be b8 28 40 00               	movl	$4204728, %esi
  402210: 4c 89 ef                     	movq	%r13, %rdi
  402213: e8 a8 ea ff ff               	callq	0x400cc0 <strcpy@plt>
  402218: b8 ff ff ff ff               	movl	$4294967295, %eax
  40221d: eb e2                        	jmp	0x402201 <_Z11init_driverPc+0xc1>
  40221f: ba 5e 2b 40 00               	movl	$4205406, %edx
  402224: be 18 2b 40 00               	movl	$4205336, %esi
  402229: 4c 89 ef                     	movq	%r13, %rdi
  40222c: 31 c0                        	xorl	%eax, %eax
  40222e: e8 dd e9 ff ff               	callq	0x400c10 <sprintf@plt>
  402233: 44 89 e7                     	movl	%r12d, %edi
  402236: e8 85 eb ff ff               	callq	0x400dc0 <close@plt>
  40223b: b8 ff ff ff ff               	movl	$4294967295, %eax
  402240: eb bf                        	jmp	0x402201 <_Z11init_driverPc+0xc1>
  402242: be e0 28 40 00               	movl	$4204768, %esi
  402247: 4c 89 ef                     	movq	%r13, %rdi
  40224a: e8 71 ea ff ff               	callq	0x400cc0 <strcpy@plt>
  40224f: 44 89 e7                     	movl	%r12d, %edi
  402252: e8 69 eb ff ff               	callq	0x400dc0 <close@plt>
  402257: b8 ff ff ff ff               	movl	$4294967295, %eax
  40225c: eb a3                        	jmp	0x402201 <_Z11init_driverPc+0xc1>
  40225e: 66 90                        	nop

0000000000402260 <_Z11driver_postPcS_S_iS_>:
  402260: 55                           	pushq	%rbp
  402261: 48 89 e5                     	movq	%rsp, %rbp
  402264: 41 56                        	pushq	%r14
  402266: 49 89 d6                     	movq	%rdx, %r14
  402269: 41 55                        	pushq	%r13
  40226b: 4d 89 c5                     	movq	%r8, %r13
  40226e: 41 54                        	pushq	%r12
  402270: 53                           	pushq	%rbx
  402271: 85 c9                        	testl	%ecx, %ecx
  402273: 75 3b                        	jne	0x4022b0 <_Z11driver_postPcS_S_iS_+0x50>
  402275: 49 89 fc                     	movq	%rdi, %r12
  402278: 48 85 ff                     	testq	%rdi, %rdi
  40227b: 74 11                        	je	0x40228e <_Z11driver_postPcS_S_iS_+0x2e>
  40227d: 48 89 f3                     	movq	%rsi, %rbx
  402280: be 5a 2b 40 00               	movl	$4205402, %esi
  402285: e8 a6 ea ff ff               	callq	0x400d30 <strcmp@plt>
  40228a: 85 c0                        	testl	%eax, %eax
  40228c: 75 52                        	jne	0x4022e0 <_Z11driver_postPcS_S_iS_+0x80>
  40228e: 4c 89 ef                     	movq	%r13, %rdi
  402291: be 5b 2b 40 00               	movl	$4205403, %esi
  402296: e8 25 ea ff ff               	callq	0x400cc0 <strcpy@plt>
  40229b: 48 8d 65 e0                  	leaq	-32(%rbp), %rsp
  40229f: 31 c0                        	xorl	%eax, %eax
  4022a1: 5b                           	popq	%rbx
  4022a2: 41 5c                        	popq	%r12
  4022a4: 41 5d                        	popq	%r13
  4022a6: 41 5e                        	popq	%r14
  4022a8: 5d                           	popq	%rbp
  4022a9: c3                           	retq
  4022aa: 66 0f 1f 44 00 00            	nopw	(%rax,%rax)
  4022b0: 48 89 d6                     	movq	%rdx, %rsi
  4022b3: bf 74 2b 40 00               	movl	$4205428, %edi
  4022b8: 31 c0                        	xorl	%eax, %eax
  4022ba: e8 31 e9 ff ff               	callq	0x400bf0 <printf@plt>
  4022bf: 4c 89 ef                     	movq	%r13, %rdi
  4022c2: be 5b 2b 40 00               	movl	$4205403, %esi
  4022c7: e8 f4 e9 ff ff               	callq	0x400cc0 <strcpy@plt>
  4022cc: 48 8d 65 e0                  	leaq	-32(%rbp), %rsp
  4022d0: 31 c0                        	xorl	%eax, %eax
  4022d2: 5b                           	popq	%rbx
  4022d3: 41 5c                        	popq	%r12
  4022d5: 41 5d                        	popq	%r13
  4022d7: 41 5e                        	popq	%r14
  4022d9: 5d                           	popq	%rbp
  4022da: c3                           	retq
  4022db: 0f 1f 44 00 00               	nopl	(%rax,%rax)
  4022e0: 41 55                        	pushq	%r13
  4022e2: 4c 89 e1                     	movq	%r12, %rcx
  4022e5: 49 89 d8                     	movq	%rbx, %r8
  4022e8: ba 95 2b 40 00               	movl	$4205461, %edx
  4022ed: 41 56                        	pushq	%r14
  4022ef: 41 b9 8b 2b 40 00            	movl	$4205451, %r9d
  4022f5: be 6e 3b 00 00               	movl	$15214, %esi
  4022fa: bf 5e 2b 40 00               	movl	$4205406, %edi
  4022ff: e8 7c f9 ff ff               	callq	0x401c80 <_Z7submitrPKciS0_S0_S0_S0_S0_Pc>
  402304: 5a                           	popq	%rdx
  402305: 59                           	popq	%rcx
  402306: 48 8d 65 e0                  	leaq	-32(%rbp), %rsp
  40230a: 5b                           	popq	%rbx
  40230b: 41 5c                        	popq	%r12
  40230d: 41 5d                        	popq	%r13
  40230f: 41 5e                        	popq	%r14
  402311: 5d                           	popq	%rbp
  402312: c3                           	retq
  402313: 66 2e 0f 1f 84 00 00 00 00 00	nopw	%cs:(%rax,%rax)
  40231d: 0f 1f 00                     	nopl	(%rax)

0000000000402320 <__libc_csu_init>:
  402320: 41 57                        	pushq	%r15
  402322: 41 56                        	pushq	%r14
  402324: 49 89 d7                     	movq	%rdx, %r15
  402327: 41 55                        	pushq	%r13
  402329: 41 54                        	pushq	%r12
  40232b: 4c 8d 25 a6 1a 20 00         	leaq	2103974(%rip), %r12  # 603dd8 <__init_array_start>
  402332: 55                           	pushq	%rbp
  402333: 48 8d 2d ae 1a 20 00         	leaq	2103982(%rip), %rbp  # 603de8 <__do_global_dtors_aux_fini_array_entry>
  40233a: 53                           	pushq	%rbx
  40233b: 41 89 fd                     	movl	%edi, %r13d
  40233e: 49 89 f6                     	movq	%rsi, %r14
  402341: 4c 29 e5                     	subq	%r12, %rbp
  402344: 48 83 ec 08                  	subq	$8, %rsp
  402348: 48 c1 fd 03                  	sarq	$3, %rbp
  40234c: e8 57 e8 ff ff               	callq	0x400ba8 <_init>
  402351: 48 85 ed                     	testq	%rbp, %rbp
  402354: 74 18                        	je	0x40236e <__libc_csu_init+0x4e>
  402356: 31 db                        	xorl	%ebx, %ebx
  402358: 4c 89 fa                     	movq	%r15, %rdx
  40235b: 4c 89 f6                     	movq	%r14, %rsi
  40235e: 44 89 ef                     	movl	%r13d, %edi
  402361: 41 ff 14 dc                  	callq	*(%r12,%rbx,8)
  402365: 48 83 c3 01                  	addq	$1, %rbx
  402369: 48 39 dd                     	cmpq	%rbx, %rbp
  40236c: 75 ea                        	jne	0x402358 <__libc_csu_init+0x38>
  40236e: 48 83 c4 08                  	addq	$8, %rsp
  402372: 5b                           	popq	%rbx
  402373: 5d                           	popq	%rbp
  402374: 41 5c                        	popq	%r12
  402376: 41 5d                        	popq	%r13
  402378: 41 5e                        	popq	%r14
  40237a: 41 5f                        	popq	%r15
  40237c: c3                           	retq
  40237d: 0f 1f 00                     	nopl	(%rax)

0000000000402380 <__libc_csu_fini>:
  402380: f3 c3                        	rep		retq
  402382: 66 2e 0f 1f 84 00 00 00 00 00	nopw	%cs:(%rax,%rax)
  40238c: 0f 1f 40 00                  	nopl	(%rax)

0000000000402390 <atexit>:
  402390: 48 c7 c0 28 41 60 00         	movq	$6308136, %rax
  402397: 31 d2                        	xorl	%edx, %edx
  402399: 48 85 c0                     	testq	%rax, %rax
  40239c: 74 03                        	je	0x4023a1 <atexit+0x11>
  40239e: 48 8b 10                     	movq	(%rax), %rdx
  4023a1: 31 f6                        	xorl	%esi, %esi
  4023a3: e9 08 e9 ff ff               	jmp	0x400cb0 <__cxa_atexit@plt>

Disassembly of section .fini:

00000000004023a8 <_fini>:
  4023a8: 48 83 ec 08                  	subq	$8, %rsp
  4023ac: 48 83 c4 08                  	addq	$8, %rsp
  4023b0: c3                           	retq

Disassembly of section .rodata:

00000000004023c0 <_IO_stdin_used>:
  4023c0: 01 00                        	addl	%eax, (%rax)
  4023c2: 02 00                        	addb	(%rax), %al
  4023c4: 2d 00 72 00 25               	subl	$620786176, %eax
  4023c9: 73 3a                        	jae	0x402405 <_IO_stdin_used+0x45>
  4023cb: 20 45 72                     	andb	%al, 114(%rbp)
  4023ce: 72 6f                        	jb	0x40243f <_IO_stdin_used+0x7f>
  4023d0: 72 3a                        	jb	0x40240c <_IO_stdin_used+0x4c>
  4023d2: 20 43 6f                     	andb	%al, 111(%rbx)
  4023d5: 75 6c                        	jne	0x402443 <_IO_stdin_used+0x83>
  4023d7: 64 6e                        	outsb	%fs:(%rsi), %dx
  4023d9: 27                           	<unknown>
  4023da: 74 20                        	je	0x4023fc <_IO_stdin_used+0x3c>
  4023dc: 6f                           	outsl	(%rsi), %dx
  4023dd: 70 65                        	jo	0x402444 <_IO_stdin_used+0x84>
  4023df: 6e                           	outsb	(%rsi), %dx
  4023e0: 20 25 73 0a 00 55            	andb	%ah, 1426066035(%rip)  # 55402e59 <_end+0x54dfdd19>
  4023e6: 73 61                        	jae	0x402449 <_IO_stdin_used+0x89>
  4023e8: 67 65 3a 20                  	cmpb	%gs:(%eax), %ah
  4023ec: 25 73 20 5b 46               	andl	$1180377203, %eax
  4023f1: 49 4c                        	<unknown>
  4023f3: 45 5d                        	popq	%r13
  4023f5: 0a 00                        	orb	(%rax), %al
  4023f7: 53                           	pushq	%rbx
  4023f8: 74 65                        	je	0x40245f <_IO_stdin_used+0x9f>
  4023fa: 70 20                        	jo	0x40241c <_IO_stdin_used+0x5c>
  4023fc: 63 61 72                     	movslq	114(%rcx), %esp
  4023ff: 65 66 75 6c                  	jne	0x40246f <_IO_stdin_used+0xaf>
  402403: 6c                           	insb	%dx, %es:(%rdi)
  402404: 79 2e                        	jns	0x402434 <_IO_stdin_used+0x74>
  402406: 00 50 48                     	addb	%dl, 72(%rax)
  402409: 41 53                        	pushq	%r11
  40240b: 45 20 31                     	andb	%r14b, (%r9)
  40240e: 20 44 45 46                  	andb	%al, 70(%rbp,%rax,2)
  402412: 55                           	pushq	%rbp
  402413: 53                           	pushq	%rbx
  402414: 45 44                        	<unknown>
  402416: 2e 00 50 48                  	addb	%dl, %cs:72(%rax)
  40241a: 41 53                        	pushq	%r11
  40241c: 45 20 32                     	andb	%r14b, (%r10)
  40241f: 20 44 45 46                  	andb	%al, 70(%rbp,%rax,2)
  402423: 55                           	pushq	%rbp
  402424: 53                           	pushq	%rbx
  402425: 45 44                        	<unknown>
  402427: 2e 00 50 48                  	addb	%dl, %cs:72(%rax)
  40242b: 41 53                        	pushq	%r11
  40242d: 45 20 33                     	andb	%r14b, (%r11)
  402430: 20 44 45 46                  	andb	%al, 70(%rbp,%rax,2)
  402434: 55                           	pushq	%rbp
  402435: 53                           	pushq	%rbx
  402436: 45 44                        	<unknown>
  402438: 2e 00 50 48                  	addb	%dl, %cs:72(%rax)
  40243c: 41 53                        	pushq	%r11
  40243e: 45 20 34 20                  	andb	%r14b, (%r8,%riz)
  402442: 44 45                        	<unknown>
  402444: 46 55                        	pushq	%rbp
  402446: 53                           	pushq	%rbx
  402447: 45 44                        	<unknown>
  402449: 2e 00 50 48                  	addb	%dl, %cs:72(%rax)
  40244d: 41 53                        	pushq	%r11
  40244f: 45 20 35 20 44 45 46         	andb	%r14b, 1178944544(%rip)  # 46856876 <_end+0x46251736>
  402456: 55                           	pushq	%rbp
  402457: 53                           	pushq	%rbx
  402458: 45 44                        	<unknown>
  40245a: 2e 00 50 48                  	addb	%dl, %cs:72(%rax)
  40245e: 41 53                        	pushq	%r11
  402460: 45 20 36                     	andb	%r14b, (%r14)
  402463: 20 44 45 46                  	andb	%al, 70(%rbp,%rax,2)
  402467: 55                           	pushq	%rbp
  402468: 53                           	pushq	%rbx
  402469: 45 44                        	<unknown>
  40246b: 2e 00 50 48                  	addb	%dl, %cs:72(%rax)
  40246f: 41 53                        	pushq	%r11
  402471: 45 20 37                     	andb	%r14b, (%r15)
  402474: 20 44 45 46                  	andb	%al, 70(%rbp,%rax,2)
  402478: 55                           	pushq	%rbp
  402479: 53                           	pushq	%rbx
  40247a: 45 44                        	<unknown>
  40247c: 2e 00 25 64 20 25 63         	addb	%ah, %cs:1663377508(%rip)
  402483: 20 25 64 00 74 6f            	andb	%ah, 1869873252(%rip)  # 6fb424ed <_end+0x6f53d3ad>
  402489: 6d                           	insl	%dx, %es:(%rdi)
  40248a: 61                           	<unknown>
  40248b: 74 6f                        	je	0x4024fc <_IO_stdin_used+0x13c>
  40248d: 00 30                        	addb	%dh, (%rax)
  40248f: 31 32                        	xorl	%esi, (%rdx)
  402491: 33 34 35 36 37 38 39         	xorl	959985462(,%rsi), %esi
  402498: 00 43 6f                     	addb	%al, 111(%rbx)
  40249b: 6d                           	insl	%dx, %es:(%rdi)
  40249c: 50                           	pushq	%rax
  40249d: 55                           	pushq	%rbp
  40249e: 74 45                        	je	0x4024e5 <_IO_stdin_used+0x125>
  4024a0: 72 20                        	jb	0x4024c2 <_IO_stdin_used+0x102>
  4024a2: 4d 69 73 43 61 4c 43 75      	imulq	$1967344737, 67(%r11), %r14
  4024aa: 4c 61                        	<unknown>
  4024ac: 54                           	pushq	%rsp
  4024ad: 45 64                        	fs
  4024af: 20 25 75 0a 00 43            	andb	%ah, 1124076149(%rip)  # 43402f2a <_end+0x42dfddea>
  4024b5: 61                           	<unknown>
  4024b6: 6c                           	insb	%dx, %es:(%rdi)
  4024b7: 43 55                        	pushq	%r13
  4024b9: 6c                           	insb	%dx, %es:(%rdi)
  4024ba: 61                           	<unknown>
  4024bb: 54                           	pushq	%rsp
  4024bc: 69 4f 6e 20 54 6f 4f         	imull	$1332696096, 110(%rdi), %ecx
  4024c3: 20 73 49                     	andb	%dh, 73(%rbx)
  4024c6: 4d 50                        	pushq	%r8
  4024c8: 6c                           	insb	%dx, %es:(%rdi)
  4024c9: 65 00 6d 61                  	addb	%ch, %gs:97(%rbp)
  4024cd: 6e                           	outsb	(%rsi), %dx
  4024ce: 67 6f                        	outsl	(%esi), %dx
  4024d0: 00 6b 61                     	addb	%ch, 97(%rbx)
  4024d3: 6c                           	insb	%dx, %es:(%rdi)
  4024d4: 65 00 00                     	addb	%al, %gs:(%rax)
  4024d7: 00 49 20                     	addb	%cl, 32(%rcx)
  4024da: 73 74                        	jae	0x402550 <_IO_stdin_used+0x190>
  4024dc: 61                           	<unknown>
  4024dd: 6e                           	outsb	(%rsi), %dx
  4024de: 64 20 61 67                  	andb	%ah, %fs:103(%rcx)
  4024e2: 61                           	<unknown>
  4024e3: 69 6e 73 74 20 63 6f         	imull	$1868767348, 115(%rsi), %ebp
  4024ea: 6e                           	outsb	(%rsi), %dx
  4024eb: 66 69 73 63 61 74            	imulw	$29793, 99(%rbx), %si
  4024f1: 6f                           	outsl	(%rsi), %dx
  4024f2: 72 79                        	jb	0x40256d <_IO_stdin_used+0x1ad>
  4024f4: 20 74 61 78                  	andb	%dh, 120(%rcx,%riz,2)
  4024f8: 65 73 2c                     	jae	0x402527 <_IO_stdin_used+0x167>
  4024fb: 20 74 6f 74                  	andb	%dh, 116(%rdi,%rbp,2)
  4024ff: 61                           	<unknown>
  402500: 6c                           	insb	%dx, %es:(%rdi)
  402501: 69 74 61 72 69 61 6e 20      	imull	$544104809, 114(%rcx,%riz,2), %esi
  402509: 63 6f 6c                     	movslq	108(%rdi), %ebp
  40250c: 6c                           	insb	%dx, %es:(%rdi)
  40250d: 65 63 74 69 76               	movslq	%gs:118(%rcx,%rbp,2), %esi
  402512: 65 73 2c                     	jae	0x402541 <_IO_stdin_used+0x181>
  402515: 20 61 6e                     	andb	%ah, 110(%rcx)
  402518: 64 20 74 68 65               	andb	%dh, %fs:101(%rax,%rbp,2)
  40251d: 20 69 64                     	andb	%ch, 100(%rcx)
  402520: 65 6f                        	outsl	%gs:(%rsi), %dx
  402522: 6c                           	insb	%dx, %es:(%rdi)
  402523: 6f                           	outsl	(%rsi), %dx
  402524: 67 79 20                     	jns	0x402547 <_IO_stdin_used+0x187>
  402527: 6f                           	outsl	(%rsi), %dx
  402528: 66 20 74 68 65               	andb	%dh, 101(%rax,%rbp,2)
  40252d: 20 69 6e                     	andb	%ch, 110(%rcx)
  402530: 65 76 69                     	jbe	0x40259c <_IO_stdin_used+0x1dc>
  402533: 74 61                        	je	0x402596 <_IO_stdin_used+0x1d6>
  402535: 62                           	<unknown>
  402536: 69 6c 69 74 79 20 6f 66      	imull	$1718558841, 116(%rcx,%rbp,2), %ebp
  40253e: 20 74 68 65                  	andb	%dh, 101(%rax,%rbp,2)
  402542: 20 64 65 61                  	andb	%ah, 97(%rbp,%riz,2)
  402546: 74 68                        	je	0x4025b0 <CSWTCH.14+0x10>
  402548: 20 6f 66                     	andb	%ch, 102(%rdi)
  40254b: 20 65 76                     	andb	%ah, 118(%rbp)
  40254e: 65 72 79                     	jb	0x4025ca <CSWTCH.13+0xa>
  402551: 20 69 6e                     	andb	%ch, 110(%rcx)
  402554: 64 69 76 69 64 75 61 6c      	imull	$1818326372, %fs:105(%rsi), %esi
  40255c: 2e 00 00                     	addb	%al, %cs:(%rax)
  40255f: 00 57 6f                     	addb	%dl, 111(%rdi)
  402562: 77 21                        	ja	0x402585 <_IO_stdin_used+0x1c5>
  402564: 20 59 6f                     	andb	%bl, 111(%rcx)
  402567: 75 27                        	jne	0x402590 <_IO_stdin_used+0x1d0>
  402569: 76 65                        	jbe	0x4025d0 <CSWTCH.13+0x10>
  40256b: 20 64 65 66                  	andb	%ah, 102(%rbp,%riz,2)
  40256f: 75 73                        	jne	0x4025e4 <_ZL6ftable+0x4>
  402571: 65 64 20 74 68 65            	andb	%dh, %fs:101(%rax,%rbp,2)
  402577: 20 73 65                     	andb	%dh, 101(%rbx)
  40257a: 63 72 65                     	movslq	101(%rdx), %esi
  40257d: 74 20                        	je	0x40259f <_IO_stdin_used+0x1df>
  40257f: 73 74                        	jae	0x4025f5 <_ZL6ftable+0x15>
  402581: 61                           	<unknown>
  402582: 67 65 21 00                  	andl	%eax, %gs:(%eax)
		...
  40259e: 00 00                        	addb	%al, (%rax)

00000000004025a0 <CSWTCH.14>:
  4025a0: 69 77 71 73 75 66 71         	imull	$1902540147, 113(%rdi), %esi
  4025a7: 70 00                        	jo	0x4025a9 <CSWTCH.14+0x9>
		...
  4025bd: 00 00                        	addb	%al, (%rax)
  4025bf: 00 d2                        	addb	%dl, %dl

00000000004025c0 <CSWTCH.13>:
  4025c0: d2 02                        	rolb	%cl, (%rdx)
  4025c2: 00 00                        	addb	%al, (%rax)
  4025c4: 8b 00                        	movl	(%rax), %eax
  4025c6: 00 00                        	addb	%al, (%rax)
  4025c8: df 02                        	filds	(%rdx)
  4025ca: 00 00                        	addb	%al, (%rax)
  4025cc: 96                           	xchgl	%esi, %eax
  4025cd: 02 00                        	addb	(%rax), %al
  4025cf: 00 e4                        	addb	%ah, %ah
  4025d1: 02 00                        	addb	(%rax), %al
  4025d3: 00 0b                        	addb	%cl, (%rbx)
  4025d5: 02 00                        	addb	(%rax), %al
  4025d7: 00 72 00                     	addb	%dh, (%rdx)
  4025da: 00 00                        	addb	%al, (%rax)
  4025dc: e6 00                        	outb	%al, $0
  4025de: 00 00                        	addb	%al, (%rax)

00000000004025e0 <_ZL6ftable>:
  4025e0: 87 24 40                     	xchgl	%esp, (%rax,%rax,2)
  4025e3: 00 00                        	addb	%al, (%rax)
  4025e5: 00 00                        	addb	%al, (%rax)
  4025e7: 00 cb                        	addb	%cl, %bl
  4025e9: 24 40                        	andb	$64, %al
  4025eb: 00 00                        	addb	%al, (%rax)
  4025ed: 00 00                        	addb	%al, (%rax)
  4025ef: 00 d1                        	addb	%dl, %cl
  4025f1: 24 40                        	andb	$64, %al
  4025f3: 00 00                        	addb	%al, (%rax)
  4025f5: 00 00                        	addb	%al, (%rax)
  4025f7: 00 cb                        	addb	%cl, %bl
  4025f9: 24 40                        	andb	$64, %al
		...
  402607: 00 0a                        	addb	%cl, (%rdx)
  402609: 53                           	pushq	%rbx
  40260a: 6f                           	outsl	(%rsi), %dx
  40260b: 20 79 6f                     	andb	%bh, 111(%rcx)
  40260e: 75 20                        	jne	0x402630 <_ZL6ftable+0x50>
  402610: 74 68                        	je	0x40267a <_ZL6ftable+0x9a>
  402612: 69 6e 6b 20 79 6f 75         	imull	$1970239776, 107(%rsi), %ebp
  402619: 20 63 61                     	andb	%ah, 97(%rbx)
  40261c: 6e                           	outsb	(%rsi), %dx
  40261d: 20 73 74                     	andb	%dh, 116(%rbx)
  402620: 6f                           	outsl	(%rsi), %dx
  402621: 70 20                        	jo	0x402643 <_ZL6ftable+0x63>
  402623: 74 68                        	je	0x40268d <_ZL6ftable+0xad>
  402625: 65 20 62 6f                  	andb	%ah, %gs:111(%rdx)
  402629: 6d                           	insl	%dx, %es:(%rdi)
  40262a: 62 20 77 69                  	<unknown>
  40262e: 74 68                        	je	0x402698 <_ZL6ftable+0xb8>
  402630: 20 43 74                     	andb	%al, 116(%rbx)
  402633: 72 6c                        	jb	0x4026a1 <_ZL6ftable+0xc1>
  402635: 2d 43 2c 20 64               	subl	$1679830083, %eax
  40263a: 6f                           	outsl	(%rsi), %dx
  40263b: 20 79 6f                     	andb	%bh, 111(%rcx)
  40263e: 75 3f                        	jne	0x40267f <_ZL6ftable+0x9f>
  402640: 0a 00                        	orb	(%rax), %al
  402642: 00 00                        	addb	%al, (%rax)
  402644: 00 00                        	addb	%al, (%rax)
  402646: 00 00                        	addb	%al, (%rax)
  402648: 43 75 72                     	jne	0x4026bd <_ZL6ftable+0xdd>
  40264b: 73 65                        	jae	0x4026b2 <_ZL6ftable+0xd2>
  40264d: 73 2c                        	jae	0x40267b <_ZL6ftable+0x9b>
  40264f: 20 79 6f                     	andb	%bh, 111(%rcx)
  402652: 75 27                        	jne	0x40267b <_ZL6ftable+0x9b>
  402654: 76 65                        	jbe	0x4026bb <_ZL6ftable+0xdb>
  402656: 20 66 6f                     	andb	%ah, 111(%rsi)
  402659: 75 6e                        	jne	0x4026c9 <_ZL6ftable+0xe9>
  40265b: 64 20 74 68 65               	andb	%dh, %fs:101(%rax,%rbp,2)
  402660: 20 73 65                     	andb	%dh, 101(%rbx)
  402663: 63 72 65                     	movslq	101(%rdx), %esi
  402666: 74 20                        	je	0x402688 <_ZL6ftable+0xa8>
  402668: 70 68                        	jo	0x4026d2 <_ZL6ftable+0xf2>
  40266a: 61                           	<unknown>
  40266b: 73 65                        	jae	0x4026d2 <_ZL6ftable+0xf2>
  40266d: 21 00                        	andl	%eax, (%rax)
  40266f: 00 42 75                     	addb	%al, 117(%rdx)
  402672: 74 20                        	je	0x402694 <_ZL6ftable+0xb4>
  402674: 66 69 6e 64 69 6e            	imulw	$28265, 100(%rsi), %bp
  40267a: 67 20 69 74                  	andb	%ch, 116(%ecx)
  40267e: 20 61 6e                     	andb	%ah, 110(%rcx)
  402681: 64 20 73 6f                  	andb	%dh, %fs:111(%rbx)
  402685: 6c                           	insb	%dx, %es:(%rdi)
  402686: 76 69                        	jbe	0x4026f1 <_ZL6ftable+0x111>
  402688: 6e                           	outsb	(%rsi), %dx
  402689: 67 20 69 74                  	andb	%ch, 116(%ecx)
  40268d: 20 61 72                     	andb	%ah, 114(%rcx)
  402690: 65 20 71 75                  	andb	%dh, %gs:117(%rcx)
  402694: 69 74 65 20 64 69 66 66      	imull	$1717987684, 32(%rbp,%riz,2), %esi
  40269c: 65 72 65                     	jb	0x402704 <_ZL6ftable+0x124>
  40269f: 6e                           	outsb	(%rsi), %dx
  4026a0: 74 2e                        	je	0x4026d0 <_ZL6ftable+0xf0>
  4026a2: 2e 2e 00 00                  	addb	%al, %cs:(%rax)
  4026a6: 00 00                        	addb	%al, (%rax)
  4026a8: 43 6f                        	outsl	(%rsi), %dx
  4026aa: 6e                           	outsb	(%rsi), %dx
  4026ab: 67 72 61                     	jb	0x40270f <_ZL6ftable+0x12f>
  4026ae: 74 75                        	je	0x402725 <_ZL6ftable+0x145>
  4026b0: 6c                           	insb	%dx, %es:(%rdi)
  4026b1: 61                           	<unknown>
  4026b2: 74 69                        	je	0x40271d <_ZL6ftable+0x13d>
  4026b4: 6f                           	outsl	(%rsi), %dx
  4026b5: 6e                           	outsb	(%rsi), %dx
  4026b6: 73 21                        	jae	0x4026d9 <_ZL6ftable+0xf9>
  4026b8: 20 59 6f                     	andb	%bl, 111(%rcx)
  4026bb: 75 20                        	jne	0x4026dd <_ZL6ftable+0xfd>
  4026bd: 64 65 66 75 73               	jne	0x402735 <_ZL6ftable+0x155>
  4026c2: 65 64 20 74 68 65            	andb	%dh, %fs:101(%rax,%rbp,2)
  4026c8: 20 62 6f                     	andb	%ah, 111(%rdx)
  4026cb: 6d                           	insl	%dx, %es:(%rdi)
  4026cc: 62                           	<unknown>
  4026cd: 21 00                        	andl	%eax, (%rax)
  4026cf: 00 59 6f                     	addb	%bl, 111(%rcx)
  4026d2: 75 72                        	jne	0x402746 <_ZL6ftable+0x166>
  4026d4: 20 69 6e                     	andb	%ch, 110(%rcx)
  4026d7: 73 74                        	jae	0x40274d <_ZL6ftable+0x16d>
  4026d9: 72 75                        	jb	0x402750 <_ZL6ftable+0x170>
  4026db: 63 74 6f 72                  	movslq	114(%rdi,%rbp,2), %esi
  4026df: 20 68 61                     	andb	%ch, 97(%rax)
  4026e2: 73 20                        	jae	0x402704 <_ZL6ftable+0x124>
  4026e4: 62                           	<unknown>
  4026e5: 65 65 6e                     	outsb	%gs:(%rsi), %dx
  4026e8: 20 6e 6f                     	andb	%ch, 111(%rsi)
  4026eb: 74 69                        	je	0x402756 <_ZL6ftable+0x176>
  4026ed: 66 69 65 64 20 61            	imulw	$24864, 100(%rbp), %sp
  4026f3: 6e                           	outsb	(%rsi), %dx
  4026f4: 64 20 77 69                  	andb	%dh, %fs:105(%rdi)
  4026f8: 6c                           	insb	%dx, %es:(%rdi)
  4026f9: 6c                           	insb	%dx, %es:(%rdi)
  4026fa: 20 76 65                     	andb	%dh, 101(%rsi)
  4026fd: 72 69                        	jb	0x402768 <_ZL6ftable+0x188>
  4026ff: 66 79 20                     	jns	0x402722 <_ZL6ftable+0x142>
  402702: 79 6f                        	jns	0x402773 <_ZL6ftable+0x193>
  402704: 75 72                        	jne	0x402778 <_ZL6ftable+0x198>
  402706: 20 73 6f                     	andb	%dh, 111(%rbx)
  402709: 6c                           	insb	%dx, %es:(%rdi)
  40270a: 75 74                        	jne	0x402780 <_ZL6ftable+0x1a0>
  40270c: 69 6f 6e 2e 00 00 00         	imull	$46, 110(%rdi), %ebp
  402713: 00 00                        	addb	%al, (%rax)
  402715: 00 00                        	addb	%al, (%rax)
  402717: 00 6e 64                     	addb	%ch, 100(%rsi)
  40271a: 65 66 75 73                  	jne	0x402791 <_ZL6ftable+0x1b1>
  40271e: 65 64 20 3e                  	andb	%bh, %fs:(%rsi)
  402722: 3d 20 30 20 26               	cmpl	$639643680, %eax
  402727: 26 20 6e 64                  	andb	%ch, %es:100(%rsi)
  40272b: 65 66 75 73                  	jne	0x4027a2 <_ZL6ftable+0x1c2>
  40272f: 65 64 20 3c 20               	andb	%bh, %fs:(%rax,%riz)
  402734: 4d 41                        	<unknown>
  402736: 58                           	popq	%rax
  402737: 5f                           	popq	%rdi
  402738: 53                           	pushq	%rbx
  402739: 54                           	pushq	%rsp
  40273a: 52                           	pushq	%rdx
  40273b: 49 4e                        	<unknown>
  40273d: 47 53                        	pushq	%r11
  40273f: 00 45 52                     	addb	%al, 82(%rbp)
  402742: 52                           	pushq	%rdx
  402743: 4f 52                        	pushq	%r10
  402745: 3a 20                        	cmpb	(%rax), %ah
  402747: 49 6e                        	outsb	(%rsi), %dx
  402749: 70 75                        	jo	0x4027c0 <_ZL6ftable+0x1e0>
  40274b: 74 20                        	je	0x40276d <_ZL6ftable+0x18d>
  40274d: 73 74                        	jae	0x4027c3 <_ZL6ftable+0x1e3>
  40274f: 72 69                        	jb	0x4027ba <_ZL6ftable+0x1da>
  402751: 6e                           	outsb	(%rsi), %dx
  402752: 67 20 69 73                  	andb	%ch, 115(%ecx)
  402756: 20 74 6f 6f                  	andb	%dh, 111(%rdi,%rbp,2)
  40275a: 20 6c 61 72                  	andb	%ch, 114(%rcx,%riz,2)
  40275e: 67 65 2e 00 00               	addb	%al, %cs:(%eax)
  402763: 00 00                        	addb	%al, (%rax)
  402765: 00 00                        	addb	%al, (%rax)
  402767: 00 59 6f                     	addb	%bl, 111(%rcx)
  40276a: 75 72                        	jne	0x4027de <_ZL6ftable+0x1fe>
  40276c: 20 69 6e                     	andb	%ch, 110(%rcx)
  40276f: 73 74                        	jae	0x4027e5 <_ZL6ftable+0x205>
  402771: 72 75                        	jb	0x4027e8 <_ZL6ftable+0x208>
  402773: 63 74 6f 72                  	movslq	114(%rdi,%rbp,2), %esi
  402777: 20 68 61                     	andb	%ch, 97(%rax)
  40277a: 73 20                        	jae	0x40279c <_ZL6ftable+0x1bc>
  40277c: 62                           	<unknown>
  40277d: 65 65 6e                     	outsb	%gs:(%rsi), %dx
  402780: 20 6e 6f                     	andb	%ch, 111(%rsi)
  402783: 74 69                        	je	0x4027ee <_ZL6ftable+0x20e>
  402785: 66 69 65 64 2e 00            	imulw	$46, 100(%rbp), %sp
  40278b: 57                           	pushq	%rdi
  40278c: 65 6c                        	insb	%dx, %es:(%rdi)
  40278e: 6c                           	insb	%dx, %es:(%rdi)
  40278f: 2e 2e 2e 00 20               	addb	%ah, %cs:(%rax)
  402794: 4f 4b                        	<unknown>
  402796: 2e 20 3a                     	andb	%bh, %cs:(%rdx)
  402799: 29 0a                        	subl	%ecx, (%rdx)
  40279b: 00 25 73 20 25 73            	addb	%ah, 1931812979(%rip)  # 73654814 <_end+0x7304f6d4>
  4027a1: 20 25 73 20 25 73            	andb	%ah, 1931812979(%rip)  # 7365481a <_end+0x7304f6da>
  4027a7: 00 43 6f                     	addb	%al, 111(%rbx)
  4027aa: 73 6d                        	jae	0x402819 <_ZL6ftable+0x239>
  4027ac: 6f                           	outsl	(%rsi), %dx
  4027ad: 54                           	pushq	%rsp
  4027ae: 68 65 44 6f 67               	pushq	$1735345253
  4027b3: 00 49 6e                     	addb	%cl, 110(%rcx)
  4027b6: 76 61                        	jbe	0x402819 <_ZL6ftable+0x239>
  4027b8: 6c                           	insb	%dx, %es:(%rdi)
  4027b9: 69 64 20 70 68 61 73 65      	imull	$1702060392, 112(%rax,%riz), %esp
  4027c1: 25 73 0a 00 49               	andl	$1224739443, %eax
  4027c6: 6e                           	outsb	(%rsi), %dx
  4027c7: 69 74 69 61 6c 69 7a 61      	imull	$1635412332, 97(%rcx,%rbp,2), %esi
  4027cf: 74 69                        	je	0x40283a <_ZL6ftable+0x25a>
  4027d1: 6f                           	outsl	(%rsi), %dx
  4027d2: 6e                           	outsb	(%rsi), %dx
  4027d3: 20 65 72                     	andb	%ah, 114(%rbp)
  4027d6: 72 6f                        	jb	0x402847 <_ZL6ftable+0x267>
  4027d8: 72 3a                        	jb	0x402814 <_ZL6ftable+0x234>
  4027da: 0a 25 73 0a 00 63            	orb	1660947059(%rip), %ah  # 63403253 <_end+0x62dfe113>
  4027e0: 68 61 72 2a 20               	pushq	$539652705
  4027e5: 72 65                        	jb	0x40284c <_ZL6ftable+0x26c>
  4027e7: 61                           	<unknown>
  4027e8: 64 5f                        	popq	%rdi
  4027ea: 6c                           	insb	%dx, %es:(%rdi)
  4027eb: 69 6e 65 28 29 00 73         	imull	$1929390376, 101(%rsi), %ebp
  4027f2: 75 70                        	jne	0x402864 <_ZL6ftable+0x284>
  4027f4: 70 6f                        	jo	0x402865 <_ZL6ftable+0x285>
  4027f6: 72 74                        	jb	0x40286c <_ZL6ftable+0x28c>
  4027f8: 2e 63 63 00                  	movslq	%cs:(%rbx), %esp
  4027fc: 45 72 72                     	jb	0x402871 <_ZL6ftable+0x291>
  4027ff: 6f                           	outsl	(%rsi), %dx
  402800: 72 3a                        	jb	0x40283c <_ZL6ftable+0x25c>
  402802: 20 50 72                     	andb	%dl, 114(%rax)
  402805: 65 6d                        	insl	%dx, %es:(%rdi)
  402807: 61                           	<unknown>
  402808: 74 75                        	je	0x40287f <_ZL6ftable+0x29f>
  40280a: 72 65                        	jb	0x402871 <_ZL6ftable+0x291>
  40280c: 20 45 4f                     	andb	%al, 79(%rbp)
  40280f: 46 00 45 72                  	addb	%r8b, 114(%rbp)
  402813: 72 6f                        	jb	0x402884 <_ZL6ftable+0x2a4>
  402815: 72 3a                        	jb	0x402851 <_ZL6ftable+0x271>
  402817: 20 49 6e                     	andb	%cl, 110(%rcx)
  40281a: 70 75                        	jo	0x402891 <_ZL6ftable+0x2b1>
  40281c: 74 20                        	je	0x40283e <_ZL6ftable+0x25e>
  40281e: 6c                           	insb	%dx, %es:(%rdi)
  40281f: 69 6e 65 20 74 6f 6f         	imull	$1869575200, 101(%rsi), %ebp
  402826: 20 6c 6f 6e                  	andb	%ch, 110(%rdi,%rbp,2)
  40282a: 67 00 2a                     	addb	%ch, (%edx)
  40282d: 2a 20                        	subb	(%rax), %ah
  40282f: 74 72                        	je	0x4028a3 <_ZL6ftable+0x2c3>
  402831: 75 6e                        	jne	0x4028a1 <_ZL6ftable+0x2c1>
  402833: 63 61 74                     	movslq	116(%rcx), %esp
  402836: 65 64 20 6c 69 6e            	andb	%ch, %fs:110(%rcx,%rbp,2)
  40283c: 65 20 2a                     	andb	%ch, %gs:(%rdx)
  40283f: 2a 00                        	subb	(%rax), %al
  402841: 64 65 66 75 73               	jne	0x4028b9 <_ZL6ftable+0x2d9>
  402846: 65 64 00 65 78               	addb	%ah, %fs:120(%rbp)
  40284b: 70 6c                        	jo	0x4028b9 <_ZL6ftable+0x2d9>
  40284d: 6f                           	outsl	(%rsi), %dx
  40284e: 64 65 64 00 25 64 3a 25 73   	addb	%ah, %fs:1931819620(%rip)
  402857: 3a 25 64 3a 25 73            	cmpb	1931819620(%rip), %ah  # 736562c1 <_end+0x73051181>
  40285d: 00 0a                        	addb	%cl, (%rdx)
  40285f: 42 4f                        	<unknown>
  402861: 4f 4d                        	<unknown>
  402863: 21 21                        	andl	%esp, (%rcx)
  402865: 21 00                        	andl	%eax, (%rax)
  402867: 54                           	pushq	%rsp
  402868: 68 65 20 62 6f               	pushq	$1868701797
  40286d: 6d                           	insl	%dx, %es:(%rdi)
  40286e: 62                           	<unknown>
  40286f: 20 68 61                     	andb	%ch, 97(%rax)
  402872: 73 20                        	jae	0x402894 <_ZL6ftable+0x2b4>
  402874: 62                           	<unknown>
  402875: 6c                           	insb	%dx, %es:(%rdi)
  402876: 6f                           	outsl	(%rsi), %dx
  402877: 77 6e                        	ja	0x4028e7 <_ZL6ftable+0x307>
  402879: 20 75 70                     	andb	%dh, 112(%rbp)
  40287c: 2e 00 25 64 20 25 64         	addb	%ah, %cs:1680154724(%rip)
  402883: 20 25 64 20 25 64            	andb	%ah, 1680154724(%rip)  # 646548ed <_end+0x6404f7ad>
  402889: 20 25 64 20 25 64            	andb	%ah, 1680154724(%rip)  # 646548f3 <_end+0x6404f7b3>
  40288f: 00 50 72                     	addb	%dl, 114(%rax)
  402892: 6f                           	outsl	(%rsi), %dx
  402893: 67 72 61                     	jb	0x4028f7 <_ZL6ftable+0x317>
  402896: 6d                           	insl	%dx, %es:(%rdi)
  402897: 20 74 69 6d                  	andb	%dh, 109(%rcx,%rbp,2)
  40289b: 65 64 20 6f 75               	andb	%ch, %fs:117(%rdi)
  4028a0: 74 20                        	je	0x4028c2 <_ZL6ftable+0x2e2>
  4028a2: 61                           	<unknown>
  4028a3: 66 74 65                     	je	0x40290b <_ZL6ftable+0x32b>
  4028a6: 72 20                        	jb	0x4028c8 <_ZL6ftable+0x2e8>
  4028a8: 25 64 20 73 65               	andl	$1702043748, %eax
  4028ad: 63 6f 6e                     	movslq	110(%rdi), %ebp
  4028b0: 64 73 0a                     	jae	0x4028bd <_ZL6ftable+0x2dd>
  4028b3: 00 00                        	addb	%al, (%rax)
  4028b5: 00 00                        	addb	%al, (%rax)
  4028b7: 00 45 72                     	addb	%al, 114(%rbp)
  4028ba: 72 6f                        	jb	0x40292b <_ZL6ftable+0x34b>
  4028bc: 72 3a                        	jb	0x4028f8 <_ZL6ftable+0x318>
  4028be: 20 43 6c                     	andb	%al, 108(%rbx)
  4028c1: 69 65 6e 74 20 75 6e         	imull	$1853169780, 110(%rbp), %esp
  4028c8: 61                           	<unknown>
  4028c9: 62                           	<unknown>
  4028ca: 6c                           	insb	%dx, %es:(%rdi)
  4028cb: 65 20 74 6f 20               	andb	%dh, %gs:32(%rdi,%rbp,2)
  4028d0: 63 72 65                     	movslq	101(%rdx), %esi
  4028d3: 61                           	<unknown>
  4028d4: 74 65                        	je	0x40293b <_ZL6ftable+0x35b>
  4028d6: 20 73 6f                     	andb	%dh, 111(%rbx)
  4028d9: 63 6b 65                     	movslq	101(%rbx), %ebp
  4028dc: 74 00                        	je	0x4028de <_ZL6ftable+0x2fe>
  4028de: 00 00                        	addb	%al, (%rax)
  4028e0: 45 72 72                     	jb	0x402955 <_ZL6ftable+0x375>
  4028e3: 6f                           	outsl	(%rsi), %dx
  4028e4: 72 3a                        	jb	0x402920 <_ZL6ftable+0x340>
  4028e6: 20 44 4e 53                  	andb	%al, 83(%rsi,%rcx,2)
  4028ea: 20 69 73                     	andb	%ch, 115(%rcx)
  4028ed: 20 75 6e                     	andb	%dh, 110(%rbp)
  4028f0: 61                           	<unknown>
  4028f1: 62                           	<unknown>
  4028f2: 6c                           	insb	%dx, %es:(%rdi)
  4028f3: 65 20 74 6f 20               	andb	%dh, %gs:32(%rdi,%rbp,2)
  4028f8: 72 65                        	jb	0x40295f <_ZL6ftable+0x37f>
  4028fa: 73 6f                        	jae	0x40296b <_ZL6ftable+0x38b>
  4028fc: 6c                           	insb	%dx, %es:(%rdi)
  4028fd: 76 65                        	jbe	0x402964 <_ZL6ftable+0x384>
  4028ff: 20 73 65                     	andb	%dh, 101(%rbx)
  402902: 72 76                        	jb	0x40297a <_ZL6ftable+0x39a>
  402904: 65 72 20                     	jb	0x402927 <_ZL6ftable+0x347>
  402907: 61                           	<unknown>
  402908: 64 64 72 65                  	jb	0x402971 <_ZL6ftable+0x391>
  40290c: 73 73                        	jae	0x402981 <_ZL6ftable+0x3a1>
  40290e: 00 00                        	addb	%al, (%rax)
  402910: 45 72 72                     	jb	0x402985 <_ZL6ftable+0x3a5>
  402913: 6f                           	outsl	(%rsi), %dx
  402914: 72 3a                        	jb	0x402950 <_ZL6ftable+0x370>
  402916: 20 55 6e                     	andb	%dl, 110(%rbp)
  402919: 61                           	<unknown>
  40291a: 62                           	<unknown>
  40291b: 6c                           	insb	%dx, %es:(%rdi)
  40291c: 65 20 74 6f 20               	andb	%dh, %gs:32(%rdi,%rbp,2)
  402921: 63 6f 6e                     	movslq	110(%rdi), %ebp
  402924: 6e                           	outsb	(%rsi), %dx
  402925: 65 63 74 20 74               	movslq	%gs:116(%rax,%riz), %esi
  40292a: 6f                           	outsl	(%rsi), %dx
  40292b: 20 74 68 65                  	andb	%dh, 101(%rax,%rbp,2)
  40292f: 20 73 65                     	andb	%dh, 101(%rbx)
  402932: 72 76                        	jb	0x4029aa <_ZL6ftable+0x3ca>
  402934: 65 72 00                     	jb	0x402937 <_ZL6ftable+0x357>
  402937: 00 45 72                     	addb	%al, 114(%rbp)
  40293a: 72 6f                        	jb	0x4029ab <_ZL6ftable+0x3cb>
  40293c: 72 3a                        	jb	0x402978 <_ZL6ftable+0x398>
  40293e: 20 52 65                     	andb	%dl, 101(%rdx)
  402941: 73 75                        	jae	0x4029b8 <_ZL6ftable+0x3d8>
  402943: 6c                           	insb	%dx, %es:(%rdi)
  402944: 74 20                        	je	0x402966 <_ZL6ftable+0x386>
  402946: 73 74                        	jae	0x4029bc <_ZL6ftable+0x3dc>
  402948: 72 69                        	jb	0x4029b3 <_ZL6ftable+0x3d3>
  40294a: 6e                           	outsb	(%rsi), %dx
  40294b: 67 20 74 6f 6f               	andb	%dh, 111(%edi,%ebp,2)
  402950: 20 6c 61 72                  	andb	%ch, 114(%rcx,%riz,2)
  402954: 67 65 2e 20 49 6e            	andb	%cl, %cs:110(%ecx)
  40295a: 63 72 65                     	movslq	101(%rdx), %esi
  40295d: 61                           	<unknown>
  40295e: 73 65                        	jae	0x4029c5 <_ZL6ftable+0x3e5>
  402960: 20 53 55                     	andb	%dl, 85(%rbx)
  402963: 42 4d                        	<unknown>
  402965: 49 54                        	pushq	%r12
  402967: 52                           	pushq	%rdx
  402968: 5f                           	popq	%rdi
  402969: 4d 41                        	<unknown>
  40296b: 58                           	popq	%rax
  40296c: 42 55                        	pushq	%rbp
  40296e: 46 00 45 72                  	addb	%r8b, 114(%rbp)
  402972: 72 6f                        	jb	0x4029e3 <_ZL6ftable+0x403>
  402974: 72 3a                        	jb	0x4029b0 <_ZL6ftable+0x3d0>
  402976: 20 43 6c                     	andb	%al, 108(%rbx)
  402979: 69 65 6e 74 20 75 6e         	imull	$1853169780, 110(%rbp), %esp
  402980: 61                           	<unknown>
  402981: 62                           	<unknown>
  402982: 6c                           	insb	%dx, %es:(%rdi)
  402983: 65 20 74 6f 20               	andb	%dh, %gs:32(%rdi,%rbp,2)
  402988: 77 72                        	ja	0x4029fc <_ZL6ftable+0x41c>
  40298a: 69 74 65 20 74 6f 20 74      	imull	$1948282740, 32(%rbp,%riz,2), %esi
  402992: 68 65 20 73 65               	pushq	$1702043749
  402997: 72 76                        	jb	0x402a0f <_ZL6ftable+0x42f>
  402999: 65 72 00                     	jb	0x40299c <_ZL6ftable+0x3bc>
  40299c: 00 00                        	addb	%al, (%rax)
  40299e: 00 00                        	addb	%al, (%rax)
  4029a0: 45 72 72                     	jb	0x402a15 <_ZL6ftable+0x435>
  4029a3: 6f                           	outsl	(%rsi), %dx
  4029a4: 72 3a                        	jb	0x4029e0 <_ZL6ftable+0x400>
  4029a6: 20 43 6c                     	andb	%al, 108(%rbx)
  4029a9: 69 65 6e 74 20 75 6e         	imull	$1853169780, 110(%rbp), %esp
  4029b0: 61                           	<unknown>
  4029b1: 62                           	<unknown>
  4029b2: 6c                           	insb	%dx, %es:(%rdi)
  4029b3: 65 20 74 6f 20               	andb	%dh, %gs:32(%rdi,%rbp,2)
  4029b8: 72 65                        	jb	0x402a1f <_ZL6ftable+0x43f>
  4029ba: 61                           	<unknown>
  4029bb: 64 20 66 69                  	andb	%ah, %fs:105(%rsi)
  4029bf: 72 73                        	jb	0x402a34 <_ZL6ftable+0x454>
  4029c1: 74 20                        	je	0x4029e3 <_ZL6ftable+0x403>
  4029c3: 68 65 61 64 65               	pushq	$1701077349
  4029c8: 72 20                        	jb	0x4029ea <_ZL6ftable+0x40a>
  4029ca: 66 72 6f                     	jb	0x402a3c <_ZL6ftable+0x45c>
  4029cd: 6d                           	insl	%dx, %es:(%rdi)
  4029ce: 20 73 65                     	andb	%dh, 101(%rbx)
  4029d1: 72 76                        	jb	0x402a49 <_ZL6ftable+0x469>
  4029d3: 65 72 00                     	jb	0x4029d6 <_ZL6ftable+0x3f6>
  4029d6: 00 00                        	addb	%al, (%rax)
  4029d8: 45 72 72                     	jb	0x402a4d <_ZL6ftable+0x46d>
  4029db: 6f                           	outsl	(%rsi), %dx
  4029dc: 72 3a                        	jb	0x402a18 <_ZL6ftable+0x438>
  4029de: 20 48 54                     	andb	%cl, 84(%rax)
  4029e1: 54                           	pushq	%rsp
  4029e2: 50                           	pushq	%rax
  4029e3: 20 72 65                     	andb	%dh, 101(%rdx)
  4029e6: 71 75                        	jno	0x402a5d <_ZL6ftable+0x47d>
  4029e8: 65 73 74                     	jae	0x402a5f <_ZL6ftable+0x47f>
  4029eb: 20 66 61                     	andb	%ah, 97(%rsi)
  4029ee: 69 6c 65 64 20 77 69 74      	imull	$1953068832, 100(%rbp,%riz,2), %ebp
  4029f6: 68 20 65 72 72               	pushq	$1920099616
  4029fb: 6f                           	outsl	(%rsi), %dx
  4029fc: 72 20                        	jb	0x402a1e <_ZL6ftable+0x43e>
  4029fe: 25 64 3a 20 25               	andl	$622869092, %eax
  402a03: 73 00                        	jae	0x402a05 <_ZL6ftable+0x425>
  402a05: 00 00                        	addb	%al, (%rax)
  402a07: 00 45 72                     	addb	%al, 114(%rbp)
  402a0a: 72 6f                        	jb	0x402a7b <_ZL6ftable+0x49b>
  402a0c: 72 3a                        	jb	0x402a48 <_ZL6ftable+0x468>
  402a0e: 20 43 6c                     	andb	%al, 108(%rbx)
  402a11: 69 65 6e 74 20 75 6e         	imull	$1853169780, 110(%rbp), %esp
  402a18: 61                           	<unknown>
  402a19: 62                           	<unknown>
  402a1a: 6c                           	insb	%dx, %es:(%rdi)
  402a1b: 65 20 74 6f 20               	andb	%dh, %gs:32(%rdi,%rbp,2)
  402a20: 72 65                        	jb	0x402a87 <_ZL6ftable+0x4a7>
  402a22: 61                           	<unknown>
  402a23: 64 20 68 65                  	andb	%ch, %fs:101(%rax)
  402a27: 61                           	<unknown>
  402a28: 64 65 72 73                  	jb	0x402a9f <_ZL6ftable+0x4bf>
  402a2c: 20 66 72                     	andb	%ah, 114(%rsi)
  402a2f: 6f                           	outsl	(%rsi), %dx
  402a30: 6d                           	insl	%dx, %es:(%rdi)
  402a31: 20 73 65                     	andb	%dh, 101(%rbx)
  402a34: 72 76                        	jb	0x402aac <_ZL6ftable+0x4cc>
  402a36: 65 72 00                     	jb	0x402a39 <_ZL6ftable+0x459>
  402a39: 00 00                        	addb	%al, (%rax)
  402a3b: 00 00                        	addb	%al, (%rax)
  402a3d: 00 00                        	addb	%al, (%rax)
  402a3f: 00 45 72                     	addb	%al, 114(%rbp)
  402a42: 72 6f                        	jb	0x402ab3 <_ZL6ftable+0x4d3>
  402a44: 72 3a                        	jb	0x402a80 <_ZL6ftable+0x4a0>
  402a46: 20 43 6c                     	andb	%al, 108(%rbx)
  402a49: 69 65 6e 74 20 75 6e         	imull	$1853169780, 110(%rbp), %esp
  402a50: 61                           	<unknown>
  402a51: 62                           	<unknown>
  402a52: 6c                           	insb	%dx, %es:(%rdi)
  402a53: 65 20 74 6f 20               	andb	%dh, %gs:32(%rdi,%rbp,2)
  402a58: 72 65                        	jb	0x402abf <_ZL6ftable+0x4df>
  402a5a: 61                           	<unknown>
  402a5b: 64 20 73 74                  	andb	%dh, %fs:116(%rbx)
  402a5f: 61                           	<unknown>
  402a60: 74 75                        	je	0x402ad7 <_ZL6ftable+0x4f7>
  402a62: 73 20                        	jae	0x402a84 <_ZL6ftable+0x4a4>
  402a64: 6d                           	insl	%dx, %es:(%rdi)
  402a65: 65 73 73                     	jae	0x402adb <_ZL6ftable+0x4fb>
  402a68: 61                           	<unknown>
  402a69: 67 65 20 66 72               	andb	%ah, %gs:114(%esi)
  402a6e: 6f                           	outsl	(%rsi), %dx
  402a6f: 6d                           	insl	%dx, %es:(%rdi)
  402a70: 20 73 65                     	andb	%dh, 101(%rbx)
  402a73: 72 76                        	jb	0x402aeb <_ZL6ftable+0x50b>
  402a75: 65 72 00                     	jb	0x402a78 <_ZL6ftable+0x498>
  402a78: 45 72 72                     	jb	0x402aed <_ZL6ftable+0x50d>
  402a7b: 6f                           	outsl	(%rsi), %dx
  402a7c: 72 3a                        	jb	0x402ab8 <_ZL6ftable+0x4d8>
  402a7e: 20 52 65                     	andb	%dl, 101(%rdx)
  402a81: 73 75                        	jae	0x402af8 <_ZL6ftable+0x518>
  402a83: 6c                           	insb	%dx, %es:(%rdi)
  402a84: 74 20                        	je	0x402aa6 <_ZL6ftable+0x4c6>
  402a86: 73 74                        	jae	0x402afc <_ZL6ftable+0x51c>
  402a88: 72 69                        	jb	0x402af3 <_ZL6ftable+0x513>
  402a8a: 6e                           	outsb	(%rsi), %dx
  402a8b: 67 20 63 6f                  	andb	%ah, 111(%ebx)
  402a8f: 6e                           	outsb	(%rsi), %dx
  402a90: 74 61                        	je	0x402af3 <_ZL6ftable+0x513>
  402a92: 69 6e 73 20 61 6e 20         	imull	$544104736, 115(%rsi), %ebp
  402a99: 69 6c 6c 65 67 61 6c 20      	imull	$543973735, 101(%rsp,%rbp,2), %ebp
  402aa1: 6f                           	outsl	(%rsi), %dx
  402aa2: 72 20                        	jb	0x402ac4 <_ZL6ftable+0x4e4>
  402aa4: 75 6e                        	jne	0x402b14 <_ZL6ftable+0x534>
  402aa6: 70 72                        	jo	0x402b1a <_ZL6ftable+0x53a>
  402aa8: 69 6e 74 61 62 6c 65         	imull	$1701601889, 116(%rsi), %ebp
  402aaf: 20 63 68                     	andb	%ah, 104(%rbx)
  402ab2: 61                           	<unknown>
  402ab3: 72 61                        	jb	0x402b16 <_ZL6ftable+0x536>
  402ab5: 63 74 65 72                  	movslq	114(%rbp,%riz,2), %esi
  402ab9: 2e 00 00                     	addb	%al, %cs:(%rax)
  402abc: 00 00                        	addb	%al, (%rax)
  402abe: 00 00                        	addb	%al, (%rax)
  402ac0: 47 45                        	<unknown>
  402ac2: 54                           	pushq	%rsp
  402ac3: 20 2f                        	andb	%ch, (%rdi)
  402ac5: 25 73 2f 73 75               	andl	$1970483059, %eax
  402aca: 62                           	<unknown>
  402acb: 6d                           	insl	%dx, %es:(%rdi)
  402acc: 69 74 72 2e 70 6c 2f 3f      	imull	$1060072560, 46(%rdx,%rsi,2), %esi
  402ad4: 75 73                        	jne	0x402b49 <_ZL6ftable+0x569>
  402ad6: 65 72 69                     	jb	0x402b42 <_ZL6ftable+0x562>
  402ad9: 64 3d 25 73 26 75            	cmpl	$1965454117, %eax
  402adf: 73 65                        	jae	0x402b46 <_ZL6ftable+0x566>
  402ae1: 72 70                        	jb	0x402b53 <_ZL6ftable+0x573>
  402ae3: 77 64                        	ja	0x402b49 <_ZL6ftable+0x569>
  402ae5: 3d 25 73 26 6c               	cmpl	$1814459173, %eax
  402aea: 61                           	<unknown>
  402aeb: 62                           	<unknown>
  402aec: 3d 25 73 26 72               	cmpl	$1915122469, %eax
  402af1: 65 73 75                     	jae	0x402b69 <_ZL6ftable+0x589>
  402af4: 6c                           	insb	%dx, %es:(%rdi)
  402af5: 74 3d                        	je	0x402b34 <_ZL6ftable+0x554>
  402af7: 25 73 26 73 75               	andl	$1970480755, %eax
  402afc: 62                           	<unknown>
  402afd: 6d                           	insl	%dx, %es:(%rdi)
  402afe: 69 74 3d 73 75 62 6d 69      	imull	$1768776309, 115(%rbp,%rdi), %esi
  402b06: 74 20                        	je	0x402b28 <_ZL6ftable+0x548>
  402b08: 48 54                        	pushq	%rsp
  402b0a: 54                           	pushq	%rsp
  402b0b: 50                           	pushq	%rax
  402b0c: 2f                           	<unknown>
  402b0d: 31 2e                        	xorl	%ebp, (%rsi)
  402b0f: 30 0d 0a 0d 0a 00            	xorb	%cl, 658698(%rip)  # 4a381f <__FRAME_END__+0xa0573>
  402b15: 00 00                        	addb	%al, (%rax)
  402b17: 00 45 72                     	addb	%al, 114(%rbp)
  402b1a: 72 6f                        	jb	0x402b8b <_ZL6ftable+0x5ab>
  402b1c: 72 3a                        	jb	0x402b58 <_ZL6ftable+0x578>
  402b1e: 20 55 6e                     	andb	%dl, 110(%rbp)
  402b21: 61                           	<unknown>
  402b22: 62                           	<unknown>
  402b23: 6c                           	insb	%dx, %es:(%rdi)
  402b24: 65 20 74 6f 20               	andb	%dh, %gs:32(%rdi,%rbp,2)
  402b29: 63 6f 6e                     	movslq	110(%rdi), %ebp
  402b2c: 6e                           	outsb	(%rsi), %dx
  402b2d: 65 63 74 20 74               	movslq	%gs:116(%rax,%riz), %esi
  402b32: 6f                           	outsl	(%rsi), %dx
  402b33: 20 73 65                     	andb	%dh, 101(%rbx)
  402b36: 72 76                        	jb	0x402bae <__GNU_EH_FRAME_HDR+0x12>
  402b38: 65 72 20                     	jb	0x402b5b <_ZL6ftable+0x57b>
  402b3b: 25 73 00 00 00               	andl	$115, %eax
  402b40: 25 25 25 30 32               	andl	$842016037, %eax
  402b45: 58                           	popq	%rax
  402b46: 00 25 73 20 25 64            	addb	%ah, 1680154739(%rip)  # 64654bbf <_end+0x6404fa7f>
  402b4c: 20 25 5b 61 2d 7a            	andb	%ah, 2049794395(%rip)  # 7a6d8cad <_end+0x7a0d3b6d>
  402b52: 41 2d 7a 20 5d 00            	subl	$6103162, %eax
  402b58: 0d 0a 00 4f 4b               	orl	$1263468554, %eax
  402b5d: 00 63 73                     	addb	%ah, 115(%rbx)
  402b60: 36 31 2e                     	xorl	%ebp, %ss:(%rsi)
  402b63: 73 65                        	jae	0x402bca <__GNU_EH_FRAME_HDR+0x2e>
  402b65: 61                           	<unknown>
  402b66: 73 2e                        	jae	0x402b96 <_ZL6ftable+0x5b6>
  402b68: 68 61 72 76 61               	pushq	$1635152481
  402b6d: 72 64                        	jb	0x402bd3 <__GNU_EH_FRAME_HDR+0x37>
  402b6f: 2e 65 64 75 00               	jne	0x402b74 <_ZL6ftable+0x594>
  402b74: 0a 41 55                     	orb	85(%rcx), %al
  402b77: 54                           	pushq	%rsp
  402b78: 4f 52                        	pushq	%r10
  402b7a: 45 53                        	pushq	%r11
  402b7c: 55                           	pushq	%rbp
  402b7d: 4c 54                        	pushq	%rsp
  402b7f: 5f                           	popq	%rdi
  402b80: 53                           	pushq	%rbx
  402b81: 54                           	pushq	%rsp
  402b82: 52                           	pushq	%rdx
  402b83: 49 4e                        	<unknown>
  402b85: 47 3d 25 73 0a 00            	cmpl	$684837, %eax
  402b8b: 66 32 30                     	xorb	(%rax), %dh
  402b8e: 2d 70 73 65 74               	subl	$1952805744, %eax
  402b93: 32 00                        	xorb	(%rax), %al
  402b95: 63 73 61                     	movslq	97(%rbx), %esi
  402b98: 70 70                        	jo	0x402c0a <__GNU_EH_FRAME_HDR+0x6e>
  402b9a: 00                           	<unknown>

Disassembly of section .eh_frame_hdr:

0000000000402b9c <__GNU_EH_FRAME_HDR>:
  402b9c: 01 1b                        	addl	%ebx, (%rbx)
  402b9e: 03 3b                        	addl	(%rbx), %edi
  402ba0: 48 01 00                     	addq	%rax, (%rax)
  402ba3: 00 28                        	addb	%ch, (%rax)
  402ba5: 00 00                        	addb	%al, (%rax)
  402ba7: 00 24 e0                     	addb	%ah, (%rax,%riz,8)
  402baa: ff ff                        	<unknown>
  402bac: 94                           	xchgl	%esp, %eax
  402bad: 01 00                        	addl	%eax, (%rax)
  402baf: 00 34 e2                     	addb	%dh, (%rdx,%riz,8)
  402bb2: ff ff                        	<unknown>
  402bb4: bc 01 00 00 94               	movl	$2483027969, %esp
  402bb9: e3 ff                        	jrcxz	0x402bba <__GNU_EH_FRAME_HDR+0x1e>
  402bbb: ff e4                        	jmpq	*%rsp
  402bbd: 01 00                        	addl	%eax, (%rax)
  402bbf: 00 a4 e3 ff ff 64 01         	addb	%ah, 23396351(%rbx,%riz,8)
  402bc6: 00 00                        	addb	%al, (%rax)
  402bc8: 84 e4                        	testb	%ah, %ah
  402bca: ff ff                        	<unknown>
  402bcc: fc                           	cld
  402bcd: 01 00                        	addl	%eax, (%rax)
  402bcf: 00 b4 e4 ff ff 1c 02         	addb	%dh, 35454975(%rsp,%riz,8)
  402bd6: 00 00                        	addb	%al, (%rax)
  402bd8: f4                           	hlt
  402bd9: e4 ff                        	inb	$255, %al
  402bdb: ff 3c 02                     	<unknown>
  402bde: 00 00                        	addb	%al, (%rax)
  402be0: 44 e5 ff                     	inl	$255, %eax
  402be3: ff 5c 02 00                  	lcalll	*(%rdx,%rax)
  402be7: 00 64 e5 ff                  	addb	%ah, -1(%rbp,%riz,8)
  402beb: ff 7c 02 00                  	<unknown>
  402bef: 00 b4 e5 ff ff a8 02         	addb	%dh, 44630015(%rbp,%riz,8)
  402bf6: 00 00                        	addb	%al, (%rax)
  402bf8: 14 e6                        	adcb	$-26, %al
  402bfa: ff ff                        	<unknown>
  402bfc: bc 02 00 00 84               	movl	$2214592514, %esp
  402c01: e6 ff                        	outb	%al, $255
  402c03: ff ec                        	<unknown>
  402c05: 02 00                        	addb	(%rax), %al
  402c07: 00 a4 e7 ff ff 10 03         	addb	%ah, 51445759(%rdi,%riz,8)
  402c0e: 00 00                        	addb	%al, (%rax)
  402c10: 04 e8                        	addb	$-24, %al
  402c12: ff ff                        	<unknown>
  402c14: 38 03                        	cmpb	%al, (%rbx)
  402c16: 00 00                        	addb	%al, (%rax)
  402c18: 54                           	pushq	%rsp
  402c19: e8 ff ff 5c 03               	callq	0x39d2c1d <_end+0x33cdadd>
  402c1e: 00 00                        	addb	%al, (%rax)
  402c20: 24 e9                        	andb	$-23, %al
  402c22: ff ff                        	<unknown>
  402c24: 88 03                        	movb	%al, (%rbx)
  402c26: 00 00                        	addb	%al, (%rax)
  402c28: 94                           	xchgl	%esp, %eax
  402c29: e9 ff ff a8 03               	jmp	0x3e92c2d <_end+0x388daed>
  402c2e: 00 00                        	addb	%al, (%rax)
  402c30: 84 ea                        	testb	%ch, %dl
  402c32: ff ff                        	<unknown>
  402c34: cc                           	int3
  402c35: 03 00                        	addl	(%rax), %eax
  402c37: 00 c4                        	addb	%al, %ah
  402c39: ea                           	<unknown>
  402c3a: ff ff                        	<unknown>
  402c3c: f4                           	hlt
  402c3d: 03 00                        	addl	(%rax), %eax
  402c3f: 00 34 eb                     	addb	%dh, (%rbx,%rbp,8)
  402c42: ff ff                        	<unknown>
  402c44: 1c 04                        	sbbb	$4, %al
  402c46: 00 00                        	addb	%al, (%rax)
  402c48: 94                           	xchgl	%esp, %eax
  402c49: eb ff                        	jmp	0x402c4a <__GNU_EH_FRAME_HDR+0xae>
  402c4b: ff 38                        	<unknown>
  402c4d: 04 00                        	addb	$0, %al
  402c4f: 00 14 ec                     	addb	%dl, (%rsp,%rbp,8)
  402c52: ff ff                        	<unknown>
  402c54: 58                           	popq	%rax
  402c55: 04 00                        	addb	$0, %al
  402c57: 00 34 ec                     	addb	%dh, (%rsp,%rbp,8)
  402c5a: ff ff                        	<unknown>
  402c5c: 6c                           	insb	%dx, %es:(%rdi)
  402c5d: 04 00                        	addb	$0, %al
  402c5f: 00 54 ec ff                  	addb	%dl, -1(%rsp,%rbp,8)
  402c63: ff 88 04 00 00 04            	decl	67108868(%rax)
  402c69: ed                           	inl	%dx, %eax
  402c6a: ff ff                        	<unknown>
  402c6c: ac                           	lodsb	(%rsi), %al
  402c6d: 04 00                        	addb	$0, %al
  402c6f: 00 14 ed ff ff c0 04         	addb	%dl, 79757311(,%rbp,8)
  402c76: 00 00                        	addb	%al, (%rax)
  402c78: 44 ed                        	inl	%dx, %eax
  402c7a: ff ff                        	<unknown>
  402c7c: e0 04                        	loopne	0x402c82 <__GNU_EH_FRAME_HDR+0xe6>
  402c7e: 00 00                        	addb	%al, (%rax)
  402c80: 74 ee                        	je	0x402c70 <__GNU_EH_FRAME_HDR+0xd4>
  402c82: ff ff                        	<unknown>
  402c84: 08 05 00 00 34 ef            	orb	%al, -281804800(%rip)  # ffffffffef742c8a <_end+0xffffffffef13db4a>
  402c8a: ff ff                        	<unknown>
  402c8c: 2c 05                        	subb	$5, %al
  402c8e: 00 00                        	addb	%al, (%rax)
  402c90: 74 ef                        	je	0x402c81 <__GNU_EH_FRAME_HDR+0xe5>
  402c92: ff ff                        	<unknown>
  402c94: 48 05 00 00 b4 ef            	addq	$-273416192, %rax
  402c9a: ff ff                        	<unknown>
  402c9c: 68 05 00 00 d4               	pushq	$-738197499
  402ca1: ef                           	outl	%eax, %dx
  402ca2: ff ff                        	<unknown>
  402ca4: 8c 05 00 00 04 f0            	movw	%es, -268173312(%rip)  # fffffffff0442caa <_end+0xffffffffefe3db6a>
  402caa: ff ff                        	<unknown>
  402cac: a8 05                        	testb	$5, %al
  402cae: 00 00                        	addb	%al, (%rax)
  402cb0: e4 f0                        	inb	$240, %al
  402cb2: ff ff                        	<unknown>
  402cb4: e0 05                        	loopne	0x402cbb <__GNU_EH_FRAME_HDR+0x11f>
  402cb6: 00 00                        	addb	%al, (%rax)
  402cb8: 64 f5                        	cmc
  402cba: ff ff                        	<unknown>
  402cbc: 18 06                        	sbbb	%al, (%rsi)
  402cbe: 00 00                        	addb	%al, (%rax)
  402cc0: a4                           	movsb	(%rsi), %es:(%rdi)
  402cc1: f5                           	cmc
  402cc2: ff ff                        	<unknown>
  402cc4: 3c 06                        	cmpb	$6, %al
  402cc6: 00 00                        	addb	%al, (%rax)
  402cc8: c4 f6 ff                     	<unknown>
  402ccb: ff 64 06 00                  	jmpq	*(%rsi,%rax)
  402ccf: 00 84 f7 ff ff 9c 06         	addb	%al, 110952447(%rdi,%rsi,8)
  402cd6: 00 00                        	addb	%al, (%rax)
  402cd8: e4 f7                        	inb	$247, %al
  402cda: ff ff                        	<unknown>
  402cdc: e4 06                        	inb	$6, %al
  402cde: 00 00                        	addb	%al, (%rax)
  402ce0: f4                           	hlt
  402ce1: f7 ff                        	idivl	%edi
  402ce3: ff fc                        	<unknown>
  402ce5: 06                           	<unknown>
  402ce6: 00 00                        	addb	%al, (%rax)

Disassembly of section .eh_frame:

0000000000402ce8 <.eh_frame>:
  402ce8: 14 00                        	adcb	$0, %al
  402cea: 00 00                        	addb	%al, (%rax)
  402cec: 00 00                        	addb	%al, (%rax)
  402cee: 00 00                        	addb	%al, (%rax)
  402cf0: 01 7a 52                     	addl	%edi, 82(%rdx)
  402cf3: 00 01                        	addb	%al, (%rcx)
  402cf5: 78 10                        	js	0x402d07 <.eh_frame+0x1f>
  402cf7: 01 1b                        	addl	%ebx, (%rbx)
  402cf9: 0c 07                        	orb	$7, %al
  402cfb: 08 90 01 07 10 14            	orb	%dl, 336594689(%rax)
  402d01: 00 00                        	addb	%al, (%rax)
  402d03: 00 1c 00                     	addb	%bl, (%rax,%rax)
  402d06: 00 00                        	addb	%al, (%rax)
  402d08: 38 e2                        	cmpb	%ah, %dl
  402d0a: ff ff                        	<unknown>
  402d0c: 2b 00                        	subl	(%rax), %eax
		...
  402d16: 00 00                        	addb	%al, (%rax)
  402d18: 14 00                        	adcb	$0, %al
  402d1a: 00 00                        	addb	%al, (%rax)
  402d1c: 00 00                        	addb	%al, (%rax)
  402d1e: 00 00                        	addb	%al, (%rax)
  402d20: 01 7a 52                     	addl	%edi, 82(%rdx)
  402d23: 00 01                        	addb	%al, (%rcx)
  402d25: 78 10                        	js	0x402d37 <.eh_frame+0x4f>
  402d27: 01 1b                        	addl	%ebx, (%rbx)
  402d29: 0c 07                        	orb	$7, %al
  402d2b: 08 90 01 00 00 24            	orb	%dl, 603979777(%rax)
  402d31: 00 00                        	addb	%al, (%rax)
  402d33: 00 1c 00                     	addb	%bl, (%rax,%rax)
  402d36: 00 00                        	addb	%al, (%rax)
  402d38: 88 de                        	movb	%bl, %dh
  402d3a: ff ff                        	<unknown>
  402d3c: 10 02                        	adcb	%al, (%rdx)
  402d3e: 00 00                        	addb	%al, (%rax)
  402d40: 00 0e                        	addb	%cl, (%rsi)
  402d42: 10 46 0e                     	adcb	%al, 14(%rsi)
  402d45: 18 4a 0f                     	sbbb	%cl, 15(%rdx)
  402d48: 0b 77 08                     	orl	8(%rdi), %esi
  402d4b: 80 00 3f                     	addb	$63, (%rax)
  402d4e: 1a 3b                        	sbbb	(%rbx), %bh
  402d50: 2a 33                        	subb	(%rbx), %dh
  402d52: 24 22                        	andb	$34, %al
  402d54: 00 00                        	addb	%al, (%rax)
  402d56: 00 00                        	addb	%al, (%rax)
  402d58: 24 00                        	andb	$0, %al
  402d5a: 00 00                        	addb	%al, (%rax)
  402d5c: 44 00 00                     	addb	%r8b, (%rax)
  402d5f: 00 70 e0                     	addb	%dh, -32(%rax)
  402d62: ff ff                        	<unknown>
  402d64: 5d                           	popq	%rbp
  402d65: 01 00                        	addl	%eax, (%rax)
  402d67: 00 00                        	addb	%al, (%rax)
  402d69: 41 0e                        	<unknown>
  402d6b: 10 86 02 43 0d 06            	adcb	%al, 101532418(%rsi)
  402d71: 43 8c 03                     	movw	%es, (%r11)
  402d74: 83 04 02 eb                  	addl	$-21, (%rdx,%rax)
  402d78: 0a 0c 07                     	orb	(%rdi,%rax), %cl
  402d7b: 08 41 0b                     	orb	%al, 11(%rcx)
  402d7e: 00 00                        	addb	%al, (%rax)
  402d80: 14 00                        	adcb	$0, %al
  402d82: 00 00                        	addb	%al, (%rax)
  402d84: 6c                           	insb	%dx, %es:(%rdi)
  402d85: 00 00                        	addb	%al, (%rax)
  402d87: 00 a8 e1 ff ff 0f            	addb	%ch, 268435425(%rax)
		...
  402d95: 00 00                        	addb	%al, (%rax)
  402d97: 00 1c 00                     	addb	%bl, (%rax,%rax)
  402d9a: 00 00                        	addb	%al, (%rax)
  402d9c: 84 00                        	testb	%al, (%rax)
  402d9e: 00 00                        	addb	%al, (%rax)
  402da0: 80 e2 ff                     	andb	$-1, %dl
  402da3: ff 25 00 00 00 00            	jmpq	*(%rip)  # 402da9 <.eh_frame+0xc1>
  402da9: 41 0e                        	<unknown>
  402dab: 10 86 02 45 0d 06            	adcb	%al, 101532930(%rsi)
  402db1: 56                           	pushq	%rsi
  402db2: 0a 0c 07                     	orb	(%rdi,%rax), %cl
  402db5: 08 44 0b 1c                  	orb	%al, 28(%rbx,%rcx)
  402db9: 00 00                        	addb	%al, (%rax)
  402dbb: 00 a4 00 00 00 90 e2         	addb	%ah, -493879296(%rax,%rax)
  402dc2: ff ff                        	<unknown>
  402dc4: 3d 00 00 00 00               	cmpl	$0, %eax
  402dc9: 41 0e                        	<unknown>
  402dcb: 10 86 02 43 0d 06            	adcb	%al, 101532418(%rsi)
  402dd1: 73 0a                        	jae	0x402ddd <.eh_frame+0xf5>
  402dd3: 0c 07                        	orb	$7, %al
  402dd5: 08 41 0b                     	orb	%al, 11(%rcx)
  402dd8: 1c 00                        	sbbb	$0, %al
  402dda: 00 00                        	addb	%al, (%rax)
  402ddc: c4 00 00                     	<unknown>
  402ddf: 00 b0 e2 ff ff 4c            	addb	%dh, 1291845602(%rax)
  402de5: 00 00                        	addb	%al, (%rax)
  402de7: 00 00                        	addb	%al, (%rax)
  402de9: 41 0e                        	<unknown>
  402deb: 10 86 02 4a 0d 06            	adcb	%al, 101534210(%rsi)
  402df1: 7b 0a                        	jnp	0x402dfd <.eh_frame+0x115>
  402df3: 0c 07                        	orb	$7, %al
  402df5: 08 41 0b                     	orb	%al, 11(%rcx)
  402df8: 1c 00                        	sbbb	$0, %al
  402dfa: 00 00                        	addb	%al, (%rax)
  402dfc: e4 00                        	inb	$0, %al
  402dfe: 00 00                        	addb	%al, (%rax)
  402e00: e0 e2                        	loopne	0x402de4 <.eh_frame+0xfc>
  402e02: ff ff                        	<unknown>
  402e04: 19 00                        	sbbl	%eax, (%rax)
  402e06: 00 00                        	addb	%al, (%rax)
  402e08: 00 41 0e                     	addb	%al, 14(%rcx)
  402e0b: 10 86 02 48 0d 06            	adcb	%al, 101533698(%rsi)
  402e11: 4a 0a 0c 07                  	orb	(%rdi,%r8), %cl
  402e15: 08 41 0b                     	orb	%al, 11(%rcx)
  402e18: 28 00                        	subb	%al, (%rax)
  402e1a: 00 00                        	addb	%al, (%rax)
  402e1c: 04 01                        	addb	$1, %al
  402e1e: 00 00                        	addb	%al, (%rax)
  402e20: e0 e2                        	loopne	0x402e04 <.eh_frame+0x11c>
  402e22: ff ff                        	<unknown>
  402e24: 4f 00 00                     	addb	%r8b, (%r8)
  402e27: 00 00                        	addb	%al, (%rax)
  402e29: 41 0e                        	<unknown>
  402e2b: 10 86 02 43 0d 06            	adcb	%al, 101532418(%rsi)
  402e31: 42 8c 03                     	movw	%es, (%rbx)
  402e34: 49 83 04 73 0a               	addq	$10, (%r11,%rsi,2)
  402e39: 0c 07                        	orb	$7, %al
  402e3b: 08 46 0b                     	orb	%al, 11(%rsi)
  402e3e: 46 0c 07                     	orb	$7, %al
  402e41: 08 00                        	orb	%al, (%rax)
  402e43: 00 10                        	addb	%dl, (%rax)
  402e45: 00 00                        	addb	%al, (%rax)
  402e47: 00 30                        	addb	%dh, (%rax)
  402e49: 01 00                        	addl	%eax, (%rax)
  402e4b: 00 04 e3                     	addb	%al, (%rbx,%riz,8)
  402e4e: ff ff                        	<unknown>
  402e50: 58                           	popq	%rax
  402e51: 00 00                        	addb	%al, (%rax)
  402e53: 00 00                        	addb	%al, (%rax)
  402e55: 00 00                        	addb	%al, (%rax)
  402e57: 00 2c 00                     	addb	%ch, (%rax,%rax)
  402e5a: 00 00                        	addb	%al, (%rax)
  402e5c: 44 01 00                     	addl	%r8d, (%rax)
  402e5f: 00 50 e3                     	addb	%dl, -29(%rax)
  402e62: ff ff                        	<unknown>
  402e64: 70 00                        	jo	0x402e66 <.eh_frame+0x17e>
  402e66: 00 00                        	addb	%al, (%rax)
  402e68: 00 41 0e                     	addb	%al, 14(%rcx)
  402e6b: 10 86 02 43 0d 06            	adcb	%al, 101532418(%rsi)
  402e71: 44 8d 03                     	leal	(%rbx), %r8d
  402e74: 8c 04 44                     	movw	%es, (%rsp,%rax,2)
  402e77: 83 05 02 52 0a 0c 07         	addl	$7, 202002946(%rip)  # c4a8080 <_end+0xbea2f40>
  402e7e: 08 42 0b                     	orb	%al, 11(%rdx)
  402e81: 4f 0c 07                     	orb	$7, %al
  402e84: 08 00                        	orb	%al, (%rax)
  402e86: 00 00                        	addb	%al, (%rax)
  402e88: 20 00                        	andb	%al, (%rax)
  402e8a: 00 00                        	addb	%al, (%rax)
  402e8c: 74 01                        	je	0x402e8f <.eh_frame+0x1a7>
  402e8e: 00 00                        	addb	%al, (%rax)
  402e90: 90                           	nop
  402e91: e3 ff                        	jrcxz	0x402e92 <.eh_frame+0x1aa>
  402e93: ff 1e                        	lcalll	*(%rsi)
  402e95: 01 00                        	addl	%eax, (%rax)
  402e97: 00 00                        	addb	%al, (%rax)
  402e99: 41 0e                        	<unknown>
  402e9b: 10 86 02 4a 0d 06            	adcb	%al, 101534210(%rsi)
  402ea1: 56                           	pushq	%rsi
  402ea2: 83 03 02                     	addl	$2, (%rbx)
  402ea5: fc                           	cld
  402ea6: 0c 07                        	orb	$7, %al
  402ea8: 08 00                        	orb	%al, (%rax)
  402eaa: 00 00                        	addb	%al, (%rax)
  402eac: 24 00                        	andb	$0, %al
  402eae: 00 00                        	addb	%al, (%rax)
  402eb0: 98                           	cwtl
  402eb1: 01 00                        	addl	%eax, (%rax)
  402eb3: 00 8c e4 ff ff 58 00         	addb	%cl, 5832703(%rsp,%riz,8)
  402eba: 00 00                        	addb	%al, (%rax)
  402ebc: 00 41 0e                     	addb	%al, 14(%rcx)
  402ebf: 10 86 02 43 0d 06            	adcb	%al, 101532418(%rsi)
  402ec5: 44 8d 03                     	leal	(%rbx), %r8d
  402ec8: 8c 04 49                     	movw	%es, (%rcx,%rcx,2)
  402ecb: 83 05 02 46 0c 07 08         	addl	$8, 118244866(%rip)  # 74c74d4 <_end+0x6ec2394>
  402ed2: 00 00                        	addb	%al, (%rax)
  402ed4: 20 00                        	andb	%al, (%rax)
  402ed6: 00 00                        	addb	%al, (%rax)
  402ed8: c0 01 00                     	rolb	$0, (%rcx)
  402edb: 00 c4                        	addb	%al, %ah
  402edd: e4 ff                        	inb	$255, %al
  402edf: ff 41 00                     	incl	(%rcx)
  402ee2: 00 00                        	addb	%al, (%rax)
  402ee4: 00 41 0e                     	addb	%al, 14(%rcx)
  402ee7: 10 86 02 43 0d 06            	adcb	%al, 101532418(%rsi)
  402eed: 43 8c 03                     	movw	%es, (%r11)
  402ef0: 83 04 79 0c                  	addl	$12, (%rcx,%rdi,2)
  402ef4: 07                           	<unknown>
  402ef5: 08 00                        	orb	%al, (%rax)
  402ef7: 00 28                        	addb	%ch, (%rax)
  402ef9: 00 00                        	addb	%al, (%rax)
  402efb: 00 e4                        	addb	%ah, %ah
  402efd: 01 00                        	addl	%eax, (%rax)
  402eff: 00 f0                        	addb	%dh, %al
  402f01: e4 ff                        	inb	$255, %al
  402f03: ff c7                        	incl	%edi
  402f05: 00 00                        	addb	%al, (%rax)
  402f07: 00 00                        	addb	%al, (%rax)
  402f09: 41 0e                        	<unknown>
  402f0b: 10 86 02 43 0d 06            	adcb	%al, 101532418(%rsi)
  402f11: 44 8d 03                     	leal	(%rbx), %r8d
  402f14: 8c 04 48                     	movw	%es, (%rax,%rcx,2)
  402f17: 83 05 02 a5 0a 0c 07         	addl	$7, 202024194(%rip)  # c4ad420 <_end+0xbea82e0>
  402f1e: 08 4b 0b                     	orb	%cl, 11(%rbx)
  402f21: 00 00                        	addb	%al, (%rax)
  402f23: 00 1c 00                     	addb	%bl, (%rax,%rax)
  402f26: 00 00                        	addb	%al, (%rax)
  402f28: 10 02                        	adcb	%al, (%rdx)
  402f2a: 00 00                        	addb	%al, (%rax)
  402f2c: 94                           	xchgl	%esp, %eax
  402f2d: e5 ff                        	inl	$255, %eax
  402f2f: ff 6f 00                     	ljmpl	*(%rdi)
  402f32: 00 00                        	addb	%al, (%rax)
  402f34: 00 41 0e                     	addb	%al, 14(%rcx)
  402f37: 10 86 02 43 0d 06            	adcb	%al, 101532418(%rsi)
  402f3d: 71 0a                        	jno	0x402f49 <.eh_frame+0x261>
  402f3f: 0c 07                        	orb	$7, %al
  402f41: 08 4b 0b                     	orb	%cl, 11(%rbx)
  402f44: 20 00                        	andb	%al, (%rax)
  402f46: 00 00                        	addb	%al, (%rax)
  402f48: 30 02                        	xorb	%al, (%rdx)
  402f4a: 00 00                        	addb	%al, (%rax)
  402f4c: e4 e5                        	inb	$229, %al
  402f4e: ff ff                        	<unknown>
  402f50: e5 00                        	inl	$0, %eax
  402f52: 00 00                        	addb	%al, (%rax)
  402f54: 00 41 0e                     	addb	%al, 14(%rcx)
  402f57: 10 86 02 43 0d 06            	adcb	%al, 101532418(%rsi)
  402f5d: 02 db                        	addb	%bl, %bl
  402f5f: 0a 0c 07                     	orb	(%rdi,%rax), %cl
  402f62: 08 41 0b                     	orb	%al, 11(%rcx)
  402f65: 00 00                        	addb	%al, (%rax)
  402f67: 00 24 00                     	addb	%ah, (%rax,%rax)
  402f6a: 00 00                        	addb	%al, (%rax)
  402f6c: 54                           	pushq	%rsp
  402f6d: 02 00                        	addb	(%rax), %al
  402f6f: 00 b0 e6 ff ff 3b            	addb	%dh, 1006632934(%rax)
  402f75: 00 00                        	addb	%al, (%rax)
  402f77: 00 00                        	addb	%al, (%rax)
  402f79: 46 0e                        	<unknown>
  402f7b: 10 86 02 43 0d 06            	adcb	%al, 101532418(%rsi)
  402f81: 59                           	popq	%rcx
  402f82: 0a 0c 07                     	orb	(%rdi,%rax), %cl
  402f85: 08 46 0b                     	orb	%al, 11(%rsi)
  402f88: 4a 0c 07                     	orb	$7, %al
  402f8b: 08 43 c6                     	orb	%al, -58(%rbx)
  402f8e: 00 00                        	addb	%al, (%rax)
  402f90: 24 00                        	andb	$0, %al
  402f92: 00 00                        	addb	%al, (%rax)
  402f94: 7c 02                        	jl	0x402f98 <.eh_frame+0x2b0>
  402f96: 00 00                        	addb	%al, (%rax)
  402f98: c8 e6 ff ff                  	enter	$-26, $-1
  402f9c: 6d                           	insl	%dx, %es:(%rdi)
  402f9d: 00 00                        	addb	%al, (%rax)
  402f9f: 00 00                        	addb	%al, (%rax)
  402fa1: 41 0e                        	<unknown>
  402fa3: 10 86 02 43 0d 06            	adcb	%al, 101532418(%rsi)
  402fa9: 02 4a 0a                     	addb	10(%rdx), %cl
  402fac: 0c 07                        	orb	$7, %al
  402fae: 08 4a 0b                     	orb	%cl, 11(%rdx)
  402fb1: 00 00                        	addb	%al, (%rax)
  402fb3: 00 00                        	addb	%al, (%rax)
  402fb5: 00 00                        	addb	%al, (%rax)
  402fb7: 00 18                        	addb	%bl, (%rax)
  402fb9: 00 00                        	addb	%al, (%rax)
  402fbb: 00 a4 02 00 00 10 e7         	addb	%ah, -418381824(%rdx,%rax)
  402fc2: ff ff                        	<unknown>
  402fc4: 5e                           	popq	%rsi
  402fc5: 00 00                        	addb	%al, (%rax)
  402fc7: 00 00                        	addb	%al, (%rax)
  402fc9: 41 0e                        	<unknown>
  402fcb: 10 86 02 52 0d 06            	adcb	%al, 101536258(%rsi)
  402fd1: 00 00                        	addb	%al, (%rax)
  402fd3: 00 1c 00                     	addb	%bl, (%rax,%rax)
  402fd6: 00 00                        	addb	%al, (%rax)
  402fd8: c0 02 00                     	rolb	$0, (%rdx)
  402fdb: 00 54 e7 ff                  	addb	%dl, -1(%rdi,%riz,8)
  402fdf: ff 80 00 00 00 00            	incl	(%rax)
  402fe5: 41 0e                        	<unknown>
  402fe7: 10 86 02 4f 0d 06            	adcb	%al, 101535490(%rsi)
  402fed: 7a 0a                        	jp	0x402ff9 <.eh_frame+0x311>
  402fef: 0c 07                        	orb	$7, %al
  402ff1: 08 46 0b                     	orb	%al, 11(%rsi)
  402ff4: 10 00                        	adcb	%al, (%rax)
  402ff6: 00 00                        	addb	%al, (%rax)
  402ff8: e0 02                        	loopne	0x402ffc <.eh_frame+0x314>
  402ffa: 00 00                        	addb	%al, (%rax)
  402ffc: b4 e7                        	movb	$-25, %ah
  402ffe: ff ff                        	<unknown>
  403000: 15 00 00 00 00               	adcl	$0, %eax
  403005: 00 00                        	addb	%al, (%rax)
  403007: 00 18                        	addb	%bl, (%rax)
  403009: 00 00                        	addb	%al, (%rax)
  40300b: 00 f4                        	addb	%dh, %ah
  40300d: 02 00                        	addb	(%rax), %al
  40300f: 00 c0                        	addb	%al, %al
  403011: e7 ff                        	outl	%eax, $255
  403013: ff 1d 00 00 00 00            	lcalll	*(%rip)  # 403019 <.eh_frame+0x331>
  403019: 41 0e                        	<unknown>
  40301b: 10 86 02 4d 0d 06            	adcb	%al, 101534978(%rsi)
  403021: 00 00                        	addb	%al, (%rax)
  403023: 00 20                        	addb	%ah, (%rax)
  403025: 00 00                        	addb	%al, (%rax)
  403027: 00 10                        	addb	%dl, (%rax)
  403029: 03 00                        	addl	(%rax), %eax
  40302b: 00 c4                        	addb	%al, %ah
  40302d: e7 ff                        	outl	%eax, $255
  40302f: ff a2 00 00 00 00            	jmpq	*(%rdx)
  403035: 41 0e                        	<unknown>
  403037: 10 86 02 43 0d 06            	adcb	%al, 101532418(%rsi)
  40303d: 02 80 0a 0c 07 08            	addb	134679562(%rax), %al
  403043: 41 0b 00                     	orl	(%r8), %eax
  403046: 00 00                        	addb	%al, (%rax)
  403048: 10 00                        	adcb	%al, (%rax)
  40304a: 00 00                        	addb	%al, (%rax)
  40304c: 34 03                        	xorb	$3, %al
  40304e: 00 00                        	addb	%al, (%rax)
  403050: 50                           	pushq	%rax
  403051: e8 ff ff 01 00               	callq	0x423055 <__FRAME_END__+0x1fda9>
  403056: 00 00                        	addb	%al, (%rax)
  403058: 00 00                        	addb	%al, (%rax)
  40305a: 00 00                        	addb	%al, (%rax)
  40305c: 1c 00                        	sbbb	$0, %al
  40305e: 00 00                        	addb	%al, (%rax)
  403060: 48 03 00                     	addq	(%rax), %rax
  403063: 00 4c e8 ff                  	addb	%cl, -1(%rax,%rbp,8)
  403067: ff 30                        	pushq	(%rax)
  403069: 00 00                        	addb	%al, (%rax)
  40306b: 00 00                        	addb	%al, (%rax)
  40306d: 41 0e                        	<unknown>
  40306f: 10 86 02 43 0d 06            	adcb	%al, 101532418(%rsi)
  403075: 41 83 03 6a                  	addl	$106, (%r11)
  403079: 0c 07                        	orb	$7, %al
  40307b: 08 24 00                     	orb	%ah, (%rax,%rax)
  40307e: 00 00                        	addb	%al, (%rax)
  403080: 68 03 00 00 5c               	pushq	$1543503875
  403085: e8 ff ff 29 01               	callq	0x16a3089 <_end+0x109df49>
  40308a: 00 00                        	addb	%al, (%rax)
  40308c: 00 41 0e                     	addb	%al, 14(%rcx)
  40308f: 10 86 02 4a 0d 06            	adcb	%al, 101534210(%rsi)
  403095: 43 8c 03                     	movw	%es, (%r11)
  403098: 83 04 02 cb                  	addl	$-53, (%rdx,%rax)
  40309c: 0a 0c 07                     	orb	(%rdi,%rax), %cl
  40309f: 08 47 0b                     	orb	%al, 11(%rdi)
  4030a2: 00 00                        	addb	%al, (%rax)
  4030a4: 20 00                        	andb	%al, (%rax)
  4030a6: 00 00                        	addb	%al, (%rax)
  4030a8: 90                           	nop
  4030a9: 03 00                        	addl	(%rax), %eax
  4030ab: 00 64 e9 ff                  	addb	%ah, -1(%rcx,%rbp,8)
  4030af: ff b7 00 00 00 00            	pushq	(%rdi)
  4030b5: 41 0e                        	<unknown>
  4030b7: 10 86 02 43 0d 06            	adcb	%al, 101532418(%rsi)
  4030bd: 41 83 03 02                  	addl	$2, (%r11)
  4030c1: 80 0a 0c                     	orb	$12, (%rdx)
  4030c4: 07                           	<unknown>
  4030c5: 08 4b 0b                     	orb	%cl, 11(%rbx)
  4030c8: 18 00                        	sbbb	%al, (%rax)
  4030ca: 00 00                        	addb	%al, (%rax)
  4030cc: b4 03                        	movb	$3, %ah
  4030ce: 00 00                        	addb	%al, (%rax)
  4030d0: 00 ea                        	addb	%ch, %dl
  4030d2: ff ff                        	<unknown>
  4030d4: 33 00                        	xorl	(%rax), %eax
  4030d6: 00 00                        	addb	%al, (%rax)
  4030d8: 00 41 0e                     	addb	%al, 14(%rcx)
  4030db: 10 86 02 48 0d 06            	adcb	%al, 101533698(%rsi)
  4030e1: 00 00                        	addb	%al, (%rax)
  4030e3: 00 1c 00                     	addb	%bl, (%rax,%rax)
  4030e6: 00 00                        	addb	%al, (%rax)
  4030e8: d0 03                        	rolb	(%rbx)
  4030ea: 00 00                        	addb	%al, (%rax)
  4030ec: 24 ea                        	andb	$-22, %al
  4030ee: ff ff                        	<unknown>
  4030f0: 37                           	<unknown>
  4030f1: 00 00                        	addb	%al, (%rax)
  4030f3: 00 00                        	addb	%al, (%rax)
  4030f5: 41 0e                        	<unknown>
  4030f7: 10 86 02 56 0d 06            	adcb	%al, 101537282(%rsi)
  4030fd: 5a                           	popq	%rdx
  4030fe: 0a 0c 07                     	orb	(%rdi,%rax), %cl
  403101: 08 41 0b                     	orb	%al, 11(%rcx)
  403104: 20 00                        	andb	%al, (%rax)
  403106: 00 00                        	addb	%al, (%rax)
  403108: f0                           	lock
  403109: 03 00                        	addl	(%rax), %eax
  40310b: 00 44 ea ff                  	addb	%al, -1(%rdx,%rbp,8)
  40310f: ff 17                        	callq	*(%rdi)
  403111: 00 00                        	addb	%al, (%rax)
  403113: 00 00                        	addb	%al, (%rax)
  403115: 41 0e                        	<unknown>
  403117: 10 86 02 48 0d 06            	adcb	%al, 101533698(%rsi)
  40311d: 4d 0c 07                     	orb	$7, %al
  403120: 08 00                        	orb	%al, (%rax)
  403122: 00 00                        	addb	%al, (%rax)
  403124: 00 00                        	addb	%al, (%rax)
  403126: 00 00                        	addb	%al, (%rax)
  403128: 18 00                        	sbbb	%al, (%rax)
  40312a: 00 00                        	addb	%al, (%rax)
  40312c: 14 04                        	adcb	$4, %al
  40312e: 00 00                        	addb	%al, (%rax)
  403130: 40 ea                        	<unknown>
  403132: ff ff                        	<unknown>
  403134: 23 00                        	andl	(%rax), %eax
  403136: 00 00                        	addb	%al, (%rax)
  403138: 00 41 0e                     	addb	%al, 14(%rcx)
  40313b: 10 86 02 53 0d 06            	adcb	%al, 101536514(%rsi)
  403141: 00 00                        	addb	%al, (%rax)
  403143: 00 34 00                     	addb	%dh, (%rax,%rax)
  403146: 00 00                        	addb	%al, (%rax)
  403148: 30 04 00                     	xorb	%al, (%rax,%rax)
  40314b: 00 54 ea ff                  	addb	%dl, -1(%rdx,%rbp,8)
  40314f: ff de                        	<unknown>
  403151: 00 00                        	addb	%al, (%rax)
  403153: 00 00                        	addb	%al, (%rax)
  403155: 41 0e                        	<unknown>
  403157: 10 86 02 43 0d 06            	adcb	%al, 101532418(%rsi)
  40315d: 42 8f 03                     	popq	(%rbx)
  403160: 48 8e 04 47                  	movw	(%rdi,%rax,2), %es
  403164: 8d 05 8c 06 45 83            	leal	-2092628340(%rip), %eax  # ffffffff838537f6 <_end+0xffffffff8324e6b6>
  40316a: 07                           	<unknown>
  40316b: 02 8d 0a 0c 07 08            	addb	134679562(%rbp), %cl
  403171: 49 0b 5d 0a                  	orq	10(%r13), %rbx
  403175: 0c 07                        	orb	$7, %al
  403177: 08 41 0b                     	orb	%al, 11(%rcx)
  40317a: 00 00                        	addb	%al, (%rax)
  40317c: 34 00                        	xorb	$0, %al
  40317e: 00 00                        	addb	%al, (%rax)
  403180: 68 04 00 00 fc               	pushq	$-67108860
  403185: ea                           	<unknown>
  403186: ff ff                        	<unknown>
  403188: 7b 04                        	jnp	0x40318e <.eh_frame+0x4a6>
  40318a: 00 00                        	addb	%al, (%rax)
  40318c: 00 41 0e                     	addb	%al, 14(%rcx)
  40318f: 10 86 02 43 0d 06            	adcb	%al, 101532418(%rsi)
  403195: 42 8f 03                     	popq	(%rbx)
  403198: 45 8e 04 48                  	movw	(%r8,%rcx,2), %es
  40319c: 8d 05 8c 06 83 07            	leal	126027404(%rip), %eax  # 7c3382e <_end+0x762e6ee>
  4031a2: 03 54 03 0a                  	addl	10(%rbx,%rax), %edx
  4031a6: 0c 07                        	orb	$7, %al
  4031a8: 08 49 0b                     	orb	%cl, 11(%rcx)
  4031ab: 02 81 0a 0c 07 08            	addb	134679562(%rcx), %al
  4031b1: 47 0b 00                     	orl	(%r8), %r8d
  4031b4: 20 00                        	andb	%al, (%rax)
  4031b6: 00 00                        	addb	%al, (%rax)
  4031b8: a0 04 00 00 44 ef ff ff 35   	movabsb	3891110006174515204, %al
  4031c1: 00 00                        	addb	%al, (%rax)
  4031c3: 00 00                        	addb	%al, (%rax)
  4031c5: 49 0e                        	<unknown>
  4031c7: 10 86 02 48 0d 06            	adcb	%al, 101533698(%rsi)
  4031cd: 41 83 03 5c                  	addl	$92, (%r11)
  4031d1: c6 c3 0c                     	movb	$12, %bl
  4031d4: 07                           	<unknown>
  4031d5: 08 00                        	orb	%al, (%rax)
  4031d7: 00 24 00                     	addb	%ah, (%rax,%rax)
  4031da: 00 00                        	addb	%al, (%rax)
  4031dc: c4 04 00                     	<unknown>
  4031df: 00 60 ef                     	addb	%ah, -17(%rax)
  4031e2: ff ff                        	<unknown>
  4031e4: 1e                           	<unknown>
  4031e5: 01 00                        	addl	%eax, (%rax)
  4031e7: 00 00                        	addb	%al, (%rax)
  4031e9: 41 0e                        	<unknown>
  4031eb: 10 86 02 48 0d 06            	adcb	%al, 101533698(%rsi)
  4031f1: 42 8d 03                     	leal	(%rbx), %eax
  4031f4: 4e 8c 04 02                  	movw	%es, (%rdx,%r8)
  4031f8: b1 0a                        	movb	$10, %cl
  4031fa: 0c 07                        	orb	$7, %al
  4031fc: 08 41 0b                     	orb	%al, 11(%rcx)
  4031ff: 00 34 00                     	addb	%dh, (%rax,%rax)
  403202: 00 00                        	addb	%al, (%rax)
  403204: ec                           	inb	%dx, %al
  403205: 04 00                        	addb	$0, %al
  403207: 00 58 f0                     	addb	%bl, -16(%rax)
  40320a: ff ff                        	<unknown>
  40320c: b3 00                        	movb	$0, %bl
  40320e: 00 00                        	addb	%al, (%rax)
  403210: 00 41 0e                     	addb	%al, 14(%rcx)
  403213: 10 86 02 43 0d 06            	adcb	%al, 101532418(%rsi)
  403219: 42 8e 03                     	movw	(%rbx), %es
  40321c: 45 8d 04 46                  	leal	(%r14,%rax,2), %r8d
  403220: 8c 05 83 06 78 0a            	movw	%es, 175638147(%rip)  # ab838a9 <_end+0xa57e769>
  403226: 0c 07                        	orb	$7, %al
  403228: 08 47 0b                     	orb	%al, 11(%rdi)
  40322b: 6a 0a                        	pushq	$10
  40322d: 0c 07                        	orb	$7, %al
  40322f: 08 46 0b                     	orb	%al, 11(%rsi)
  403232: 72 0c                        	jb	0x403240 <.eh_frame+0x558>
  403234: 07                           	<unknown>
  403235: 08 00                        	orb	%al, (%rax)
  403237: 00 44 00 00                  	addb	%al, (%rax,%rax)
  40323b: 00 24 05 00 00 e0 f0         	addb	%ah, -253755392(,%rax)
  403242: ff ff                        	<unknown>
  403244: 5d                           	popq	%rbp
  403245: 00 00                        	addb	%al, (%rax)
  403247: 00 00                        	addb	%al, (%rax)
  403249: 42 0e                        	<unknown>
  40324b: 10 8f 02 42 0e 18            	adcb	%cl, 403587586(%rdi)
  403251: 8e 03                        	movw	(%rbx), %es
  403253: 45 0e                        	<unknown>
  403255: 20 8d 04 42 0e 28            	andb	%cl, 672023044(%rbp)
  40325b: 8c 05 48 0e 30 86            	movw	%es, -2043670968(%rip)  # ffffffff867040a9 <_end+0xffffffff860fef69>
  403261: 06                           	<unknown>
  403262: 48 0e                        	<unknown>
  403264: 38 83 07 4d 0e 40            	cmpb	%al, 1074679047(%rbx)
  40326a: 6a 0e                        	pushq	$14
  40326c: 38 41 0e                     	cmpb	%al, 14(%rcx)
  40326f: 30 41 0e                     	xorb	%al, 14(%rcx)
  403272: 28 42 0e                     	subb	%al, 14(%rdx)
  403275: 20 42 0e                     	andb	%al, 14(%rdx)
  403278: 18 42 0e                     	sbbb	%al, 14(%rdx)
  40327b: 10 42 0e                     	adcb	%al, 14(%rdx)
  40327e: 08 00                        	orb	%al, (%rax)
  403280: 14 00                        	adcb	$0, %al
  403282: 00 00                        	addb	%al, (%rax)
  403284: 6c                           	insb	%dx, %es:(%rdi)
  403285: 05 00 00 f8 f0               	addl	$4042784768, %eax
  40328a: ff ff                        	<unknown>
  40328c: 02 00                        	addb	(%rax), %al
		...
  403296: 00 00                        	addb	%al, (%rax)
  403298: 10 00                        	adcb	%al, (%rax)
  40329a: 00 00                        	addb	%al, (%rax)
  40329c: 84 05 00 00 f0 f0            	testb	%al, -252706816(%rip)  # fffffffff13032a2 <_end+0xfffffffff0cfe162>
  4032a2: ff ff                        	<unknown>
  4032a4: 18 00                        	sbbb	%al, (%rax)
  4032a6: 00 00                        	addb	%al, (%rax)
  4032a8: 00 00                        	addb	%al, (%rax)
  4032aa: 00 00                        	addb	%al, (%rax)

00000000004032ac <__FRAME_END__>:
  4032ac: 00 00                        	addb	%al, (%rax)
  4032ae: 00 00                        	addb	%al, (%rax)

Disassembly of section .init_array:

0000000000603dd8 <__init_array_start>:
  603dd8: 10 10                        	adcb	%dl, (%rax)
  603dda: 40 00 00                     	addb	%al, (%rax)
  603ddd: 00 00                        	addb	%al, (%rax)
  603ddf: 00 30                        	addb	%dh, (%rax)
  603de1: 0f 40 00                     	cmovol	(%rax), %eax
  603de4: 00 00                        	addb	%al, (%rax)
  603de6: 00 00                        	addb	%al, (%rax)

Disassembly of section .fini_array:

0000000000603de8 <__do_global_dtors_aux_fini_array_entry>:
  603de8: e0 0f                        	loopne	0x603df9 <_DYNAMIC+0x9>
  603dea: 40 00 00                     	addb	%al, (%rax)
  603ded: 00 00                        	addb	%al, (%rax)
  603def: 00                           	<unknown>

Disassembly of section .dynamic:

0000000000603df0 <_DYNAMIC>:
  603df0: 01 00                        	addl	%eax, (%rax)
  603df2: 00 00                        	addb	%al, (%rax)
  603df4: 00 00                        	addb	%al, (%rax)
  603df6: 00 00                        	addb	%al, (%rax)
  603df8: 01 00                        	addl	%eax, (%rax)
  603dfa: 00 00                        	addb	%al, (%rax)
  603dfc: 00 00                        	addb	%al, (%rax)
  603dfe: 00 00                        	addb	%al, (%rax)
  603e00: 01 00                        	addl	%eax, (%rax)
  603e02: 00 00                        	addb	%al, (%rax)
  603e04: 00 00                        	addb	%al, (%rax)
  603e06: 00 00                        	addb	%al, (%rax)
  603e08: 1f                           	<unknown>
  603e09: 00 00                        	addb	%al, (%rax)
  603e0b: 00 00                        	addb	%al, (%rax)
  603e0d: 00 00                        	addb	%al, (%rax)
  603e0f: 00 01                        	addb	%al, (%rcx)
  603e11: 00 00                        	addb	%al, (%rax)
  603e13: 00 00                        	addb	%al, (%rax)
  603e15: 00 00                        	addb	%al, (%rax)
  603e17: 00 29                        	addb	%ch, (%rcx)
  603e19: 00 00                        	addb	%al, (%rax)
  603e1b: 00 00                        	addb	%al, (%rax)
  603e1d: 00 00                        	addb	%al, (%rax)
  603e1f: 00 01                        	addb	%al, (%rcx)
  603e21: 00 00                        	addb	%al, (%rax)
  603e23: 00 00                        	addb	%al, (%rax)
  603e25: 00 00                        	addb	%al, (%rax)
  603e27: 00 37                        	addb	%dh, (%rdi)
  603e29: 00 00                        	addb	%al, (%rax)
  603e2b: 00 00                        	addb	%al, (%rax)
  603e2d: 00 00                        	addb	%al, (%rax)
  603e2f: 00 0c 00                     	addb	%cl, (%rax,%rax)
  603e32: 00 00                        	addb	%al, (%rax)
  603e34: 00 00                        	addb	%al, (%rax)
  603e36: 00 00                        	addb	%al, (%rax)
  603e38: a8 0b                        	testb	$11, %al
  603e3a: 40 00 00                     	addb	%al, (%rax)
  603e3d: 00 00                        	addb	%al, (%rax)
  603e3f: 00 0d 00 00 00 00            	addb	%cl, (%rip)  # 603e45 <_DYNAMIC+0x55>
  603e45: 00 00                        	addb	%al, (%rax)
  603e47: 00 a8 23 40 00 00            	addb	%ch, 16419(%rax)
  603e4d: 00 00                        	addb	%al, (%rax)
  603e4f: 00 19                        	addb	%bl, (%rcx)
  603e51: 00 00                        	addb	%al, (%rax)
  603e53: 00 00                        	addb	%al, (%rax)
  603e55: 00 00                        	addb	%al, (%rax)
  603e57: 00 d8                        	addb	%bl, %al
  603e59: 3d 60 00 00 00               	cmpl	$96, %eax
  603e5e: 00 00                        	addb	%al, (%rax)
  603e60: 1b 00                        	sbbl	(%rax), %eax
  603e62: 00 00                        	addb	%al, (%rax)
  603e64: 00 00                        	addb	%al, (%rax)
  603e66: 00 00                        	addb	%al, (%rax)
  603e68: 10 00                        	adcb	%al, (%rax)
  603e6a: 00 00                        	addb	%al, (%rax)
  603e6c: 00 00                        	addb	%al, (%rax)
  603e6e: 00 00                        	addb	%al, (%rax)
  603e70: 1a 00                        	sbbb	(%rax), %al
  603e72: 00 00                        	addb	%al, (%rax)
  603e74: 00 00                        	addb	%al, (%rax)
  603e76: 00 00                        	addb	%al, (%rax)
  603e78: e8 3d 60 00 00               	callq	0x609eba <_end+0x4d7a>
  603e7d: 00 00                        	addb	%al, (%rax)
  603e7f: 00 1c 00                     	addb	%bl, (%rax,%rax)
  603e82: 00 00                        	addb	%al, (%rax)
  603e84: 00 00                        	addb	%al, (%rax)
  603e86: 00 00                        	addb	%al, (%rax)
  603e88: 08 00                        	orb	%al, (%rax)
  603e8a: 00 00                        	addb	%al, (%rax)
  603e8c: 00 00                        	addb	%al, (%rax)
  603e8e: 00 00                        	addb	%al, (%rax)
  603e90: f5                           	cmc
  603e91: fe ff                        	<unknown>
  603e93: 6f                           	outsl	(%rsi), %dx
  603e94: 00 00                        	addb	%al, (%rax)
  603e96: 00 00                        	addb	%al, (%rax)
  603e98: 98                           	cwtl
  603e99: 02 40 00                     	addb	(%rax), %al
  603e9c: 00 00                        	addb	%al, (%rax)
  603e9e: 00 00                        	addb	%al, (%rax)
  603ea0: 05 00 00 00 00               	addl	$0, %eax
  603ea5: 00 00                        	addb	%al, (%rax)
  603ea7: 00 58 06                     	addb	%bl, 6(%rax)
  603eaa: 40 00 00                     	addb	%al, (%rax)
  603ead: 00 00                        	addb	%al, (%rax)
  603eaf: 00 06                        	addb	%al, (%rsi)
  603eb1: 00 00                        	addb	%al, (%rax)
  603eb3: 00 00                        	addb	%al, (%rax)
  603eb5: 00 00                        	addb	%al, (%rax)
  603eb7: 00 c8                        	addb	%cl, %al
  603eb9: 02 40 00                     	addb	(%rax), %al
  603ebc: 00 00                        	addb	%al, (%rax)
  603ebe: 00 00                        	addb	%al, (%rax)
  603ec0: 0a 00                        	orb	(%rax), %al
  603ec2: 00 00                        	addb	%al, (%rax)
  603ec4: 00 00                        	addb	%al, (%rax)
  603ec6: 00 00                        	addb	%al, (%rax)
  603ec8: 67 01 00                     	addl	%eax, (%eax)
  603ecb: 00 00                        	addb	%al, (%rax)
  603ecd: 00 00                        	addb	%al, (%rax)
  603ecf: 00 0b                        	addb	%cl, (%rbx)
  603ed1: 00 00                        	addb	%al, (%rax)
  603ed3: 00 00                        	addb	%al, (%rax)
  603ed5: 00 00                        	addb	%al, (%rax)
  603ed7: 00 18                        	addb	%bl, (%rax)
  603ed9: 00 00                        	addb	%al, (%rax)
  603edb: 00 00                        	addb	%al, (%rax)
  603edd: 00 00                        	addb	%al, (%rax)
  603edf: 00 15 00 00 00 00            	addb	%dl, (%rip)  # 603ee5 <_DYNAMIC+0xf5>
		...
  603eed: 00 00                        	addb	%al, (%rax)
  603eef: 00 03                        	addb	%al, (%rbx)
		...
  603ef9: 40 60                        	<unknown>
  603efb: 00 00                        	addb	%al, (%rax)
  603efd: 00 00                        	addb	%al, (%rax)
  603eff: 00 02                        	addb	%al, (%rdx)
		...
  603f09: 03 00                        	addl	(%rax), %eax
  603f0b: 00 00                        	addb	%al, (%rax)
  603f0d: 00 00                        	addb	%al, (%rax)
  603f0f: 00 14 00                     	addb	%dl, (%rax,%rax)
  603f12: 00 00                        	addb	%al, (%rax)
  603f14: 00 00                        	addb	%al, (%rax)
  603f16: 00 00                        	addb	%al, (%rax)
  603f18: 07                           	<unknown>
  603f19: 00 00                        	addb	%al, (%rax)
  603f1b: 00 00                        	addb	%al, (%rax)
  603f1d: 00 00                        	addb	%al, (%rax)
  603f1f: 00 17                        	addb	%dl, (%rdi)
  603f21: 00 00                        	addb	%al, (%rax)
  603f23: 00 00                        	addb	%al, (%rax)
  603f25: 00 00                        	addb	%al, (%rax)
  603f27: 00 a8 08 40 00 00            	addb	%ch, 16392(%rax)
  603f2d: 00 00                        	addb	%al, (%rax)
  603f2f: 00 07                        	addb	%al, (%rdi)
  603f31: 00 00                        	addb	%al, (%rax)
  603f33: 00 00                        	addb	%al, (%rax)
  603f35: 00 00                        	addb	%al, (%rax)
  603f37: 00 30                        	addb	%dh, (%rax)
  603f39: 08 40 00                     	orb	%al, (%rax)
  603f3c: 00 00                        	addb	%al, (%rax)
  603f3e: 00 00                        	addb	%al, (%rax)
  603f40: 08 00                        	orb	%al, (%rax)
  603f42: 00 00                        	addb	%al, (%rax)
  603f44: 00 00                        	addb	%al, (%rax)
  603f46: 00 00                        	addb	%al, (%rax)
  603f48: 78 00                        	js	0x603f4a <_DYNAMIC+0x15a>
  603f4a: 00 00                        	addb	%al, (%rax)
  603f4c: 00 00                        	addb	%al, (%rax)
  603f4e: 00 00                        	addb	%al, (%rax)
  603f50: 09 00                        	orl	%eax, (%rax)
  603f52: 00 00                        	addb	%al, (%rax)
  603f54: 00 00                        	addb	%al, (%rax)
  603f56: 00 00                        	addb	%al, (%rax)
  603f58: 18 00                        	sbbb	%al, (%rax)
  603f5a: 00 00                        	addb	%al, (%rax)
  603f5c: 00 00                        	addb	%al, (%rax)
  603f5e: 00 00                        	addb	%al, (%rax)
  603f60: fe ff                        	<unknown>
  603f62: ff 6f 00                     	ljmpl	*(%rdi)
  603f65: 00 00                        	addb	%al, (%rax)
  603f67: 00 10                        	addb	%dl, (%rax)
  603f69: 08 40 00                     	orb	%al, (%rax)
  603f6c: 00 00                        	addb	%al, (%rax)
  603f6e: 00 00                        	addb	%al, (%rax)
  603f70: ff ff                        	<unknown>
  603f72: ff 6f 00                     	ljmpl	*(%rdi)
  603f75: 00 00                        	addb	%al, (%rax)
  603f77: 00 01                        	addb	%al, (%rcx)
  603f79: 00 00                        	addb	%al, (%rax)
  603f7b: 00 00                        	addb	%al, (%rax)
  603f7d: 00 00                        	addb	%al, (%rax)
  603f7f: 00 f0                        	addb	%dh, %al
  603f81: ff ff                        	<unknown>
  603f83: 6f                           	outsl	(%rsi), %dx
  603f84: 00 00                        	addb	%al, (%rax)
  603f86: 00 00                        	addb	%al, (%rax)
  603f88: c0 07 40                     	rolb	$64, (%rdi)
		...
  603fef: 00                           	<unknown>

Disassembly of section .got:

0000000000603ff0 <.got>:
		...

Disassembly of section .got.plt:

0000000000604000 <_GLOBAL_OFFSET_TABLE_>:
  604000: f0                           	lock
  604001: 3d 60 00 00 00               	cmpl	$96, %eax
		...
  604016: 00 00                        	addb	%al, (%rax)
  604018: d6                           	<unknown>
  604019: 0b 40 00                     	orl	(%rax), %eax
  60401c: 00 00                        	addb	%al, (%rax)
  60401e: 00 00                        	addb	%al, (%rax)
  604020: e6 0b                        	outb	%al, $11
  604022: 40 00 00                     	addb	%al, (%rax)
  604025: 00 00                        	addb	%al, (%rax)
  604027: 00 f6                        	addb	%dh, %dh
  604029: 0b 40 00                     	orl	(%rax), %eax
  60402c: 00 00                        	addb	%al, (%rax)
  60402e: 00 00                        	addb	%al, (%rax)
  604030: 06                           	<unknown>
  604031: 0c 40                        	orb	$64, %al
  604033: 00 00                        	addb	%al, (%rax)
  604035: 00 00                        	addb	%al, (%rax)
  604037: 00 16                        	addb	%dl, (%rsi)
  604039: 0c 40                        	orb	$64, %al
  60403b: 00 00                        	addb	%al, (%rax)
  60403d: 00 00                        	addb	%al, (%rax)
  60403f: 00 26                        	addb	%ah, (%rsi)
  604041: 0c 40                        	orb	$64, %al
  604043: 00 00                        	addb	%al, (%rax)
  604045: 00 00                        	addb	%al, (%rax)
  604047: 00 36                        	addb	%dh, (%rsi)
  604049: 0c 40                        	orb	$64, %al
  60404b: 00 00                        	addb	%al, (%rax)
  60404d: 00 00                        	addb	%al, (%rax)
  60404f: 00 46 0c                     	addb	%al, 12(%rsi)
  604052: 40 00 00                     	addb	%al, (%rax)
  604055: 00 00                        	addb	%al, (%rax)
  604057: 00 56 0c                     	addb	%dl, 12(%rsi)
  60405a: 40 00 00                     	addb	%al, (%rax)
  60405d: 00 00                        	addb	%al, (%rax)
  60405f: 00 66 0c                     	addb	%ah, 12(%rsi)
  604062: 40 00 00                     	addb	%al, (%rax)
  604065: 00 00                        	addb	%al, (%rax)
  604067: 00 76 0c                     	addb	%dh, 12(%rsi)
  60406a: 40 00 00                     	addb	%al, (%rax)
  60406d: 00 00                        	addb	%al, (%rax)
  60406f: 00 86 0c 40 00 00            	addb	%al, 16396(%rsi)
  604075: 00 00                        	addb	%al, (%rax)
  604077: 00 96 0c 40 00 00            	addb	%dl, 16396(%rsi)
  60407d: 00 00                        	addb	%al, (%rax)
  60407f: 00 a6 0c 40 00 00            	addb	%ah, 16396(%rsi)
  604085: 00 00                        	addb	%al, (%rax)
  604087: 00 b6 0c 40 00 00            	addb	%dh, 16396(%rsi)
  60408d: 00 00                        	addb	%al, (%rax)
  60408f: 00 c6                        	addb	%al, %dh
  604091: 0c 40                        	orb	$64, %al
  604093: 00 00                        	addb	%al, (%rax)
  604095: 00 00                        	addb	%al, (%rax)
  604097: 00 d6                        	addb	%dl, %dh
  604099: 0c 40                        	orb	$64, %al
  60409b: 00 00                        	addb	%al, (%rax)
  60409d: 00 00                        	addb	%al, (%rax)
  60409f: 00 e6                        	addb	%ah, %dh
  6040a1: 0c 40                        	orb	$64, %al
  6040a3: 00 00                        	addb	%al, (%rax)
  6040a5: 00 00                        	addb	%al, (%rax)
  6040a7: 00 f6                        	addb	%dh, %dh
  6040a9: 0c 40                        	orb	$64, %al
  6040ab: 00 00                        	addb	%al, (%rax)
  6040ad: 00 00                        	addb	%al, (%rax)
  6040af: 00 06                        	addb	%al, (%rsi)
  6040b1: 0d 40 00 00 00               	orl	$64, %eax
  6040b6: 00 00                        	addb	%al, (%rax)
  6040b8: 16                           	<unknown>
  6040b9: 0d 40 00 00 00               	orl	$64, %eax
  6040be: 00 00                        	addb	%al, (%rax)
  6040c0: 26 0d 40 00 00 00            	orl	$64, %eax
  6040c6: 00 00                        	addb	%al, (%rax)
  6040c8: 36 0d 40 00 00 00            	orl	$64, %eax
  6040ce: 00 00                        	addb	%al, (%rax)
  6040d0: 46 0d 40 00 00 00            	orl	$64, %eax
  6040d6: 00 00                        	addb	%al, (%rax)
  6040d8: 56                           	pushq	%rsi
  6040d9: 0d 40 00 00 00               	orl	$64, %eax
  6040de: 00 00                        	addb	%al, (%rax)
  6040e0: 66 0d 40 00                  	orw	$64, %ax
  6040e4: 00 00                        	addb	%al, (%rax)
  6040e6: 00 00                        	addb	%al, (%rax)
  6040e8: 76 0d                        	jbe	0x6040f7 <_GLOBAL_OFFSET_TABLE_+0xf7>
  6040ea: 40 00 00                     	addb	%al, (%rax)
  6040ed: 00 00                        	addb	%al, (%rax)
  6040ef: 00 86 0d 40 00 00            	addb	%al, 16397(%rsi)
  6040f5: 00 00                        	addb	%al, (%rax)
  6040f7: 00 96 0d 40 00 00            	addb	%dl, 16397(%rsi)
  6040fd: 00 00                        	addb	%al, (%rax)
  6040ff: 00 a6 0d 40 00 00            	addb	%ah, 16397(%rsi)
  604105: 00 00                        	addb	%al, (%rax)
  604107: 00 b6 0d 40 00 00            	addb	%dh, 16397(%rsi)
  60410d: 00 00                        	addb	%al, (%rax)
  60410f: 00 c6                        	addb	%al, %dh
  604111: 0d 40 00 00 00               	orl	$64, %eax
  604116: 00 00                        	addb	%al, (%rax)

Disassembly of section .data:

0000000000604120 <data_start>:
		...

0000000000604128 <__dso_handle>:
		...

0000000000604130 <n1>:
  604130: 24 00                        	andb	$0, %al
  604132: 00 00                        	addb	%al, (%rax)
  604134: 00 00                        	addb	%al, (%rax)
  604136: 00 00                        	addb	%al, (%rax)
  604138: 50                           	pushq	%rax
  604139: 41 60                        	<unknown>
  60413b: 00 00                        	addb	%al, (%rax)
  60413d: 00 00                        	addb	%al, (%rax)
  60413f: 00 70 41                     	addb	%dh, 65(%rax)
  604142: 60                           	<unknown>
		...
  60414f: 00 08                        	addb	%cl, (%rax)

0000000000604150 <n21>:
  604150: 08 00                        	orb	%al, (%rax)
  604152: 00 00                        	addb	%al, (%rax)
  604154: 00 00                        	addb	%al, (%rax)
  604156: 00 00                        	addb	%al, (%rax)
  604158: d0 41 60                     	rolb	96(%rcx)
  60415b: 00 00                        	addb	%al, (%rax)
  60415d: 00 00                        	addb	%al, (%rax)
  60415f: 00 90 41 60 00 00            	addb	%dl, 24641(%rax)
		...
  60416d: 00 00                        	addb	%al, (%rax)
  60416f: 00 32                        	addb	%dh, (%rdx)

0000000000604170 <n22>:
  604170: 32 00                        	xorb	(%rax), %al
  604172: 00 00                        	addb	%al, (%rax)
  604174: 00 00                        	addb	%al, (%rax)
  604176: 00 00                        	addb	%al, (%rax)
  604178: b0 41                        	movb	$65, %al
  60417a: 60                           	<unknown>
  60417b: 00 00                        	addb	%al, (%rax)
  60417d: 00 00                        	addb	%al, (%rax)
  60417f: 00 f0                        	addb	%dh, %al
  604181: 41 60                        	<unknown>
		...
  60418f: 00 16                        	addb	%dl, (%rsi)

0000000000604190 <n32>:
  604190: 16                           	<unknown>
  604191: 00 00                        	addb	%al, (%rax)
  604193: 00 00                        	addb	%al, (%rax)
  604195: 00 00                        	addb	%al, (%rax)
  604197: 00 b0 42 60 00 00            	addb	%dh, 24642(%rax)
  60419d: 00 00                        	addb	%al, (%rax)
  60419f: 00 70 42                     	addb	%dh, 66(%rax)
  6041a2: 60                           	<unknown>
		...
  6041af: 00 2d 00 00 00 00            	addb	%ch, (%rip)  # 6041b5 <n33+0x5>

00000000006041b0 <n33>:
  6041b0: 2d 00 00 00 00               	subl	$0, %eax
  6041b5: 00 00                        	addb	%al, (%rax)
  6041b7: 00 10                        	addb	%dl, (%rax)
  6041b9: 42 60                        	<unknown>
  6041bb: 00 00                        	addb	%al, (%rax)
  6041bd: 00 00                        	addb	%al, (%rax)
  6041bf: 00 d0                        	addb	%dl, %al
  6041c1: 42 60                        	<unknown>
		...
  6041cf: 00 06                        	addb	%al, (%rsi)

00000000006041d0 <n31>:
  6041d0: 06                           	<unknown>
  6041d1: 00 00                        	addb	%al, (%rax)
  6041d3: 00 00                        	addb	%al, (%rax)
  6041d5: 00 00                        	addb	%al, (%rax)
  6041d7: 00 30                        	addb	%dh, (%rax)
  6041d9: 42 60                        	<unknown>
  6041db: 00 00                        	addb	%al, (%rax)
  6041dd: 00 00                        	addb	%al, (%rax)
  6041df: 00 90 42 60 00 00            	addb	%dl, 24642(%rax)
		...
  6041ed: 00 00                        	addb	%al, (%rax)
  6041ef: 00 6b 00                     	addb	%ch, (%rbx)

00000000006041f0 <n34>:
  6041f0: 6b 00 00                     	imull	$0, (%rax), %eax
  6041f3: 00 00                        	addb	%al, (%rax)
  6041f5: 00 00                        	addb	%al, (%rax)
  6041f7: 00 50 42                     	addb	%dl, 66(%rax)
  6041fa: 60                           	<unknown>
  6041fb: 00 00                        	addb	%al, (%rax)
  6041fd: 00 00                        	addb	%al, (%rax)
  6041ff: 00 f0                        	addb	%dh, %al
  604201: 42 60                        	<unknown>
		...
  60420f: 00 28                        	addb	%ch, (%rax)

0000000000604210 <n45>:
  604210: 28 00                        	subb	%al, (%rax)
		...
  60422e: 00 00                        	addb	%al, (%rax)

0000000000604230 <n41>:
  604230: 01 00                        	addl	%eax, (%rax)
		...
  60424e: 00 00                        	addb	%al, (%rax)

0000000000604250 <n47>:
  604250: 63 00                        	movslq	(%rax), %eax
		...
  60426e: 00 00                        	addb	%al, (%rax)

0000000000604270 <n44>:
  604270: 23 00                        	andl	(%rax), %eax
		...
  60428e: 00 00                        	addb	%al, (%rax)

0000000000604290 <n42>:
  604290: 07                           	<unknown>
		...
  6042ad: 00 00                        	addb	%al, (%rax)
  6042af: 00 14 00                     	addb	%dl, (%rax,%rax)

00000000006042b0 <n43>:
  6042b0: 14 00                        	adcb	$0, %al
		...
  6042ce: 00 00                        	addb	%al, (%rax)

00000000006042d0 <n46>:
  6042d0: 2f                           	<unknown>
		...
  6042ed: 00 00                        	addb	%al, (%rax)
  6042ef: 00 e9                        	addb	%ch, %cl

00000000006042f0 <n48>:
  6042f0: e9 03 00 00 00               	jmp	0x6042f8 <n48+0x8>
		...
  60430d: 00 00                        	addb	%al, (%rax)
  60430f: 00 e8                        	addb	%ch, %al

0000000000604310 <node1>:
  604310: e8 03 00 00 01               	callq	0x1604318 <_end+0xfff1d8>
  604315: 00 00                        	addb	%al, (%rax)
  604317: 00 20                        	addb	%ah, (%rax)
  604319: 43 60                        	<unknown>
  60431b: 00 00                        	addb	%al, (%rax)
  60431d: 00 00                        	addb	%al, (%rax)
  60431f: 00 7e 03                     	addb	%bh, 3(%rsi)

0000000000604320 <node2>:
  604320: 7e 03                        	jle	0x604325 <node2+0x5>
  604322: 00 00                        	addb	%al, (%rax)
  604324: 02 00                        	addb	(%rax), %al
  604326: 00 00                        	addb	%al, (%rax)
  604328: 30 43 60                     	xorb	%al, 96(%rbx)
  60432b: 00 00                        	addb	%al, (%rax)
  60432d: 00 00                        	addb	%al, (%rax)
  60432f: 00 d9                        	addb	%bl, %cl

0000000000604330 <node3>:
  604330: d9 02                        	flds	(%rdx)
  604332: 00 00                        	addb	%al, (%rax)
  604334: 03 00                        	addl	(%rax), %eax
  604336: 00 00                        	addb	%al, (%rax)
  604338: 40 43                        	<unknown>
  60433a: 60                           	<unknown>
  60433b: 00 00                        	addb	%al, (%rax)
  60433d: 00 00                        	addb	%al, (%rax)
  60433f: 00 b3 03 00 00 04            	addb	%dh, 67108867(%rbx)

0000000000604340 <node4>:
  604340: b3 03                        	movb	$3, %bl
  604342: 00 00                        	addb	%al, (%rax)
  604344: 04 00                        	addb	$0, %al
  604346: 00 00                        	addb	%al, (%rax)
  604348: 50                           	pushq	%rax
  604349: 43 60                        	<unknown>
  60434b: 00 00                        	addb	%al, (%rax)
  60434d: 00 00                        	addb	%al, (%rax)
  60434f: 00 08                        	addb	%cl, (%rax)

0000000000604350 <node5>:
  604350: 08 03                        	orb	%al, (%rbx)
  604352: 00 00                        	addb	%al, (%rax)
  604354: 05 00 00 00 60               	addl	$1610612736, %eax
  604359: 43 60                        	<unknown>
  60435b: 00 00                        	addb	%al, (%rax)
  60435d: 00 00                        	addb	%al, (%rax)
  60435f: 00 23                        	addb	%ah, (%rbx)

0000000000604360 <node6>:
  604360: 23 03                        	andl	(%rbx), %eax
  604362: 00 00                        	addb	%al, (%rax)
  604364: 06                           	<unknown>
		...
  60436d: 00 00                        	addb	%al, (%rax)
  60436f: 00 67 42                     	addb	%ah, 66(%rdi)

0000000000604370 <user_password>:
  604370: 67 42 46                     	<unknown>
  604373: 30 48 44                     	xorb	%cl, 68(%rax)
  604376: 53                           	pushq	%rbx
  604377: 4b 30 4f 6f                  	xorb	%cl, 111(%r15)
  60437b: 61                           	<unknown>
  60437c: 6b 72 4c 46                  	imull	$70, 76(%rdx), %esi
  604380: 46 72 6f                     	jb	0x6043f2 <ndefused+0x12>
  604383: 4b 00 00                     	addb	%al, (%r8)
  604386: 00 00                        	addb	%al, (%rax)

0000000000604388 <userid>:
  604388: 6a 61                        	pushq	$97
  60438a: 63 6b 73                     	movslq	115(%rbx), %ebp
  60438d: 63 68 77                     	movslq	119(%rax), %ebp
  604390: 61                           	<unknown>
  604391: 62                           	<unknown>
  604392: 00 00                        	addb	%al, (%rax)

0000000000604394 <bomb_id>:
  604394: c7 00                        	<unknown>
  604396: 00 00                        	addb	%al, (%rax)

Disassembly of section .bss:

00000000006043a0 <stdout@@GLIBC_2.2.5>:
...

00000000006043b0 <stdin@@GLIBC_2.2.5>:
...

00000000006043c0 <stderr@@GLIBC_2.2.5>:
...

00000000006043c8 <completed.0>:
...

00000000006043d0 <infile>:
...

00000000006043e0 <ndefused>:
...

0000000000604400 <input_strings>:
...

0000000000605080 <host_table>:
...

00000000006050a0 <_ZL20current_input_string>:
...

Disassembly of section .comment:

0000000000000000 <.comment>:
       0: 47 43                        	<unknown>
       2: 43 3a 20                     	cmpb	(%r8), %spl
       5: 28 47 4e                     	subb	%al, 78(%rdi)
       8: 55                           	pushq	%rbp
       9: 29 20                        	subl	%esp, (%rax)
       b: 37                           	<unknown>
       c: 2e 33 2e                     	xorl	%cs:(%rsi), %ebp
       f: 31 20                        	xorl	%esp, (%rax)
      11: 32 30                        	xorb	(%rax), %dh
      13: 31 38                        	xorl	%edi, (%rax)
      15: 30 37                        	xorb	%dh, (%rdi)
      17: 31 32                        	xorl	%esi, (%rdx)
      19: 20 28                        	andb	%ch, (%rax)
      1b: 52                           	pushq	%rdx
      1c: 65 64 20 48 61               	andb	%cl, %fs:97(%rax)
      21: 74 20                        	je	0x43 <.comment+0x43>
      23: 37                           	<unknown>
      24: 2e 33 2e                     	xorl	%cs:(%rsi), %ebp
      27: 31 2d 31 35 29 00            	xorl	%ebp, 2700593(%rip)  # 29355e <.comment+0x29355e>
      2d: 47 43                        	<unknown>
      2f: 43 3a 20                     	cmpb	(%r8), %spl
      32: 28 47 4e                     	subb	%al, 78(%rdi)
      35: 55                           	pushq	%rbp
      36: 29 20                        	subl	%esp, (%rax)
      38: 31 31                        	xorl	%esi, (%rcx)
      3a: 2e 33 2e                     	xorl	%cs:(%rsi), %ebp
      3d: 30 00                        	xorb	%al, (%rax)

Disassembly of section .debug_aranges:

0000000000000000 <.debug_aranges>:
       0: 3c 00                        	cmpb	$0, %al
       2: 00 00                        	addb	%al, (%rax)
       4: 02 00                        	addb	(%rax), %al
       6: 00 00                        	addb	%al, (%rax)
       8: 00 00                        	addb	%al, (%rax)
       a: 08 00                        	orb	%al, (%rax)
       c: 00 00                        	addb	%al, (%rax)
       e: 00 00                        	addb	%al, (%rax)
      10: d0 0d 40 00 00 00            	rorb	64(%rip)  # 56 <.debug_aranges+0x56>
      16: 00 00                        	addb	%al, (%rax)
      18: 5d                           	popq	%rbp
      19: 01 00                        	addl	%eax, (%rax)
      1b: 00 00                        	addb	%al, (%rax)
      1d: 00 00                        	addb	%al, (%rax)
      1f: 00 30                        	addb	%dh, (%rax)
      21: 0f 40 00                     	cmovol	(%rax), %eax
      24: 00 00                        	addb	%al, (%rax)
      26: 00 00                        	addb	%al, (%rax)
      28: 0f 00 00                     	sldtw	(%rax)
		...
      3f: 00                           	<unknown>

Disassembly of section .debug_info:

0000000000000000 <.debug_info>:
       0: 2c 13                        	subb	$19, %al
       2: 00 00                        	addb	%al, (%rax)
       4: 05 00 01 08 00               	addl	$524544, %eax
       9: 00 00                        	addb	%al, (%rax)
       b: 00 1e                        	addb	%bl, (%rsi)
       d: 31 04 00                     	xorl	%eax, (%rax,%rax)
      10: 00 21                        	addb	%ah, (%rcx)
      12: 22 05 00 00 79 02            	andb	41484288(%rip), %al  # 2790018 <_end+0x218aed8>
      18: 00 00                        	addb	%al, (%rax)
      1a: 0c 00                        	orb	$0, %al
		...
      28: 00 00                        	addb	%al, (%rax)
      2a: 0c 8b                        	orb	$-117, %al
      2c: 01 00                        	addl	%eax, (%rax)
      2e: 00 02                        	addb	%al, (%rdx)
      30: d1 17                        	rcll	(%rdi)
      32: 36 00 00                     	addb	%al, %ss:(%rax)
      35: 00 08                        	addb	%cl, (%rax)
      37: 08 07                        	orb	%al, (%rdi)
      39: 21 01                        	andl	%eax, (%rcx)
      3b: 00 00                        	addb	%al, (%rax)
      3d: 08 01                        	orb	%al, (%rcx)
      3f: 08 a6 05 00 00 08            	orb	%ah, 134217733(%rsi)
      45: 02 07                        	addb	(%rdi), %al
      47: 13 06                        	adcl	(%rsi), %eax
      49: 00 00                        	addb	%al, (%rax)
      4b: 08 04 07                     	orb	%al, (%rdi,%rax)
      4e: 26 01 00                     	addl	%eax, %es:(%rax)
      51: 00 08                        	addb	%cl, (%rax)
      53: 01 06                        	addl	%eax, (%rsi)
      55: a8 05                        	testb	$5, %al
      57: 00 00                        	addb	%al, (%rax)
      59: 08 02                        	orb	%al, (%rdx)
      5b: 05 19 04 00 00               	addl	$1049, %eax
      60: 1f                           	<unknown>
      61: 04 05                        	addb	$5, %al
      63: 69 6e 74 00 08 08 05         	imull	$84412416, 116(%rsi), %ebp
      6a: 6a 02                        	pushq	$2
      6c: 00 00                        	addb	%al, (%rax)
      6e: 0c fb                        	orb	$-5, %al
      70: 05 00 00 03 8c               	addl	$2349006848, %eax
      75: 19 67 00                     	sbbl	%esp, (%rdi)
      78: 00 00                        	addb	%al, (%rax)
      7a: 0c 7a                        	orb	$122, %al
      7c: 06                           	<unknown>
      7d: 00 00                        	addb	%al, (%rax)
      7f: 03 8d 1b 67 00 00            	addl	26395(%rbp), %ecx
      85: 00 20                        	addb	%ah, (%rax)
      87: 08 0a                        	orb	%cl, (%rdx)
      89: 8d 00                        	leal	(%rax), %eax
      8b: 00 00                        	addb	%al, (%rax)
      8d: 08 01                        	orb	%al, (%rcx)
      8f: 06                           	<unknown>
      90: af                           	scasl	%es:(%rdi), %eax
      91: 05 00 00 12 8d               	addl	$2366767104, %eax
      96: 00 00                        	addb	%al, (%rax)
      98: 00 16                        	addb	%dl, (%rsi)
      9a: 88 05 00 00 d8 f1            	movb	%al, -237502464(%rip)  # fffffffff1d800a0 <_end+0xfffffffff177af60>
      a0: 1e                           	<unknown>
      a1: 02 00                        	addb	(%rax), %al
      a3: 00 07                        	addb	%al, (%rdi)
      a5: 77 00                        	ja	0xa7 <.debug_info+0xa7>
      a7: 00 00                        	addb	%al, (%rax)
      a9: 04 f2                        	addb	$-14, %al
      ab: 07                           	<unknown>
      ac: 60                           	<unknown>
      ad: 00 00                        	addb	%al, (%rax)
      af: 00 00                        	addb	%al, (%rax)
      b1: 07                           	<unknown>
      b2: 58                           	popq	%rax
      b3: 02 00                        	addb	(%rax), %al
      b5: 00 04 f7                     	addb	%al, (%rdi,%rsi,8)
      b8: 09 88 00 00 00 08            	orl	%ecx, 134217728(%rax)
      be: 07                           	<unknown>
      bf: 05 04 00 00 04               	addl	$67108868, %eax
      c4: f8                           	clc
      c5: 09 88 00 00 00 10            	orl	%ecx, 268435456(%rax)
      cb: 07                           	<unknown>
      cc: bc 01 00 00 04               	movl	$67108865, %esp
      d1: f9                           	stc
      d2: 09 88 00 00 00 18            	orl	%ecx, 402653184(%rax)
      d8: 07                           	<unknown>
      d9: d5                           	<unknown>
      da: 02 00                        	addb	(%rax), %al
      dc: 00 04 fa                     	addb	%al, (%rdx,%rdi,8)
      df: 09 88 00 00 00 20            	orl	%ecx, 536870912(%rax)
      e5: 07                           	<unknown>
      e6: c2 05 00                     	retq	$5
      e9: 00 04 fb                     	addb	%al, (%rbx,%rdi,8)
      ec: 09 88 00 00 00 28            	orl	%ecx, 671088640(%rax)
      f2: 07                           	<unknown>
      f3: 5f                           	popq	%rdi
      f4: 00 00                        	addb	%al, (%rax)
      f6: 00 04 fc                     	addb	%al, (%rsp,%rdi,8)
      f9: 09 88 00 00 00 30            	orl	%ecx, 805306368(%rax)
      ff: 07                           	<unknown>
     100: 8d 06                        	leal	(%rsi), %eax
     102: 00 00                        	addb	%al, (%rax)
     104: 04 fd                        	addb	$-3, %al
     106: 09 88 00 00 00 38            	orl	%ecx, 939524096(%rax)
     10c: 07                           	<unknown>
     10d: 40 00 00                     	addb	%al, (%rax)
     110: 00 04 fe                     	addb	%al, (%rsi,%rdi,8)
     113: 09 88 00 00 00 40            	orl	%ecx, 1073741824(%rax)
     119: 06                           	<unknown>
     11a: 00 03                        	addb	%al, (%rbx)
     11c: 00 00                        	addb	%al, (%rax)
     11e: 00 01                        	addb	%al, (%rcx)
     120: 09 88 00 00 00 48            	orl	%ecx, 1207959552(%rax)
     126: 06                           	<unknown>
     127: 4a 01 00                     	addq	%rax, (%rax)
     12a: 00 01                        	addb	%al, (%rcx)
     12c: 01 09                        	addl	%ecx, (%rcx)
     12e: 88 00                        	movb	%al, (%rax)
     130: 00 00                        	addb	%al, (%rax)
     132: 50                           	pushq	%rax
     133: 06                           	<unknown>
     134: f9                           	stc
     135: 00 00                        	addb	%al, (%rax)
     137: 00 02                        	addb	%al, (%rdx)
     139: 01 09                        	addl	%ecx, (%rcx)
     13b: 88 00                        	movb	%al, (%rax)
     13d: 00 00                        	addb	%al, (%rax)
     13f: 58                           	popq	%rax
     140: 06                           	<unknown>
     141: 8f 00                        	popq	(%rax)
     143: 00 00                        	addb	%al, (%rax)
     145: 04 01                        	addb	$1, %al
     147: 16                           	<unknown>
     148: fd                           	std
     149: 02 00                        	addb	(%rax), %al
     14b: 00 60 06                     	addb	%ah, 6(%rax)
     14e: 4b 06                        	<unknown>
     150: 00 00                        	addb	%al, (%rax)
     152: 06                           	<unknown>
     153: 01 14 02                     	addl	%edx, (%rdx,%rax)
     156: 03 00                        	addl	(%rax), %eax
     158: 00 68 06                     	addb	%ch, 6(%rax)
     15b: 66 01 00                     	addw	%ax, (%rax)
     15e: 00 08                        	addb	%cl, (%rax)
     160: 01 07                        	addl	%eax, (%rdi)
     162: 60                           	<unknown>
     163: 00 00                        	addb	%al, (%rax)
     165: 00 70 06                     	addb	%dh, 6(%rax)
     168: 5a                           	popq	%rdx
     169: 06                           	<unknown>
     16a: 00 00                        	addb	%al, (%rax)
     16c: 0c 01                        	orb	$1, %al
     16e: 07                           	<unknown>
     16f: 60                           	<unknown>
     170: 00 00                        	addb	%al, (%rax)
     172: 00 74 06 7c                  	addb	%dh, 124(%rsi,%rax)
     176: 05 00 00 0e 01               	addl	$17694720, %eax
     17b: 0d 6e 00 00 00               	orl	$110, %eax
     180: 78 06                        	js	0x188 <.debug_info+0x188>
     182: 62                           	<unknown>
     183: 06                           	<unknown>
     184: 00 00                        	addb	%al, (%rax)
     186: 12 01                        	adcb	(%rcx), %al
     188: 12 44 00 00                  	adcb	(%rax,%rax), %al
     18c: 00 80 06 9b 03 00            	addb	%al, 236294(%rax)
     192: 00 13                        	addb	%dl, (%rbx)
     194: 01 0f                        	addl	%ecx, (%rdi)
     196: 52                           	pushq	%rdx
     197: 00 00                        	addb	%al, (%rax)
     199: 00 82 06 07 00 00            	addb	%al, 1798(%rdx)
     19f: 00 14 01                     	addb	%dl, (%rcx,%rax)
     1a2: 08 07                        	orb	%al, (%rdi)
     1a4: 03 00                        	addl	(%rax), %eax
     1a6: 00 83 06 6e 05 00            	addb	%al, 355846(%rbx)
     1ac: 00 18                        	addb	%bl, (%rax)
     1ae: 01 0f                        	addl	%ecx, (%rdi)
     1b0: 17                           	<unknown>
     1b1: 03 00                        	addl	(%rax), %eax
     1b3: 00 88 06 80 05 00            	addb	%cl, 360454(%rax)
     1b9: 00 21                        	addb	%ah, (%rcx)
     1bb: 01 0f                        	addl	%ecx, (%rdi)
     1bd: 7a 00                        	jp	0x1bf <.debug_info+0x1bf>
     1bf: 00 00                        	addb	%al, (%rax)
     1c1: 90                           	nop
     1c2: 06                           	<unknown>
     1c3: 60                           	<unknown>
     1c4: 03 00                        	addl	(%rax), %eax
     1c6: 00 29                        	addb	%ch, (%rcx)
     1c8: 01 09                        	addl	%ecx, (%rcx)
     1ca: 86 00                        	xchgb	%al, (%rax)
     1cc: 00 00                        	addb	%al, (%rax)
     1ce: 98                           	cwtl
     1cf: 06                           	<unknown>
     1d0: 67 03 00                     	addl	(%eax), %eax
     1d3: 00 2a                        	addb	%ch, (%rdx)
     1d5: 01 09                        	addl	%ecx, (%rcx)
     1d7: 86 00                        	xchgb	%al, (%rax)
     1d9: 00 00                        	addb	%al, (%rax)
     1db: a0 06 6e 03 00 00 2b 01 09   	movabsb	648847100318281222, %al
     1e4: 86 00                        	xchgb	%al, (%rax)
     1e6: 00 00                        	addb	%al, (%rax)
     1e8: a8 06                        	testb	$6, %al
     1ea: 75 03                        	jne	0x1ef <.debug_info+0x1ef>
     1ec: 00 00                        	addb	%al, (%rax)
     1ee: 2c 01                        	subb	$1, %al
     1f0: 09 86 00 00 00 b0            	orl	%eax, -1342177280(%rsi)
     1f6: 06                           	<unknown>
     1f7: 7c 03                        	jl	0x1fc <.debug_info+0x1fc>
     1f9: 00 00                        	addb	%al, (%rax)
     1fb: 2e 01 0a                     	addl	%ecx, %cs:(%rdx)
     1fe: 2a 00                        	subb	(%rax), %al
     200: 00 00                        	addb	%al, (%rax)
     202: b8 06 39 02 00               	movl	$145670, %eax
     207: 00 2f                        	addb	%ch, (%rdi)
     209: 01 07                        	addl	%eax, (%rdi)
     20b: 60                           	<unknown>
     20c: 00 00                        	addb	%al, (%rax)
     20e: 00 c0                        	addb	%al, %al
     210: 06                           	<unknown>
     211: 84 06                        	testb	%al, (%rsi)
     213: 00 00                        	addb	%al, (%rax)
     215: 31 01                        	xorl	%eax, (%rcx)
     217: 08 1c 03                     	orb	%bl, (%rbx,%rax)
     21a: 00 00                        	addb	%al, (%rax)
     21c: c4 00 0c                     	<unknown>
     21f: 8c 05 00 00 05 07            	movw	%es, 117768192(%rip)  # 7050225 <_end+0x6a4b0e5>
     225: 19 99 00 00 00 10            	sbbl	%ebx, 268435456(%rcx)
     22b: 08 06                        	orb	%al, (%rsi)
     22d: 0e                           	<unknown>
     22e: 01 0d 05 00 00 72            	addl	%ecx, 1912602629(%rip)  # 72000239 <_end+0x719fb0f9>
     234: 02 00                        	addb	(%rax), %al
     236: 00 21                        	addb	%ah, (%rcx)
     238: 04 06                        	addb	$6, %al
     23a: 11 03                        	adcl	%eax, (%rbx)
     23c: 57                           	pushq	%rdi
     23d: 02 00                        	addb	(%rax), %al
     23f: 00 17                        	addb	%dl, (%rdi)
     241: 73 02                        	jae	0x245 <.debug_info+0x245>
     243: 00 00                        	addb	%al, (%rax)
     245: 12 13                        	adcb	(%rbx), %dl
     247: 4b 00 00                     	addb	%al, (%r8)
     24a: 00 17                        	addb	%dl, (%rdi)
     24c: 31 05 00 00 13 0a            	xorl	%eax, 169017344(%rip)  # a130252 <_end+0x9b2b112>
     252: 72 02                        	jb	0x256 <.debug_info+0x256>
     254: 00 00                        	addb	%al, (%rax)
     256: 00 07                        	addb	%al, (%rdi)
     258: 06                           	<unknown>
     259: 01 00                        	addl	%eax, (%rax)
     25b: 00 06                        	addb	%al, (%rsi)
     25d: 0f 07                        	sysretl
     25f: 60                           	<unknown>
     260: 00 00                        	addb	%al, (%rax)
     262: 00 00                        	addb	%al, (%rax)
     264: 07                           	<unknown>
     265: 22 02                        	andb	(%rdx), %al
     267: 00 00                        	addb	%al, (%rax)
     269: 06                           	<unknown>
     26a: 14 05                        	adcb	$5, %al
     26c: 37                           	<unknown>
     26d: 02 00                        	addb	(%rax), %al
     26f: 00 04 00                     	addb	%al, (%rax,%rax)
     272: 13 8d 00 00 00 82            	adcl	-2113929216(%rbp), %ecx
     278: 02 00                        	addb	(%rax), %al
     27a: 00 14 36                     	addb	%dl, (%rsi,%rsi)
     27d: 00 00                        	addb	%al, (%rax)
     27f: 00 03                        	addb	%al, (%rbx)
     281: 00 0c 0f                     	addb	%cl, (%rdi,%rcx)
     284: 05 00 00 06 15               	addl	$352714752, %eax
     289: 03 2a                        	addl	(%rdx), %ebp
     28b: 02 00                        	addb	(%rax), %al
     28d: 00 10                        	addb	%dl, (%rax)
     28f: 10 07                        	adcb	%al, (%rdi)
     291: 17                           	<unknown>
     292: 01 0e                        	addl	%ecx, (%rsi)
     294: 03 00                        	addl	(%rax), %eax
     296: 00 b6 02 00 00 07            	addb	%dh, 117440514(%rsi)
     29c: be 02 00 00 07               	movl	$117440514, %esi
     2a1: 18 0b                        	sbbb	%cl, (%rbx)
     2a3: 6e                           	outsb	(%rsi), %dx
     2a4: 00 00                        	addb	%al, (%rax)
     2a6: 00 00                        	addb	%al, (%rax)
     2a8: 07                           	<unknown>
     2a9: 52                           	pushq	%rdx
     2aa: 06                           	<unknown>
     2ab: 00 00                        	addb	%al, (%rax)
     2ad: 07                           	<unknown>
     2ae: 19 0f                        	sbbl	%ecx, (%rdi)
     2b0: 82                           	<unknown>
     2b1: 02 00                        	addb	(%rax), %al
     2b3: 00 08                        	addb	%cl, (%rax)
     2b5: 00 0c 0f                     	addb	%cl, (%rdi,%rcx)
     2b8: 03 00                        	addl	(%rax), %eax
     2ba: 00 07                        	addb	%al, (%rdi)
     2bc: 1a 03                        	sbbb	(%rbx), %al
     2be: 8e 02                        	movw	(%rdx), %es
     2c0: 00 00                        	addb	%al, (%rax)
     2c2: 22 19                        	andb	(%rcx), %bl
     2c4: 00 00                        	addb	%al, (%rax)
     2c6: 00 04 96                     	addb	%al, (%rsi,%rdx,4)
     2c9: 0e                           	<unknown>
     2ca: 16                           	<unknown>
     2cb: 4d 02 00                     	addb	(%r8), %r8b
     2ce: 00 18                        	addb	%bl, (%rax)
     2d0: 9c                           	pushfq
     2d1: fd                           	std
     2d2: 02 00                        	addb	(%rax), %al
     2d4: 00 07                        	addb	%al, (%rdi)
     2d6: e8 01 00 00 04               	callq	0x40002dc <_end+0x39fb19c>
     2db: 9d                           	popfq
     2dc: 16                           	<unknown>
     2dd: fd                           	std
     2de: 02 00                        	addb	(%rax), %al
     2e0: 00 00                        	addb	%al, (%rax)
     2e2: 07                           	<unknown>
     2e3: b4 05                        	movb	$5, %ah
     2e5: 00 00                        	addb	%al, (%rax)
     2e7: 04 9e                        	addb	$-98, %al
     2e9: 14 02                        	adcb	$2, %al
     2eb: 03 00                        	addl	(%rax), %eax
     2ed: 00 08                        	addb	%cl, (%rax)
     2ef: 07                           	<unknown>
     2f0: bf 02 00 00 04               	movl	$67108866, %edi
     2f5: a2 07 60 00 00 00 10 00 0a   	movabsb	%al, 720593532565348359
     2fe: ca 02 00                     	lretl	$2
     301: 00 0a                        	addb	%cl, (%rdx)
     303: 99                           	cltd
     304: 00 00                        	addb	%al, (%rax)
     306: 00 13                        	addb	%dl, (%rbx)
     308: 8d 00                        	leal	(%rax), %eax
     30a: 00 00                        	addb	%al, (%rax)
     30c: 17                           	<unknown>
     30d: 03 00                        	addl	(%rax), %eax
     30f: 00 14 36                     	addb	%dl, (%rsi,%rsi)
     312: 00 00                        	addb	%al, (%rax)
     314: 00 00                        	addb	%al, (%rax)
     316: 00 0a                        	addb	%cl, (%rdx)
     318: c2 02 00                     	retq	$2
     31b: 00 13                        	addb	%dl, (%rbx)
     31d: 8d 00                        	leal	(%rax), %eax
     31f: 00 00                        	addb	%al, (%rax)
     321: 2c 03                        	subb	$3, %al
     323: 00 00                        	addb	%al, (%rax)
     325: 14 36                        	adcb	$54, %al
     327: 00 00                        	addb	%al, (%rax)
     329: 00 13                        	addb	%dl, (%rbx)
     32b: 00 0a                        	addb	%cl, (%rdx)
     32d: 94                           	xchgl	%esp, %eax
     32e: 00 00                        	addb	%al, (%rax)
     330: 00 0c 12                     	addb	%cl, (%rdx,%rdx)
     333: 03 00                        	addl	(%rax), %eax
     335: 00 08                        	addb	%cl, (%rax)
     337: 4e 13 b6 02 00 00 12         	adcq	301989890(%rsi), %r14
     33e: 31 03                        	xorl	%eax, (%rbx)
     340: 00 00                        	addb	%al, (%rax)
     342: 23 e2                        	andl	%edx, %esp
     344: 01 00                        	addl	%eax, (%rax)
     346: 00 08                        	addb	%cl, (%rax)
     348: 87 19                        	xchgl	%ebx, (%rcx)
     34a: 02 03                        	addb	(%rbx), %al
     34c: 00 00                        	addb	%al, (%rax)
     34e: 24 73                        	andb	$115, %al
     350: 74 64                        	je	0x3b6 <.debug_info+0x3b6>
     352: 00 13                        	addb	%dl, (%rbx)
     354: 16                           	<unknown>
     355: 01 0b                        	addl	%ecx, (%rbx)
     357: c4 05 00                     	<unknown>
     35a: 00 02                        	addb	%al, (%rdx)
     35c: 09 62 0b                     	orl	%esp, 11(%rdx)
     35f: 1e                           	<unknown>
     360: 02 00                        	addb	(%rax), %al
     362: 00 02                        	addb	%al, (%rdx)
     364: 09 63 0b                     	orl	%esp, 11(%rbx)
     367: 31 03                        	xorl	%eax, (%rbx)
     369: 00 00                        	addb	%al, (%rax)
     36b: 02 09                        	addb	(%rcx), %cl
     36d: 65 0b c4                     	orl	%esp, %eax
     370: 05 00 00 02 09               	addl	$151126016, %eax
     375: 66 0b db                     	orw	%bx, %bx
     378: 05 00 00 02 09               	addl	$151126016, %eax
     37d: 67 0b f1                     	orl	%ecx, %esi
     380: 05 00 00 02 09               	addl	$151126016, %eax
     385: 68 0b 08 06 00               	pushq	$395275
     38a: 00 02                        	addb	%al, (%rdx)
     38c: 09 69 0b                     	orl	%ebp, 11(%rcx)
     38f: 1f                           	<unknown>
     390: 06                           	<unknown>
     391: 00 00                        	addb	%al, (%rax)
     393: 02 09                        	addb	(%rcx), %cl
     395: 6a 0b                        	pushq	$11
     397: 35 06 00 00 02               	xorl	$33554438, %eax
     39c: 09 6b 0b                     	orl	%ebp, 11(%rbx)
     39f: 4c 06                        	<unknown>
     3a1: 00 00                        	addb	%al, (%rax)
     3a3: 02 09                        	addb	(%rcx), %cl
     3a5: 6c                           	insb	%dx, %es:(%rdi)
     3a6: 0b 6d 06                     	orl	6(%rbp), %ebp
     3a9: 00 00                        	addb	%al, (%rax)
     3ab: 02 09                        	addb	(%rcx), %cl
     3ad: 6d                           	insl	%dx, %es:(%rdi)
     3ae: 0b 8e 06 00 00 02            	orl	33554438(%rsi), %ecx
     3b4: 09 71 0b                     	orl	%esi, 11(%rcx)
     3b7: a9 06 00 00 02               	testl	$33554438, %eax
     3bc: 09 72 0b                     	orl	%esi, 11(%rdx)
     3bf: cf                           	iretl
     3c0: 06                           	<unknown>
     3c1: 00 00                        	addb	%al, (%rax)
     3c3: 02 09                        	addb	(%rcx), %cl
     3c5: 74 0b                        	je	0x3d2 <.debug_info+0x3d2>
     3c7: ef                           	outl	%eax, %dx
     3c8: 06                           	<unknown>
     3c9: 00 00                        	addb	%al, (%rax)
     3cb: 02 09                        	addb	(%rcx), %cl
     3cd: 75 0b                        	jne	0x3da <.debug_info+0x3da>
     3cf: 10 07                        	adcb	%al, (%rdi)
     3d1: 00 00                        	addb	%al, (%rax)
     3d3: 02 09                        	addb	(%rcx), %cl
     3d5: 76 0b                        	jbe	0x3e2 <.debug_info+0x3e2>
     3d7: 31 07                        	xorl	%eax, (%rdi)
     3d9: 00 00                        	addb	%al, (%rax)
     3db: 02 09                        	addb	(%rcx), %cl
     3dd: 78 0b                        	js	0x3ea <.debug_info+0x3ea>
     3df: 48 07                        	<unknown>
     3e1: 00 00                        	addb	%al, (%rax)
     3e3: 02 09                        	addb	(%rcx), %cl
     3e5: 79 0b                        	jns	0x3f2 <.debug_info+0x3f2>
     3e7: 5f                           	popq	%rdi
     3e8: 07                           	<unknown>
     3e9: 00 00                        	addb	%al, (%rax)
     3eb: 02 09                        	addb	(%rcx), %cl
     3ed: 7e 0b                        	jle	0x3fa <.debug_info+0x3fa>
     3ef: 6b 07 00                     	imull	$0, (%rdi), %eax
     3f2: 00 02                        	addb	%al, (%rdx)
     3f4: 09 83 0b 7d 07 00            	orl	%eax, 490763(%rbx)
     3fa: 00 02                        	addb	%al, (%rdx)
     3fc: 09 84 0b 93 07 00 00         	orl	%eax, 1939(%rbx,%rcx)
     403: 02 09                        	addb	(%rcx), %cl
     405: 85 0b                        	testl	%ecx, (%rbx)
     407: ae                           	scasb	%es:(%rdi), %al
     408: 07                           	<unknown>
     409: 00 00                        	addb	%al, (%rax)
     40b: 02 09                        	addb	(%rcx), %cl
     40d: 87 0b                        	xchgl	%ecx, (%rbx)
     40f: c0 07 00                     	rolb	$0, (%rdi)
     412: 00 02                        	addb	%al, (%rdx)
     414: 09 88 0b d7 07 00            	orl	%ecx, 513803(%rax)
     41a: 00 02                        	addb	%al, (%rdx)
     41c: 09 8b 0b fd 07 00            	orl	%ecx, 523531(%rbx)
     422: 00 02                        	addb	%al, (%rdx)
     424: 09 8d 0b 09 08 00            	orl	%ecx, 526603(%rbp)
     42a: 00 02                        	addb	%al, (%rdx)
     42c: 09 8f 0b 1f 08 00            	orl	%ecx, 532235(%rdi)
     432: 00 02                        	addb	%al, (%rdx)
     434: 0a 7f 0b                     	orb	11(%rdi), %bh
     437: 70 08                        	jo	0x441 <.debug_info+0x441>
     439: 00 00                        	addb	%al, (%rax)
     43b: 02 0a                        	addb	(%rdx), %cl
     43d: 80 0b a3                     	orb	$-93, (%rbx)
     440: 08 00                        	orb	%al, (%rax)
     442: 00 02                        	addb	%al, (%rdx)
     444: 0a 86 0b 1c 09 00            	orb	597003(%rsi), %al
     44a: 00 02                        	addb	%al, (%rdx)
     44c: 0a 89 0b 39 09 00            	orb	604427(%rcx), %cl
     452: 00 02                        	addb	%al, (%rdx)
     454: 0a 8c 0b 54 09 00 00         	orb	2388(%rbx,%rcx), %cl
     45b: 02 0a                        	addb	(%rdx), %cl
     45d: 8d 0b                        	leal	(%rbx), %ecx
     45f: 71 09                        	jno	0x46a <.debug_info+0x46a>
     461: 00 00                        	addb	%al, (%rax)
     463: 02 0a                        	addb	(%rdx), %cl
     465: 8e 0b                        	movw	(%rbx), %cs
     467: 87 09                        	xchgl	%ecx, (%rcx)
     469: 00 00                        	addb	%al, (%rax)
     46b: 02 0a                        	addb	(%rdx), %cl
     46d: 8f 0b 9d                     	<unknown>
     470: 09 00                        	orl	%eax, (%rax)
     472: 00 02                        	addb	%al, (%rdx)
     474: 0a 91 0b c7 09 00            	orb	640779(%rcx), %dl
     47a: 00 02                        	addb	%al, (%rdx)
     47c: 0a 94 0b e3 09 00 00         	orb	2531(%rbx,%rcx), %dl
     483: 02 0a                        	addb	(%rdx), %cl
     485: 96                           	xchgl	%esi, %eax
     486: 0b fa                        	orl	%edx, %edi
     488: 09 00                        	orl	%eax, (%rax)
     48a: 00 02                        	addb	%al, (%rdx)
     48c: 0a 99 0b 16 0a 00            	orb	661003(%rcx), %bl
     492: 00 02                        	addb	%al, (%rdx)
     494: 0a 9a 0b 32 0a 00            	orb	668171(%rdx), %bl
     49a: 00 02                        	addb	%al, (%rdx)
     49c: 0a 9b 0b 64 0a 00            	orb	680971(%rbx), %bl
     4a2: 00 02                        	addb	%al, (%rdx)
     4a4: 0a 9d 0b 85 0a 00            	orb	689419(%rbp), %bl
     4aa: 00 02                        	addb	%al, (%rdx)
     4ac: 0a a0 0b a6 0a 00            	orb	697867(%rax), %ah
     4b2: 00 02                        	addb	%al, (%rdx)
     4b4: 0a a3 0b b7 0a 00            	orb	702219(%rbx), %ah
     4ba: 00 02                        	addb	%al, (%rdx)
     4bc: 0a a5 0b c4 0a 00            	orb	705547(%rbp), %ah
     4c2: 00 02                        	addb	%al, (%rdx)
     4c4: 0a a6 0b d6 0a 00            	orb	710155(%rsi), %ah
     4ca: 00 02                        	addb	%al, (%rdx)
     4cc: 0a a7 0b f6 0a 00            	orb	718347(%rdi), %ah
     4d2: 00 02                        	addb	%al, (%rdx)
     4d4: 0a a8 0b 16 0b 00            	orb	726539(%rax), %ch
     4da: 00 02                        	addb	%al, (%rdx)
     4dc: 0a a9 0b 36 0b 00            	orb	734731(%rcx), %ch
     4e2: 00 02                        	addb	%al, (%rdx)
     4e4: 0a ab 0b 4d 0b 00            	orb	740619(%rbx), %ch
     4ea: 00 02                        	addb	%al, (%rdx)
     4ec: 0a ac 0b 73 0b 00 00         	orb	2931(%rbx,%rcx), %ch
     4f3: 02 0a                        	addb	(%rdx), %cl
     4f5: f0                           	lock
     4f6: 16                           	<unknown>
     4f7: dd 08                        	fisttpll	(%rax)
     4f9: 00 00                        	addb	%al, (%rax)
     4fb: 02 0a                        	addb	(%rdx), %cl
     4fd: f5                           	cmc
     4fe: 16                           	<unknown>
     4ff: d4                           	<unknown>
     500: 0b 00                        	orl	(%rax), %eax
     502: 00 02                        	addb	%al, (%rdx)
     504: 0a f6                        	orb	%dh, %dh
     506: 16                           	<unknown>
     507: f0                           	lock
     508: 0b 00                        	orl	(%rax), %eax
     50a: 00 02                        	addb	%al, (%rdx)
     50c: 0a f8                        	orb	%al, %bh
     50e: 16                           	<unknown>
     50f: 0c 0c                        	orb	$12, %al
     511: 00 00                        	addb	%al, (%rax)
     513: 02 0a                        	addb	(%rdx), %cl
     515: f9                           	stc
     516: 16                           	<unknown>
     517: 63 0c 00                     	movslq	(%rax,%rax), %ecx
     51a: 00 02                        	addb	%al, (%rdx)
     51c: 0a fa                        	orb	%dl, %bh
     51e: 16                           	<unknown>
     51f: 23 0c 00                     	andl	(%rax,%rax), %ecx
     522: 00 02                        	addb	%al, (%rdx)
     524: 0a fb                        	orb	%bl, %bh
     526: 16                           	<unknown>
     527: 43 0c 00                     	orb	$0, %al
     52a: 00 02                        	addb	%al, (%rdx)
     52c: 0a fc                        	orb	%ah, %bh
     52e: 16                           	<unknown>
     52f: 85 0c 00                     	testl	%ecx, (%rax,%rax)
     532: 00 02                        	addb	%al, (%rdx)
     534: 0b 4d 0b                     	orl	11(%rbp), %ecx
     537: a7                           	cmpsl	%es:(%rdi), (%rsi)
     538: 0c 00                        	orb	$0, %al
     53a: 00 02                        	addb	%al, (%rdx)
     53c: 0b 4d 0b                     	orl	11(%rbp), %ecx
     53f: c9                           	leave
     540: 0c 00                        	orb	$0, %al
     542: 00 02                        	addb	%al, (%rdx)
     544: 0b 4e 0b                     	orl	11(%rsi), %ecx
     547: eb 0c                        	jmp	0x555 <.debug_info+0x555>
     549: 00 00                        	addb	%al, (%rax)
     54b: 02 0b                        	addb	(%rbx), %cl
     54d: 53                           	pushq	%rbx
     54e: 0b 0b                        	orl	(%rbx), %ecx
     550: 0d 00 00 02 0b               	orl	$184680448, %eax
     555: 54                           	pushq	%rsp
     556: 0b 26                        	orl	(%rsi), %esp
     558: 0d 00 00 02 0b               	orl	$184680448, %eax
     55d: 55                           	pushq	%rbp
     55e: 0b 41 0d                     	orl	13(%rcx), %eax
     561: 00 00                        	addb	%al, (%rax)
     563: 02 0b                        	addb	(%rbx), %cl
     565: 57                           	pushq	%rdi
     566: 0b 5c 0d 00                  	orl	(%rbp,%rcx), %ebx
     56a: 00 02                        	addb	%al, (%rdx)
     56c: 0b 58 0b                     	orl	11(%rax), %ebx
     56f: 73 0d                        	jae	0x57e <.debug_info+0x57e>
     571: 00 00                        	addb	%al, (%rax)
     573: 02 0b                        	addb	(%rbx), %cl
     575: 5d                           	popq	%rbp
     576: 0b 8a 0d 00 00 02            	orl	33554445(%rdx), %ecx
     57c: 0b 5e 0b                     	orl	11(%rsi), %ebx
     57f: a6                           	cmpsb	%es:(%rdi), (%rsi)
     580: 0d 00 00 02 0b               	orl	$184680448, %eax
     585: 5f                           	popq	%rdi
     586: 0b c6                        	orl	%esi, %eax
     588: 0d 00 00 02 0b               	orl	$184680448, %eax
     58d: 5f                           	popq	%rdi
     58e: 0b e3                        	orl	%ebx, %esp
     590: 0d 00 00 02 0b               	orl	$184680448, %eax
     595: 60                           	<unknown>
     596: 0b 00                        	orl	(%rax), %eax
     598: 0e                           	<unknown>
     599: 00 00                        	addb	%al, (%rax)
     59b: 02 0b                        	addb	(%rbx), %cl
     59d: 60                           	<unknown>
     59e: 0b 20                        	orl	(%rax), %esp
     5a0: 0e                           	<unknown>
     5a1: 00 00                        	addb	%al, (%rax)
     5a3: 02 0b                        	addb	(%rbx), %cl
     5a5: 61                           	<unknown>
     5a6: 0b 40 0e                     	orl	14(%rax), %eax
     5a9: 00 00                        	addb	%al, (%rax)
     5ab: 02 0b                        	addb	(%rbx), %cl
     5ad: 61                           	<unknown>
     5ae: 0b 5d 0e                     	orl	14(%rbp), %ebx
     5b1: 00 00                        	addb	%al, (%rax)
     5b3: 02 0b                        	addb	(%rbx), %cl
     5b5: 62                           	<unknown>
     5b6: 0b 7a 0e                     	orl	14(%rdx), %edi
     5b9: 00 00                        	addb	%al, (%rax)
     5bb: 02 0b                        	addb	(%rbx), %cl
     5bd: 62                           	<unknown>
     5be: 0b 9a 0e 00 00 00            	orl	14(%rdx), %ebx
     5c4: 0e                           	<unknown>
     5c5: f9                           	stc
     5c6: 01 00                        	addl	%eax, (%rax)
     5c8: 00 08                        	addb	%cl, (%rax)
     5ca: f5                           	cmc
     5cb: 02 d6                        	addb	%dh, %dl
     5cd: 05 00 00 01 d6               	addl	$3590389760, %eax
     5d2: 05 00 00 00 0a               	addl	$167772160, %eax
     5d7: 1e                           	<unknown>
     5d8: 02 00                        	addb	(%rax), %al
     5da: 00 04 38                     	addb	%al, (%rax,%rdi)
     5dd: 05 00 00 08 c7               	addl	$3339190272, %eax
     5e2: 0c 60                        	orb	$96, %al
     5e4: 00 00                        	addb	%al, (%rax)
     5e6: 00 f1                        	addb	%dh, %cl
     5e8: 05 00 00 01 d6               	addl	$3590389760, %eax
     5ed: 05 00 00 00 03               	addl	$50331648, %eax
     5f2: de 05 00 00 08 f7            	fiadds	-150470656(%rip)  # fffffffff70805f8 <_end+0xfffffffff6a7b4b8>
     5f8: 02 0c 60                     	addb	(%rax,%riz,2), %cl
     5fb: 00 00                        	addb	%al, (%rax)
     5fd: 00 08                        	addb	%cl, (%rax)
     5ff: 06                           	<unknown>
     600: 00 00                        	addb	%al, (%rax)
     602: 01 d6                        	addl	%edx, %esi
     604: 05 00 00 00 03               	addl	$50331648, %eax
     609: 46 02 00                     	addb	(%rax), %r8b
     60c: 00 08                        	addb	%cl, (%rax)
     60e: f9                           	stc
     60f: 02 0c 60                     	addb	(%rax,%riz,2), %cl
     612: 00 00                        	addb	%al, (%rax)
     614: 00 1f                        	addb	%bl, (%rdi)
     616: 06                           	<unknown>
     617: 00 00                        	addb	%al, (%rax)
     619: 01 d6                        	addl	%edx, %esi
     61b: 05 00 00 00 04               	addl	$67108864, %eax
     620: 4c 00 00                     	addb	%r8b, (%rax)
     623: 00 08                        	addb	%cl, (%rax)
     625: cc                           	int3
     626: 0c 60                        	orb	$96, %al
     628: 00 00                        	addb	%al, (%rax)
     62a: 00 35 06 00 00 01            	addb	%dh, 16777222(%rip)  # 1000636 <_end+0x9fb4f6>
     630: d6                           	<unknown>
     631: 05 00 00 00 03               	addl	$50331648, %eax
     636: 8f 03                        	popq	(%rbx)
     638: 00 00                        	addb	%al, (%rax)
     63a: 08 dd                        	orb	%bl, %ch
     63c: 01 0c 60                     	addl	%ecx, (%rax,%riz,2)
     63f: 00 00                        	addb	%al, (%rax)
     641: 00 4c 06 00                  	addb	%cl, (%rsi,%rax)
     645: 00 01                        	addb	%al, (%rcx)
     647: d6                           	<unknown>
     648: 05 00 00 00 03               	addl	$50331648, %eax
     64d: 14 01                        	adcb	$1, %al
     64f: 00 00                        	addb	%al, (%rax)
     651: 08 db                        	orb	%bl, %bl
     653: 02 0c 60                     	addb	(%rax,%riz,2), %cl
     656: 00 00                        	addb	%al, (%rax)
     658: 00 68 06                     	addb	%ch, 6(%rax)
     65b: 00 00                        	addb	%al, (%rax)
     65d: 01 d6                        	addl	%edx, %esi
     65f: 05 00 00 01 68               	addl	$1744896000, %eax
     664: 06                           	<unknown>
     665: 00 00                        	addb	%al, (%rax)
     667: 00 0a                        	addb	%cl, (%rdx)
     669: 31 03                        	xorl	%eax, (%rbx)
     66b: 00 00                        	addb	%al, (%rax)
     66d: 03 aa 03 00 00 08            	addl	134217731(%rdx), %ebp
     673: 34 02                        	xorb	$2, %al
     675: 0e                           	<unknown>
     676: 88 00                        	movb	%al, (%rax)
     678: 00 00                        	addb	%al, (%rax)
     67a: 8e 06                        	movw	(%rsi), %es
     67c: 00 00                        	addb	%al, (%rax)
     67e: 01 88 00 00 00 01            	addl	%ecx, 16777216(%rax)
     684: 60                           	<unknown>
     685: 00 00                        	addb	%al, (%rax)
     687: 00 01                        	addb	%al, (%rcx)
     689: d6                           	<unknown>
     68a: 05 00 00 00 04               	addl	$67108864, %eax
     68f: 95                           	xchgl	%ebp, %eax
     690: 03 00                        	addl	(%rax), %eax
     692: 00 08                        	addb	%cl, (%rax)
     694: e8 0e d6 05 00               	callq	0x5dca7 <.debug_info+0x5dca7>
     699: 00 a9 06 00 00 01            	addb	%ch, 16777222(%rcx)
     69f: 2c 03                        	subb	$3, %al
     6a1: 00 00                        	addb	%al, (%rax)
     6a3: 01 2c 03                     	addl	%ebp, (%rbx,%rax)
     6a6: 00 00                        	addb	%al, (%rax)
     6a8: 00 03                        	addb	%al, (%rbx)
     6aa: 07                           	<unknown>
     6ab: 05 00 00 08 86               	addl	$2248671232, %eax
     6b0: 02 0f                        	addb	(%rdi), %cl
     6b2: 2a 00                        	subb	(%rax), %al
     6b4: 00 00                        	addb	%al, (%rax)
     6b6: cf                           	iretl
     6b7: 06                           	<unknown>
     6b8: 00 00                        	addb	%al, (%rax)
     6ba: 01 86 00 00 00 01            	addl	%eax, 16777216(%rsi)
     6c0: 2a 00                        	subb	(%rax), %al
     6c2: 00 00                        	addb	%al, (%rax)
     6c4: 01 2a                        	addl	%ebp, (%rdx)
     6c6: 00 00                        	addb	%al, (%rax)
     6c8: 00 01                        	addb	%al, (%rcx)
     6ca: d6                           	<unknown>
     6cb: 05 00 00 00 04               	addl	$67108864, %eax
     6d0: 1a 02                        	sbbb	(%rdx), %al
     6d2: 00 00                        	addb	%al, (%rax)
     6d4: 08 ee                        	orb	%ch, %dh
     6d6: 0e                           	<unknown>
     6d7: d6                           	<unknown>
     6d8: 05 00 00 ef 06               	addl	$116326400, %eax
     6dd: 00 00                        	addb	%al, (%rax)
     6df: 01 2c 03                     	addl	%ebp, (%rbx,%rax)
     6e2: 00 00                        	addb	%al, (%rax)
     6e4: 01 2c 03                     	addl	%ebp, (%rbx,%rax)
     6e7: 00 00                        	addb	%al, (%rax)
     6e9: 01 d6                        	addl	%edx, %esi
     6eb: 05 00 00 00 03               	addl	$50331648, %eax
     6f0: 2c 03                        	subb	$3, %al
     6f2: 00 00                        	addb	%al, (%rax)
     6f4: 08 ac 02 0c 60 00 00         	orb	%ch, 24588(%rdx,%rax)
     6fb: 00 10                        	addb	%dl, (%rax)
     6fd: 07                           	<unknown>
     6fe: 00 00                        	addb	%al, (%rax)
     700: 01 d6                        	addl	%edx, %esi
     702: 05 00 00 01 67               	addl	$1728118784, %eax
     707: 00 00                        	addb	%al, (%rax)
     709: 00 01                        	addb	%al, (%rcx)
     70b: 60                           	<unknown>
     70c: 00 00                        	addb	%al, (%rax)
     70e: 00 00                        	addb	%al, (%rax)
     710: 03 4c 03 00                  	addl	(%rbx,%rax), %ecx
     714: 00 08                        	addb	%cl, (%rax)
     716: e0 02                        	loopne	0x71a <.debug_info+0x71a>
     718: 0c 60                        	orb	$96, %al
     71a: 00 00                        	addb	%al, (%rax)
     71c: 00 2c 07                     	addb	%ch, (%rdi,%rax)
     71f: 00 00                        	addb	%al, (%rax)
     721: 01 d6                        	addl	%edx, %esi
     723: 05 00 00 01 2c               	addl	$738263040, %eax
     728: 07                           	<unknown>
     729: 00 00                        	addb	%al, (%rax)
     72b: 00 0a                        	addb	%cl, (%rdx)
     72d: 3d 03 00 00 03               	cmpl	$50331651, %eax
     732: 53                           	pushq	%rbx
     733: 00 00                        	addb	%al, (%rax)
     735: 00 08                        	addb	%cl, (%rax)
     737: b1 02                        	movb	$2, %cl
     739: 11 67 00                     	adcl	%esp, (%rdi)
     73c: 00 00                        	addb	%al, (%rax)
     73e: 48 07                        	<unknown>
     740: 00 00                        	addb	%al, (%rax)
     742: 01 d6                        	addl	%edx, %esi
     744: 05 00 00 00 03               	addl	$50331648, %eax
     749: 90                           	nop
     74a: 03 00                        	addl	(%rax), %eax
     74c: 00 08                        	addb	%cl, (%rax)
     74e: de 01                        	fiadds	(%rcx)
     750: 0c 60                        	orb	$96, %al
     752: 00 00                        	addb	%al, (%rax)
     754: 00 5f 07                     	addb	%bl, 7(%rdi)
     757: 00 00                        	addb	%al, (%rax)
     759: 01 d6                        	addl	%edx, %esi
     75b: 05 00 00 00 18               	addl	$402653184, %eax
     760: cd 02                        	int	$2
     762: 00 00                        	addb	%al, (%rax)
     764: 0c 2c                        	orb	$44, %al
     766: 01 60 00                     	addl	%esp, (%rax)
     769: 00 00                        	addb	%al, (%rax)
     76b: 0e                           	<unknown>
     76c: f2 02 00                     	repne		addb	(%rax), %al
     76f: 00 08                        	addb	%cl, (%rax)
     771: 07                           	<unknown>
     772: 03 7d 07                     	addl	7(%rbp), %edi
     775: 00 00                        	addb	%al, (%rax)
     777: 01 2c 03                     	addl	%ebp, (%rbx,%rax)
     77a: 00 00                        	addb	%al, (%rax)
     77c: 00 04 32                     	addb	%al, (%rdx,%rsi)
     77f: 00 00                        	addb	%al, (%rax)
     781: 00 08                        	addb	%cl, (%rax)
     783: 90                           	nop
     784: 0c 60                        	orb	$96, %al
     786: 00 00                        	addb	%al, (%rax)
     788: 00 93 07 00 00 01            	addb	%dl, 16777223(%rbx)
     78e: 2c 03                        	subb	$3, %al
     790: 00 00                        	addb	%al, (%rax)
     792: 00 04 b7                     	addb	%al, (%rdi,%rsi,4)
     795: 02 00                        	addb	(%rax), %al
     797: 00 08                        	addb	%cl, (%rax)
     799: 92                           	xchgl	%edx, %eax
     79a: 0c 60                        	orb	$96, %al
     79c: 00 00                        	addb	%al, (%rax)
     79e: 00 ae 07 00 00 01            	addb	%ch, 16777223(%rsi)
     7a4: 2c 03                        	subb	$3, %al
     7a6: 00 00                        	addb	%al, (%rax)
     7a8: 01 2c 03                     	addl	%ebp, (%rbx,%rax)
     7ab: 00 00                        	addb	%al, (%rax)
     7ad: 00 0e                        	addb	%cl, (%rsi)
     7af: 3f                           	<unknown>
     7b0: 05 00 00 08 b6               	addl	$3053977600, %eax
     7b5: 02 c0                        	addb	%al, %al
     7b7: 07                           	<unknown>
     7b8: 00 00                        	addb	%al, (%rax)
     7ba: 01 d6                        	addl	%edx, %esi
     7bc: 05 00 00 00 0e               	addl	$234881024, %eax
     7c1: eb 02                        	jmp	0x7c5 <.debug_info+0x7c5>
     7c3: 00 00                        	addb	%al, (%rax)
     7c5: 08 22                        	orb	%ah, (%rdx)
     7c7: 01 d7                        	addl	%edx, %edi
     7c9: 07                           	<unknown>
     7ca: 00 00                        	addb	%al, (%rax)
     7cc: 01 d6                        	addl	%edx, %esi
     7ce: 05 00 00 01 88               	addl	$2281766912, %eax
     7d3: 00 00                        	addb	%al, (%rax)
     7d5: 00 00                        	addb	%al, (%rax)
     7d7: 03 24 00                     	addl	(%rax,%rax), %esp
     7da: 00 00                        	addb	%al, (%rax)
     7dc: 08 26                        	orb	%ah, (%rsi)
     7de: 01 0c 60                     	addl	%ecx, (%rax,%riz,2)
     7e1: 00 00                        	addb	%al, (%rax)
     7e3: 00 fd                        	addb	%bh, %ch
     7e5: 07                           	<unknown>
     7e6: 00 00                        	addb	%al, (%rax)
     7e8: 01 d6                        	addl	%edx, %esi
     7ea: 05 00 00 01 88               	addl	$2281766912, %eax
     7ef: 00 00                        	addb	%al, (%rax)
     7f1: 00 01                        	addb	%al, (%rcx)
     7f3: 60                           	<unknown>
     7f4: 00 00                        	addb	%al, (%rax)
     7f6: 00 01                        	addb	%al, (%rcx)
     7f8: 2a 00                        	subb	(%rax), %al
     7fa: 00 00                        	addb	%al, (%rax)
     7fc: 00 18                        	addb	%bl, (%rax)
     7fe: ba 05 00 00 08               	movl	$134217733, %edx
     803: 9f                           	lahf
     804: 0e                           	<unknown>
     805: d6                           	<unknown>
     806: 05 00 00 04 e4               	addl	$3825467392, %eax
     80b: 02 00                        	addb	(%rax), %al
     80d: 00 08                        	addb	%cl, (%rax)
     80f: ad                           	lodsl	(%rsi), %eax
     810: 0e                           	<unknown>
     811: 88 00                        	movb	%al, (%rax)
     813: 00 00                        	addb	%al, (%rax)
     815: 1f                           	<unknown>
     816: 08 00                        	orb	%al, (%rax)
     818: 00 01                        	addb	%al, (%rcx)
     81a: 88 00                        	movb	%al, (%rax)
     81c: 00 00                        	addb	%al, (%rax)
     81e: 00 03                        	addb	%al, (%rbx)
     820: be 00 00 00 08               	movl	$134217728, %esi
     825: 7f 02                        	jg	0x829 <.debug_info+0x829>
     827: 0c 60                        	orb	$96, %al
     829: 00 00                        	addb	%al, (%rax)
     82b: 00 3b                        	addb	%bh, (%rbx)
     82d: 08 00                        	orb	%al, (%rax)
     82f: 00 01                        	addb	%al, (%rcx)
     831: 60                           	<unknown>
     832: 00 00                        	addb	%al, (%rax)
     834: 00 01                        	addb	%al, (%rcx)
     836: d6                           	<unknown>
     837: 05 00 00 00 08               	addl	$134217728, %eax
     83c: 20 03                        	andb	%al, (%rbx)
     83e: 54                           	pushq	%rsp
     83f: 03 00                        	addl	(%rax), %eax
     841: 00 08                        	addb	%cl, (%rax)
     843: 10 04 ee                     	adcb	%al, (%rsi,%rbp,8)
     846: 01 00                        	addl	%eax, (%rax)
     848: 00 10                        	addb	%dl, (%rax)
     84a: 08 0d 3b 03 3f 02            	orb	%cl, 37684027(%rip)  # 23f0b8b <_end+0x1deba4b>
     850: 00 00                        	addb	%al, (%rax)
     852: 70 08                        	jo	0x85c <.debug_info+0x85c>
     854: 00 00                        	addb	%al, (%rax)
     856: 07                           	<unknown>
     857: b2 02                        	movb	$2, %dl
     859: 00 00                        	addb	%al, (%rax)
     85b: 0d 3c 09 60 00               	orl	$6293820, %eax
     860: 00 00                        	addb	%al, (%rax)
     862: 00 15 72 65 6d 00            	addb	%dl, 7169394(%rip)  # 6d6dda <_end+0xd1c9a>
     868: 3d 09 60 00 00               	cmpl	$24585, %eax
     86d: 00 04 00                     	addb	%al, (%rax,%rax)
     870: 0c 40                        	orb	$64, %al
     872: 02 00                        	addb	(%rax), %al
     874: 00 0d 3e 05 49 08            	addb	%cl, 139003198(%rip)  # 8490db8 <_end+0x7e8bc78>
     87a: 00 00                        	addb	%al, (%rax)
     87c: 10 10                        	adcb	%dl, (%rax)
     87e: 0d 43 03 f3 05               	orl	$99812163, %eax
     883: 00 00                        	addb	%al, (%rax)
     885: a3 08 00 00 07 b2 02 00 00   	movabsl	%eax, 2963644874760
     88e: 0d 44 0e 67 00               	orl	$6753860, %eax
     893: 00 00                        	addb	%al, (%rax)
     895: 00 15 72 65 6d 00            	addb	%dl, 7169394(%rip)  # 6d6e0d <_end+0xd1ccd>
     89b: 45 0e                        	<unknown>
     89d: 67 00 00                     	addb	%al, (%eax)
     8a0: 00 08                        	addb	%cl, (%rax)
     8a2: 00 0c f4                     	addb	%cl, (%rsp,%rsi,8)
     8a5: 05 00 00 0d 46               	addl	$1175257088, %eax
     8aa: 05 7c 08 00 00               	addl	$2172, %eax
     8af: 10 10                        	adcb	%dl, (%rax)
     8b1: 0d 4d 03 03 06               	orl	$100860749, %eax
     8b6: 00 00                        	addb	%al, (%rax)
     8b8: d6                           	<unknown>
     8b9: 08 00                        	orb	%al, (%rax)
     8bb: 00 07                        	addb	%al, (%rdi)
     8bd: b2 02                        	movb	$2, %dl
     8bf: 00 00                        	addb	%al, (%rax)
     8c1: 0d 4e 13 d6 08               	orl	$148247374, %eax
     8c6: 00 00                        	addb	%al, (%rax)
     8c8: 00 15 72 65 6d 00            	addb	%dl, 7169394(%rip)  # 6d6e40 <_end+0xd1d00>
     8ce: 4f 13 d6                     	adcq	%r14, %r10
     8d1: 08 00                        	orb	%al, (%rax)
     8d3: 00 08                        	addb	%cl, (%rax)
     8d5: 00 08                        	addb	%cl, (%rax)
     8d7: 08 05 65 02 00 00            	orb	%al, 613(%rip)  # b42 <.debug_info+0xb42>
     8dd: 0c 04                        	orb	$4, %al
     8df: 06                           	<unknown>
     8e0: 00 00                        	addb	%al, (%rax)
     8e2: 0d 50 05 af 08               	orl	$145687888, %eax
     8e7: 00 00                        	addb	%al, (%rax)
     8e9: 08 08                        	orb	%cl, (%rax)
     8eb: 07                           	<unknown>
     8ec: 1c 01                        	sbbb	$1, %al
     8ee: 00 00                        	addb	%al, (%rax)
     8f0: 25 32 03 00 00               	andl	$818, %eax
     8f5: 0d b2 02 0f fd               	orl	$4245619378, %eax
     8fa: 08 00                        	orb	%al, (%rax)
     8fc: 00 0a                        	addb	%cl, (%rdx)
     8fe: 02 09                        	addb	(%rcx), %cl
     900: 00 00                        	addb	%al, (%rax)
     902: 26 60                        	<unknown>
     904: 00 00                        	addb	%al, (%rax)
     906: 00 16                        	addb	%dl, (%rsi)
     908: 09 00                        	orl	%eax, (%rax)
     90a: 00 01                        	addb	%al, (%rcx)
     90c: 16                           	<unknown>
     90d: 09 00                        	orl	%eax, (%rax)
     90f: 00 01                        	addb	%al, (%rcx)
     911: 16                           	<unknown>
     912: 09 00                        	orl	%eax, (%rax)
     914: 00 00                        	addb	%al, (%rax)
     916: 0a 1b                        	orb	(%rbx), %bl
     918: 09 00                        	orl	%eax, (%rax)
     91a: 00 27                        	addb	%ah, (%rdi)
     91c: 03 1b                        	addl	(%rbx), %ebx
     91e: 05 00 00 0d dd               	addl	$3708616704, %eax
     923: 01 0c 60                     	addl	%ecx, (%rax,%riz,2)
     926: 00 00                        	addb	%al, (%rax)
     928: 00 33                        	addb	%dh, (%rbx)
     92a: 09 00                        	orl	%eax, (%rax)
     92c: 00 01                        	addb	%al, (%rcx)
     92e: 33 09                        	xorl	(%rcx), %ecx
     930: 00 00                        	addb	%al, (%rax)
     932: 00 0a                        	addb	%cl, (%rdx)
     934: 38 09                        	cmpb	%cl, (%rcx)
     936: 00 00                        	addb	%al, (%rax)
     938: 28 11                        	subb	%dl, (%rcx)
     93a: 54                           	pushq	%rsp
     93b: 05 00 00 0d e2               	addl	$3792502784, %eax
     940: 01 12                        	addl	%edx, (%rdx)
     942: 54                           	pushq	%rsp
     943: 05 00 00 60 00               	addl	$6291456, %eax
     948: 00 00                        	addb	%al, (%rax)
     94a: 54                           	pushq	%rsp
     94b: 09 00                        	orl	%eax, (%rax)
     94d: 00 01                        	addb	%al, (%rcx)
     94f: 33 09                        	xorl	(%rcx), %ecx
     951: 00 00                        	addb	%al, (%rax)
     953: 00 04 26                     	addb	%al, (%rsi,%riz)
     956: 06                           	<unknown>
     957: 00 00                        	addb	%al, (%rax)
     959: 0e                           	<unknown>
     95a: 19 01                        	sbbl	%eax, (%rcx)
     95c: 6a 09                        	pushq	$9
     95e: 00 00                        	addb	%al, (%rax)
     960: 6a 09                        	pushq	$9
     962: 00 00                        	addb	%al, (%rax)
     964: 01 2c 03                     	addl	%ebp, (%rbx,%rax)
     967: 00 00                        	addb	%al, (%rax)
     969: 00 08                        	addb	%cl, (%rax)
     96b: 08 04 ba                     	orb	%al, (%rdx,%rdi,4)
     96e: 03 00                        	addl	(%rax), %eax
     970: 00 04 2b                     	addb	%al, (%rbx,%rbp)
     973: 06                           	<unknown>
     974: 00 00                        	addb	%al, (%rax)
     976: 0d f6 01 60 00               	orl	$6291958, %eax
     97b: 00 00                        	addb	%al, (%rax)
     97d: 87 09                        	xchgl	%ecx, (%rcx)
     97f: 00 00                        	addb	%al, (%rax)
     981: 01 2c 03                     	addl	%ebp, (%rbx,%rax)
     984: 00 00                        	addb	%al, (%rax)
     986: 00 04 30                     	addb	%al, (%rax,%rsi)
     989: 06                           	<unknown>
     98a: 00 00                        	addb	%al, (%rax)
     98c: 0d fb 01 67 00               	orl	$6750715, %eax
     991: 00 00                        	addb	%al, (%rax)
     993: 9d                           	popfq
     994: 09 00                        	orl	%eax, (%rax)
     996: 00 01                        	addb	%al, (%rcx)
     998: 2c 03                        	subb	$3, %al
     99a: 00 00                        	addb	%al, (%rax)
     99c: 00 04 d5 01 00 00 0f         	addb	%al, 251658241(,%rdx,8)
     9a3: 14 01                        	adcb	$1, %al
     9a5: 86 00                        	xchgb	%al, (%rax)
     9a7: 00 00                        	addb	%al, (%rax)
     9a9: c7 09                        	<unknown>
     9ab: 00 00                        	addb	%al, (%rax)
     9ad: 01 16                        	addl	%edx, (%rsi)
     9af: 09 00                        	orl	%eax, (%rax)
     9b1: 00 01                        	addb	%al, (%rcx)
     9b3: 16                           	<unknown>
     9b4: 09 00                        	orl	%eax, (%rax)
     9b6: 00 01                        	addb	%al, (%rcx)
     9b8: 2a 00                        	subb	(%rax), %al
     9ba: 00 00                        	addb	%al, (%rax)
     9bc: 01 2a                        	addl	%ebp, (%rdx)
     9be: 00 00                        	addb	%al, (%rax)
     9c0: 00 01                        	addb	%al, (%rcx)
     9c2: f0                           	lock
     9c3: 08 00                        	orb	%al, (%rax)
     9c5: 00 00                        	addb	%al, (%rax)
     9c7: 29 64 69 76                  	subl	%esp, 118(%rcx,%rbp,2)
     9cb: 00 0d de 02 0e 70            	addb	%cl, 1879966430(%rip)  # 700e0caf <_end+0x6fadbb6f>
     9d1: 08 00                        	orb	%al, (%rax)
     9d3: 00 e3                        	addb	%ah, %bl
     9d5: 09 00                        	orl	%eax, (%rax)
     9d7: 00 01                        	addb	%al, (%rcx)
     9d9: 60                           	<unknown>
     9da: 00 00                        	addb	%al, (%rax)
     9dc: 00 01                        	addb	%al, (%rcx)
     9de: 60                           	<unknown>
     9df: 00 00                        	addb	%al, (%rax)
     9e1: 00 00                        	addb	%al, (%rax)
     9e3: 03 00                        	addl	(%rax), %eax
     9e5: 00 00                        	addb	%al, (%rax)
     9e7: 00 0d 04 02 0e 88            	addb	%cl, -2012347900(%rip)  # ffffffff880e0bf1 <_end+0xffffffff87adbab1>
     9ed: 00 00                        	addb	%al, (%rax)
     9ef: 00 fa                        	addb	%bh, %dl
     9f1: 09 00                        	orl	%eax, (%rax)
     9f3: 00 01                        	addb	%al, (%rcx)
     9f5: 2c 03                        	subb	$3, %al
     9f7: 00 00                        	addb	%al, (%rax)
     9f9: 00 03                        	addb	%al, (%rbx)
     9fb: 5b                           	popq	%rbx
     9fc: 01 00                        	addl	%eax, (%rax)
     9fe: 00 0d e0 02 0f a3            	addb	%cl, -1559297312(%rip)  # ffffffffa30f0ce4 <_end+0xffffffffa2aebba4>
     a04: 08 00                        	orb	%al, (%rax)
     a06: 00 16                        	addb	%dl, (%rsi)
     a08: 0a 00                        	orb	(%rax), %al
     a0a: 00 01                        	addb	%al, (%rcx)
     a0c: 67 00 00                     	addb	%al, (%eax)
     a0f: 00 01                        	addb	%al, (%rcx)
     a11: 67 00 00                     	addb	%al, (%eax)
     a14: 00 00                        	addb	%al, (%rax)
     a16: 03 59 00                     	addl	(%rcx), %ebx
     a19: 00 00                        	addb	%al, (%rax)
     a1b: 0d 24 03 0c 60               	orl	$1611399972, %eax
     a20: 00 00                        	addb	%al, (%rax)
     a22: 00 32                        	addb	%dh, (%rdx)
     a24: 0a 00                        	orb	(%rax), %al
     a26: 00 01                        	addb	%al, (%rcx)
     a28: 2c 03                        	subb	$3, %al
     a2a: 00 00                        	addb	%al, (%rax)
     a2c: 01 2a                        	addl	%ebp, (%rdx)
     a2e: 00 00                        	addb	%al, (%rax)
     a30: 00 00                        	addb	%al, (%rax)
     a32: 03 c4                        	addl	%esp, %eax
     a34: 02 00                        	addb	(%rax), %al
     a36: 00 0d 2f 03 0f 2a            	addb	%cl, 705626927(%rip)  # 2a0f0d6b <_end+0x29aebc2b>
     a3c: 00 00                        	addb	%al, (%rax)
     a3e: 00 53 0a                     	addb	%dl, 10(%rbx)
     a41: 00 00                        	addb	%al, (%rax)
     a43: 01 53 0a                     	addl	%edx, 10(%rbx)
     a46: 00 00                        	addb	%al, (%rax)
     a48: 01 2c 03                     	addl	%ebp, (%rbx,%rax)
     a4b: 00 00                        	addb	%al, (%rax)
     a4d: 01 2a                        	addl	%ebp, (%rdx)
     a4f: 00 00                        	addb	%al, (%rax)
     a51: 00 00                        	addb	%al, (%rax)
     a53: 0a 58 0a                     	orb	10(%rax), %bl
     a56: 00 00                        	addb	%al, (%rax)
     a58: 08 04 05 7e 00 00 00         	orb	%al, 126(,%rax)
     a5f: 12 58 0a                     	adcb	10(%rax), %bl
     a62: 00 00                        	addb	%al, (%rax)
     a64: 03 e8                        	addl	%eax, %ebp
     a66: 00 00                        	addb	%al, (%rax)
     a68: 00 0d 27 03 0c 60            	addb	%cl, 1611399975(%rip)  # 600c0d95 <_end+0x5fabbc55>
     a6e: 00 00                        	addb	%al, (%rax)
     a70: 00 85 0a 00 00 01            	addb	%al, 16777226(%rbp)
     a76: 53                           	pushq	%rbx
     a77: 0a 00                        	orb	(%rax), %al
     a79: 00 01                        	addb	%al, (%rcx)
     a7b: 2c 03                        	subb	$3, %al
     a7d: 00 00                        	addb	%al, (%rax)
     a7f: 01 2a                        	addl	%ebp, (%rdx)
     a81: 00 00                        	addb	%al, (%rax)
     a83: 00 00                        	addb	%al, (%rax)
     a85: 0e                           	<unknown>
     a86: 9a                           	<unknown>
     a87: 06                           	<unknown>
     a88: 00 00                        	addb	%al, (%rax)
     a8a: 0d c8 02 a6 0a               	orl	$178651848, %eax
     a8f: 00 00                        	addb	%al, (%rax)
     a91: 01 86 00 00 00 01            	addl	%eax, 16777216(%rsi)
     a97: 2a 00                        	subb	(%rax), %al
     a99: 00 00                        	addb	%al, (%rax)
     a9b: 01 2a                        	addl	%ebp, (%rdx)
     a9d: 00 00                        	addb	%al, (%rax)
     a9f: 00 01                        	addb	%al, (%rcx)
     aa1: f0                           	lock
     aa2: 08 00                        	orb	%al, (%rax)
     aa4: 00 00                        	addb	%al, (%rax)
     aa6: 19 57 05                     	sbbl	%edx, 5(%rdi)
     aa9: 00 00                        	addb	%al, (%rax)
     aab: f9                           	stc
     aac: 01 b7 0a 00 00 01            	addl	%esi, 16777226(%rdi)
     ab2: 60                           	<unknown>
     ab3: 00 00                        	addb	%al, (%rax)
     ab5: 00 00                        	addb	%al, (%rax)
     ab7: 2a a1 01 00 00 0d            	subb	218103809(%rcx), %ah
     abd: 52                           	pushq	%rdx
     abe: 01 0c 60                     	addl	%ecx, (%rax,%riz,2)
     ac1: 00 00                        	addb	%al, (%rax)
     ac3: 00 0e                        	addb	%cl, (%rsi)
     ac5: a0 01 00 00 0d 54 01 d6 0a   	movabsb	780813045902344193, %al
     ace: 00 00                        	addb	%al, (%rax)
     ad0: 01 4b 00                     	addl	%ecx, (%rbx)
     ad3: 00 00                        	addb	%al, (%rax)
     ad5: 00 04 d0                     	addb	%al, (%rax,%rdx,8)
     ad8: 05 00 00 0d 75               	addl	$1963786240, %eax
     add: 0f 6a 09                     	punpckhdq	(%rcx), %mm1
     ae0: 00 00                        	addb	%al, (%rax)
     ae2: f1                           	<unknown>
     ae3: 0a 00                        	orb	(%rax), %al
     ae5: 00 01                        	addb	%al, (%rcx)
     ae7: 2c 03                        	subb	$3, %al
     ae9: 00 00                        	addb	%al, (%rax)
     aeb: 01 f1                        	addl	%esi, %ecx
     aed: 0a 00                        	orb	(%rax), %al
     aef: 00 00                        	addb	%al, (%rax)
     af1: 0a 88 00 00 00 04            	orb	67108864(%rax), %cl
     af7: ec                           	inb	%dx, %al
     af8: 05 00 00 0d 8b               	addl	$2332884992, %eax
     afd: 11 67 00                     	adcl	%esp, (%rdi)
     b00: 00 00                        	addb	%al, (%rax)
     b02: 16                           	<unknown>
     b03: 0b 00                        	orl	(%rax), %eax
     b05: 00 01                        	addb	%al, (%rcx)
     b07: 2c 03                        	subb	$3, %al
     b09: 00 00                        	addb	%al, (%rax)
     b0b: 01 f1                        	addl	%esi, %ecx
     b0d: 0a 00                        	orb	(%rax), %al
     b0f: 00 01                        	addb	%al, (%rcx)
     b11: 60                           	<unknown>
     b12: 00 00                        	addb	%al, (%rax)
     b14: 00 00                        	addb	%al, (%rax)
     b16: 04 74                        	addb	$116, %al
     b18: 05 00 00 0d 8f               	addl	$2399993856, %eax
     b1d: 1a 36                        	sbbb	(%rsi), %dh
     b1f: 00 00                        	addb	%al, (%rax)
     b21: 00 36                        	addb	%dh, (%rsi)
     b23: 0b 00                        	orl	(%rax), %eax
     b25: 00 01                        	addb	%al, (%rcx)
     b27: 2c 03                        	subb	$3, %al
     b29: 00 00                        	addb	%al, (%rax)
     b2b: 01 f1                        	addl	%esi, %ecx
     b2d: 0a 00                        	orb	(%rax), %al
     b2f: 00 01                        	addb	%al, (%rcx)
     b31: 60                           	<unknown>
     b32: 00 00                        	addb	%al, (%rax)
     b34: 00 00                        	addb	%al, (%rax)
     b36: 03 39                        	addl	(%rcx), %edi
     b38: 00 00                        	addb	%al, (%rax)
     b3a: 00 0d 9a 02 0c 60            	addb	%cl, 1611399834(%rip)  # 600c0dda <_end+0x5fabbc9a>
     b40: 00 00                        	addb	%al, (%rax)
     b42: 00 4d 0b                     	addb	%cl, 11(%rbp)
     b45: 00 00                        	addb	%al, (%rax)
     b47: 01 2c 03                     	addl	%ebp, (%rbx,%rax)
     b4a: 00 00                        	addb	%al, (%rax)
     b4c: 00 03                        	addb	%al, (%rbx)
     b4e: e3 05                        	jrcxz	0xb55 <.debug_info+0xb55>
     b50: 00 00                        	addb	%al, (%rax)
     b52: 0d 32 03 0f 2a               	orl	$705626930, %eax
     b57: 00 00                        	addb	%al, (%rax)
     b59: 00 6e 0b                     	addb	%ch, 11(%rsi)
     b5c: 00 00                        	addb	%al, (%rax)
     b5e: 01 88 00 00 00 01            	addl	%ecx, 16777216(%rax)
     b64: 6e                           	outsb	(%rsi), %dx
     b65: 0b 00                        	orl	(%rax), %eax
     b67: 00 01                        	addb	%al, (%rcx)
     b69: 2a 00                        	subb	(%rax), %al
     b6b: 00 00                        	addb	%al, (%rax)
     b6d: 00 0a                        	addb	%cl, (%rdx)
     b6f: 5f                           	popq	%rdi
     b70: 0a 00                        	orb	(%rax), %al
     b72: 00 03                        	addb	%al, (%rbx)
     b74: 43 01 00                     	addl	%eax, (%r8)
     b77: 00 0d 2b 03 0c 60            	addb	%cl, 1611399979(%rip)  # 600c0ea8 <_end+0x5fabbd68>
     b7d: 00 00                        	addb	%al, (%rax)
     b7f: 00 8f 0b 00 00 01            	addb	%cl, 16777227(%rdi)
     b85: 88 00                        	movb	%al, (%rax)
     b87: 00 00                        	addb	%al, (%rax)
     b89: 01 58 0a                     	addl	%ebx, 10(%rax)
     b8c: 00 00                        	addb	%al, (%rax)
     b8e: 00 2b                        	addb	%ch, (%rbx)
     b90: 6d                           	insl	%dx, %es:(%rdi)
     b91: 00 00                        	addb	%al, (%rax)
     b93: 00 13                        	addb	%dl, (%rbx)
     b95: 30 01                        	xorb	%al, (%rcx)
     b97: 0b f0                        	orl	%eax, %esi
     b99: 0b 00                        	orl	(%rax), %eax
     b9b: 00 02                        	addb	%al, (%rdx)
     b9d: 0a c8                        	orb	%al, %cl
     b9f: 0b dd                        	orl	%ebp, %ebx
     ba1: 08 00                        	orb	%al, (%rax)
     ba3: 00 02                        	addb	%al, (%rdx)
     ba5: 0a d8                        	orb	%al, %bl
     ba7: 0b f0                        	orl	%eax, %esi
     ba9: 0b 00                        	orl	(%rax), %eax
     bab: 00 02                        	addb	%al, (%rdx)
     bad: 0a e3                        	orb	%bl, %ah
     baf: 0b 0c 0c                     	orl	(%rsp,%rcx), %ecx
     bb2: 00 00                        	addb	%al, (%rax)
     bb4: 02 0a                        	addb	(%rdx), %cl
     bb6: e4 0b                        	inb	$11, %al
     bb8: 23 0c 00                     	andl	(%rax,%rax), %ecx
     bbb: 00 02                        	addb	%al, (%rdx)
     bbd: 0a e5                        	orb	%ch, %ah
     bbf: 0b 43 0c                     	orl	12(%rbx), %eax
     bc2: 00 00                        	addb	%al, (%rax)
     bc4: 02 0a                        	addb	(%rdx), %cl
     bc6: e7 0b                        	outl	%eax, $11
     bc8: 63 0c 00                     	movslq	(%rax,%rax), %ecx
     bcb: 00 02                        	addb	%al, (%rdx)
     bcd: 0a e8                        	orb	%al, %ch
     bcf: 0b 85 0c 00 00 2c            	orl	738197516(%rbp), %eax
     bd5: 64 69 76 00 0a d5 03 a0      	imull	$2684605706, %fs:(%rsi), %esi
     bdd: 00 00                        	addb	%al, (%rax)
     bdf: 00 dd                        	addb	%bl, %ch
     be1: 08 00                        	orb	%al, (%rax)
     be3: 00 01                        	addb	%al, (%rcx)
     be5: d6                           	<unknown>
     be6: 08 00                        	orb	%al, (%rax)
     be8: 00 01                        	addb	%al, (%rcx)
     bea: d6                           	<unknown>
     beb: 08 00                        	orb	%al, (%rax)
     bed: 00 00                        	addb	%al, (%rax)
     bef: 00 03                        	addb	%al, (%rbx)
     bf1: 5a                           	popq	%rdx
     bf2: 01 00                        	addl	%eax, (%rax)
     bf4: 00 0d e4 02 1e dd            	addb	%cl, -585235740(%rip)  # ffffffffdd1e0ede <_end+0xffffffffdcbdbd9e>
     bfa: 08 00                        	orb	%al, (%rax)
     bfc: 00 0c 0c                     	addb	%cl, (%rsp,%rcx)
     bff: 00 00                        	addb	%al, (%rax)
     c01: 01 d6                        	addl	%edx, %esi
     c03: 08 00                        	orb	%al, (%rax)
     c05: 00 01                        	addb	%al, (%rcx)
     c07: d6                           	<unknown>
     c08: 08 00                        	orb	%al, (%rax)
     c0a: 00 00                        	addb	%al, (%rax)
     c0c: 03 60 01                     	addl	1(%rax), %esp
     c0f: 00 00                        	addb	%al, (%rax)
     c11: 0d 02 01 01 d6               	orl	$3590390018, %eax
     c16: 08 00                        	orb	%al, (%rax)
     c18: 00 23                        	addb	%ah, (%rbx)
     c1a: 0c 00                        	orb	$0, %al
     c1c: 00 01                        	addb	%al, (%rcx)
     c1e: 2c 03                        	subb	$3, %al
     c20: 00 00                        	addb	%al, (%rax)
     c22: 00 04 d9                     	addb	%al, (%rcx,%rbx,8)
     c25: 00 00                        	addb	%al, (%rax)
     c27: 00 0d a3 16 d6 08            	addb	%cl, 148248227(%rip)  # 8d622d0 <_end+0x875d190>
     c2d: 00 00                        	addb	%al, (%rax)
     c2f: 43 0c 00                     	orb	$0, %al
     c32: 00 01                        	addb	%al, (%rcx)
     c34: 2c 03                        	subb	$3, %al
     c36: 00 00                        	addb	%al, (%rax)
     c38: 01 f1                        	addl	%esi, %ecx
     c3a: 0a 00                        	orb	(%rax), %al
     c3c: 00 01                        	addb	%al, (%rcx)
     c3e: 60                           	<unknown>
     c3f: 00 00                        	addb	%al, (%rax)
     c41: 00 00                        	addb	%al, (%rax)
     c43: 04 b5                        	addb	$-75, %al
     c45: 00 00                        	addb	%al, (%rax)
     c47: 00 0d a8 1f e9 08            	addb	%cl, 149495720(%rip)  # 8e92bf5 <_end+0x888dab5>
     c4d: 00 00                        	addb	%al, (%rax)
     c4f: 63 0c 00                     	movslq	(%rax,%rax), %ecx
     c52: 00 01                        	addb	%al, (%rcx)
     c54: 2c 03                        	subb	$3, %al
     c56: 00 00                        	addb	%al, (%rax)
     c58: 01 f1                        	addl	%esi, %ecx
     c5a: 0a 00                        	orb	(%rax), %al
     c5c: 00 01                        	addb	%al, (%rcx)
     c5e: 60                           	<unknown>
     c5f: 00 00                        	addb	%al, (%rax)
     c61: 00 00                        	addb	%al, (%rax)
     c63: 04 d7                        	addb	$-41, %al
     c65: 05 00 00 0d 7b               	addl	$2064449536, %eax
     c6a: 0e                           	<unknown>
     c6b: 7e 0c                        	jle	0xc79 <.debug_info+0xc79>
     c6d: 00 00                        	addb	%al, (%rax)
     c6f: 7e 0c                        	jle	0xc7d <.debug_info+0xc7d>
     c71: 00 00                        	addb	%al, (%rax)
     c73: 01 2c 03                     	addl	%ebp, (%rbx,%rax)
     c76: 00 00                        	addb	%al, (%rax)
     c78: 01 f1                        	addl	%esi, %ecx
     c7a: 0a 00                        	orb	(%rax), %al
     c7c: 00 00                        	addb	%al, (%rax)
     c7e: 08 04 04                     	orb	%al, (%rsp,%rax)
     c81: 0e                           	<unknown>
     c82: 01 00                        	addl	%eax, (%rax)
     c84: 00 04 d1                     	addb	%al, (%rcx,%rdx,8)
     c87: 00 00                        	addb	%al, (%rax)
     c89: 00 0d 7e 14 a0 0c            	addb	%cl, 211817598(%rip)  # ca0210d <_end+0xc3fcfcd>
     c8f: 00 00                        	addb	%al, (%rax)
     c91: a0 0c 00 00 01 2c 03 00 00   	movabsb	3487530221580, %al
     c9a: 01 f1                        	addl	%esi, %ecx
     c9c: 0a 00                        	orb	(%rax), %al
     c9e: 00 00                        	addb	%al, (%rax)
     ca0: 08 10                        	orb	%dl, (%rax)
     ca2: 04 b5                        	addb	$-75, %al
     ca4: 03 00                        	addl	(%rax), %eax
     ca6: 00 0f                        	addb	%cl, (%rdi)
     ca8: 32 02                        	xorb	(%rdx), %al
     caa: 00 00                        	addb	%al, (%rax)
     cac: 53                           	pushq	%rbx
     cad: 32 02                        	xorb	(%rdx), %al
     caf: 00 00                        	addb	%al, (%rax)
     cb1: 16                           	<unknown>
     cb2: 09 00                        	orl	%eax, (%rax)
     cb4: 00 c9                        	addb	%cl, %cl
     cb6: 0c 00                        	orb	$0, %al
     cb8: 00 01                        	addb	%al, (%rcx)
     cba: 16                           	<unknown>
     cbb: 09 00                        	orl	%eax, (%rax)
     cbd: 00 01                        	addb	%al, (%rcx)
     cbf: 60                           	<unknown>
     cc0: 00 00                        	addb	%al, (%rax)
     cc2: 00 01                        	addb	%al, (%rcx)
     cc4: 2a 00                        	subb	(%rax), %al
     cc6: 00 00                        	addb	%al, (%rax)
     cc8: 00 0f                        	addb	%cl, (%rdi)
     cca: 32 02                        	xorb	(%rdx), %al
     ccc: 00 00                        	addb	%al, (%rax)
     cce: 4d 32 02                     	xorb	(%r10), %r8b
     cd1: 00 00                        	addb	%al, (%rax)
     cd3: 86 00                        	xchgb	%al, (%rax)
     cd5: 00 00                        	addb	%al, (%rax)
     cd7: eb 0c                        	jmp	0xce5 <.debug_info+0xce5>
     cd9: 00 00                        	addb	%al, (%rax)
     cdb: 01 86 00 00 00 01            	addl	%eax, 16777216(%rsi)
     ce1: 60                           	<unknown>
     ce2: 00 00                        	addb	%al, (%rax)
     ce4: 00 01                        	addb	%al, (%rcx)
     ce6: 2a 00                        	subb	(%rax), %al
     ce8: 00 00                        	addb	%al, (%rax)
     cea: 00 04 2a                     	addb	%al, (%rdx,%rbp)
     ced: 05 00 00 10 3f               	addl	$1058013184, %eax
     cf2: 0c 60                        	orb	$96, %al
     cf4: 00 00                        	addb	%al, (%rax)
     cf6: 00 0b                        	addb	%cl, (%rbx)
     cf8: 0d 00 00 01 16               	orl	$369164288, %eax
     cfd: 09 00                        	orl	%eax, (%rax)
     cff: 00 01                        	addb	%al, (%rcx)
     d01: 16                           	<unknown>
     d02: 09 00                        	orl	%eax, (%rax)
     d04: 00 01                        	addb	%al, (%rcx)
     d06: 2a 00                        	subb	(%rax), %al
     d08: 00 00                        	addb	%al, (%rax)
     d0a: 00 04 0c                     	addb	%al, (%rsp,%rcx)
     d0d: 06                           	<unknown>
     d0e: 00 00                        	addb	%al, (%rax)
     d10: 10 88 0c 60 00 00            	adcb	%cl, 24588(%rax)
     d16: 00 26                        	addb	%ah, (%rsi)
     d18: 0d 00 00 01 2c               	orl	$738263040, %eax
     d1d: 03 00                        	addl	(%rax), %eax
     d1f: 00 01                        	addb	%al, (%rcx)
     d21: 2c 03                        	subb	$3, %al
     d23: 00 00                        	addb	%al, (%rax)
     d25: 00 04 2a                     	addb	%al, (%rdx,%rbp)
     d28: 02 00                        	addb	(%rax), %al
     d2a: 00 10                        	addb	%dl, (%rax)
     d2c: 8f 0c 60                     	<unknown>
     d2f: 00 00                        	addb	%al, (%rax)
     d31: 00 41 0d                     	addb	%al, 13(%rcx)
     d34: 00 00                        	addb	%al, (%rax)
     d36: 01 2c 03                     	addl	%ebp, (%rbx,%rax)
     d39: 00 00                        	addb	%al, (%rax)
     d3b: 01 2c 03                     	addl	%ebp, (%rbx,%rax)
     d3e: 00 00                        	addb	%al, (%rax)
     d40: 00 04 e1                     	addb	%al, (%rcx,%riz,8)
     d43: 00 00                        	addb	%al, (%rax)
     d45: 00 10                        	addb	%dl, (%rax)
     d47: 79 0e                        	jns	0xd57 <.debug_info+0xd57>
     d49: 88 00                        	movb	%al, (%rax)
     d4b: 00 00                        	addb	%al, (%rax)
     d4d: 5c                           	popq	%rsp
     d4e: 0d 00 00 01 88               	orl	$2281766912, %eax
     d53: 00 00                        	addb	%al, (%rax)
     d55: 00 01                        	addb	%al, (%rcx)
     d57: 2c 03                        	subb	$3, %al
     d59: 00 00                        	addb	%al, (%rax)
     d5b: 00 03                        	addb	%al, (%rbx)
     d5d: 86 00                        	xchgb	%al, (%rax)
     d5f: 00 00                        	addb	%al, (%rax)
     d61: 10 8c 01 0e 88 00 00         	adcb	%cl, 34830(%rcx,%rax)
     d68: 00 73 0d                     	addb	%dh, 13(%rbx)
     d6b: 00 00                        	addb	%al, (%rax)
     d6d: 01 60 00                     	addl	%esp, (%rax)
     d70: 00 00                        	addb	%al, (%rax)
     d72: 00 03                        	addb	%al, (%rbx)
     d74: 00 05 00 00 10 80            	addb	%al, -2146435072(%rip)  # ffffffff80100d7a <_end+0xffffffff7fafbc3a>
     d7a: 01 0f                        	addl	%ecx, (%rdi)
     d7c: 2a 00                        	subb	(%rax), %al
     d7e: 00 00                        	addb	%al, (%rax)
     d80: 8a 0d 00 00 01 2c            	movb	738263040(%rip), %cl  # 2c010d86 <_end+0x2ba0bc46>
     d86: 03 00                        	addl	(%rax), %eax
     d88: 00 00                        	addb	%al, (%rax)
     d8a: 03 b5 01 00 00 10            	addl	268435457(%rbp), %esi
     d90: 4f 01 0e                     	addq	%r9, (%r14)
     d93: 88 00                        	movb	%al, (%rax)
     d95: 00 00                        	addb	%al, (%rax)
     d97: a6                           	cmpsb	%es:(%rdi), (%rsi)
     d98: 0d 00 00 01 88               	orl	$2281766912, %eax
     d9d: 00 00                        	addb	%al, (%rax)
     d9f: 00 01                        	addb	%al, (%rcx)
     da1: 2c 03                        	subb	$3, %al
     da3: 00 00                        	addb	%al, (%rax)
     da5: 00 04 ad 01 00 00 10         	addb	%al, 268435457(,%rbp,4)
     dac: 92                           	xchgl	%edx, %eax
     dad: 0f 2a 00                     	cvtpi2ps	(%rax), %xmm0
     db0: 00 00                        	addb	%al, (%rax)
     db2: c6 0d 00 00 01 88            	<unknown>
     db8: 00 00                        	addb	%al, (%rax)
     dba: 00 01                        	addb	%al, (%rcx)
     dbc: 2c 03                        	subb	$3, %al
     dbe: 00 00                        	addb	%al, (%rax)
     dc0: 01 2a                        	addl	%ebp, (%rdx)
     dc2: 00 00                        	addb	%al, (%rax)
     dc4: 00 00                        	addb	%al, (%rax)
     dc6: 0f 12 04 00                  	movlps	(%rax,%rax), %xmm0
     dca: 00 da                        	addb	%bl, %dl
     dcc: 12 04 00                     	adcb	(%rax,%rax), %al
     dcf: 00 2c 03                     	addb	%ch, (%rbx,%rax)
     dd2: 00 00                        	addb	%al, (%rax)
     dd4: e3 0d                        	jrcxz	0xde3 <.debug_info+0xde3>
     dd6: 00 00                        	addb	%al, (%rax)
     dd8: 01 2c 03                     	addl	%ebp, (%rbx,%rax)
     ddb: 00 00                        	addb	%al, (%rax)
     ddd: 01 60 00                     	addl	%esp, (%rax)
     de0: 00 00                        	addb	%al, (%rax)
     de2: 00 0f                        	addb	%cl, (%rdi)
     de4: 12 04 00                     	adcb	(%rax,%rax), %al
     de7: 00 d4                        	addb	%dl, %ah
     de9: 12 04 00                     	adcb	(%rax,%rax), %al
     dec: 00 88 00 00 00 00            	addb	%cl, (%rax)
     df2: 0e                           	<unknown>
     df3: 00 00                        	addb	%al, (%rax)
     df5: 01 88 00 00 00 01            	addl	%ecx, 16777216(%rax)
     dfb: 60                           	<unknown>
     dfc: 00 00                        	addb	%al, (%rax)
     dfe: 00 00                        	addb	%al, (%rax)
     e00: 11 98 00 00 00 10            	adcl	%ebx, 268435456(%rax)
     e06: 27                           	<unknown>
     e07: 01 01                        	addl	%eax, (%rcx)
     e09: 98                           	cwtl
     e0a: 00 00                        	addb	%al, (%rax)
     e0c: 00 2c 03                     	addb	%ch, (%rbx,%rax)
     e0f: 00 00                        	addb	%al, (%rax)
     e11: 20 0e                        	andb	%cl, (%rsi)
     e13: 00 00                        	addb	%al, (%rax)
     e15: 01 2c 03                     	addl	%ebp, (%rbx,%rax)
     e18: 00 00                        	addb	%al, (%rax)
     e1a: 01 2c 03                     	addl	%ebp, (%rbx,%rax)
     e1d: 00 00                        	addb	%al, (%rax)
     e1f: 00 11                        	addb	%dl, (%rcx)
     e21: 98                           	cwtl
     e22: 00 00                        	addb	%al, (%rax)
     e24: 00 10                        	addb	%dl, (%rax)
     e26: 21 01                        	andl	%eax, (%rcx)
     e28: 01 98 00 00 00 88            	addl	%ebx, -2013265920(%rax)
     e2e: 00 00                        	addb	%al, (%rax)
     e30: 00 40 0e                     	addb	%al, 14(%rax)
     e33: 00 00                        	addb	%al, (%rax)
     e35: 01 88 00 00 00 01            	addl	%ecx, 16777216(%rax)
     e3b: 2c 03                        	subb	$3, %al
     e3d: 00 00                        	addb	%al, (%rax)
     e3f: 00 0f                        	addb	%cl, (%rdi)
     e41: 11 00                        	adcl	%eax, (%rax)
     e43: 00 00                        	addb	%al, (%rax)
     e45: f5                           	cmc
     e46: 11 00                        	adcl	%eax, (%rax)
     e48: 00 00                        	addb	%al, (%rax)
     e4a: 2c 03                        	subb	$3, %al
     e4c: 00 00                        	addb	%al, (%rax)
     e4e: 5d                           	popq	%rbp
     e4f: 0e                           	<unknown>
     e50: 00 00                        	addb	%al, (%rax)
     e52: 01 2c 03                     	addl	%ebp, (%rbx,%rax)
     e55: 00 00                        	addb	%al, (%rax)
     e57: 01 60 00                     	addl	%esp, (%rax)
     e5a: 00 00                        	addb	%al, (%rax)
     e5c: 00 0f                        	addb	%cl, (%rdi)
     e5e: 11 00                        	adcl	%eax, (%rax)
     e60: 00 00                        	addb	%al, (%rax)
     e62: ef                           	outl	%eax, %dx
     e63: 11 00                        	adcl	%eax, (%rax)
     e65: 00 00                        	addb	%al, (%rax)
     e67: 88 00                        	movb	%al, (%rax)
     e69: 00 00                        	addb	%al, (%rax)
     e6b: 7a 0e                        	jp	0xe7b <.debug_info+0xe7b>
     e6d: 00 00                        	addb	%al, (%rax)
     e6f: 01 88 00 00 00 01            	addl	%ecx, 16777216(%rax)
     e75: 60                           	<unknown>
     e76: 00 00                        	addb	%al, (%rax)
     e78: 00 00                        	addb	%al, (%rax)
     e7a: 11 91 05 00 00 10            	adcl	%edx, 268435461(%rcx)
     e80: 42 01 01                     	addl	%eax, (%rcx)
     e83: 91                           	xchgl	%ecx, %eax
     e84: 05 00 00 2c 03               	addl	$53215232, %eax
     e89: 00 00                        	addb	%al, (%rax)
     e8b: 9a                           	<unknown>
     e8c: 0e                           	<unknown>
     e8d: 00 00                        	addb	%al, (%rax)
     e8f: 01 2c 03                     	addl	%ebp, (%rbx,%rax)
     e92: 00 00                        	addb	%al, (%rax)
     e94: 01 2c 03                     	addl	%ebp, (%rbx,%rax)
     e97: 00 00                        	addb	%al, (%rax)
     e99: 00 11                        	addb	%dl, (%rcx)
     e9b: 91                           	xchgl	%ecx, %eax
     e9c: 05 00 00 10 3c               	addl	$1007681536, %eax
     ea1: 01 01                        	addl	%eax, (%rcx)
     ea3: 91                           	xchgl	%ecx, %eax
     ea4: 05 00 00 88 00               	addl	$8912896, %eax
     ea9: 00 00                        	addb	%al, (%rax)
     eab: ba 0e 00 00 01               	movl	$16777230, %edx
     eb0: 88 00                        	movb	%al, (%rax)
     eb2: 00 00                        	addb	%al, (%rax)
     eb4: 01 2c 03                     	addl	%ebp, (%rbx,%rax)
     eb7: 00 00                        	addb	%al, (%rax)
     eb9: 00 2d 44 06 00 00            	addb	%ch, 1604(%rip)  # 1503 <.debug_info+0x1503>
     ebf: 01 1b                        	addl	%ebx, (%rbx)
     ec1: 07                           	<unknown>
     ec2: d6                           	<unknown>
     ec3: 05 00 00 09 03               	addl	$50921472, %eax
     ec8: d0 43 60                     	rolb	96(%rbx)
     ecb: 00 00                        	addb	%al, (%rax)
     ecd: 00 00                        	addb	%al, (%rax)
     ecf: 00 0d a6 01 00 00            	addb	%cl, 422(%rip)  # 107b <.debug_info+0x107b>
     ed5: 0a 02                        	orb	(%rdx), %al
     ed7: 02 00                        	addb	(%rax), %al
     ed9: 00 e4                        	addb	%ah, %ah
     edb: 0e                           	<unknown>
     edc: 00 00                        	addb	%al, (%rax)
     ede: 01 88 00 00 00 00            	addl	%ecx, (%rax)
     ee4: 0d 4d 05 00 00               	orl	$1357, %eax
     ee9: 09 40 03                     	orl	%eax, 3(%rax)
     eec: 00 00                        	addb	%al, (%rax)
     eee: f8                           	clc
     eef: 0e                           	<unknown>
     ef0: 00 00                        	addb	%al, (%rax)
     ef2: 01 88 00 00 00 00            	addl	%ecx, (%rax)
     ef8: 0d 99 01 00 00               	orl	$409, %eax
     efd: 08 c5                        	orb	%al, %ch
     eff: 00 00                        	addb	%al, (%rax)
     f01: 00 0c 0f                     	addb	%cl, (%rdi,%rcx)
     f04: 00 00                        	addb	%al, (%rax)
     f06: 01 88 00 00 00 00            	addl	%ecx, (%rax)
     f0c: 0d 92 01 00 00               	orl	$402, %eax
     f11: 07                           	<unknown>
     f12: 62                           	<unknown>
     f13: 05 00 00 20 0f               	addl	$253755392, %eax
     f18: 00 00                        	addb	%al, (%rax)
     f1a: 01 88 00 00 00 00            	addl	%ecx, (%rax)
     f20: 0d 46 05 00 00               	orl	$1350, %eax
     f25: 06                           	<unknown>
     f26: 0e                           	<unknown>
     f27: 02 00                        	addb	(%rax), %al
     f29: 00 34 0f                     	addb	%dh, (%rdi,%rcx)
     f2c: 00 00                        	addb	%al, (%rax)
     f2e: 01 88 00 00 00 00            	addl	%ecx, (%rax)
     f34: 0d 84 01 00 00               	orl	$388, %eax
     f39: 05 6e 06 00 00               	addl	$1646, %eax
     f3e: 48 0f 00 00                  	sldtw	(%rax)
     f42: 01 88 00 00 00 00            	addl	%ecx, (%rax)
     f48: 1a 98 05 00 00 0a            	sbbb	167772165(%rax), %bl
     f4e: 19 03                        	sbbl	%eax, (%rbx)
     f50: 00 00                        	addb	%al, (%rax)
     f52: 0d 7d 01 00 00               	orl	$381, %eax
     f57: 04 83                        	addb	$-125, %al
     f59: 03 00                        	addl	(%rax), %eax
     f5b: 00 66 0f                     	addb	%ah, 15(%rsi)
     f5e: 00 00                        	addb	%al, (%rax)
     f60: 01 88 00 00 00 00            	addl	%ecx, (%rax)
     f66: 2e ef                        	outl	%eax, %dx
     f68: 00 00                        	addb	%al, (%rax)
     f6a: 00 12                        	addb	%dl, (%rdx)
     f6c: 06                           	<unknown>
     f6d: 07                           	<unknown>
     f6e: 23 04 00                     	andl	(%rax,%rax), %eax
     f71: 00 88 00 00 00 1a            	addb	%cl, 436207616(%rax)
     f77: 33 01                        	xorl	(%rcx), %eax
     f79: 00 00                        	addb	%al, (%rax)
     f7b: 07                           	<unknown>
     f7c: c6 03 00                     	movb	$0, (%rbx)
     f7f: 00 19                        	addb	%bl, (%rcx)
     f81: 5d                           	popq	%rbp
     f82: 05 00 00 f3 01               	addl	$32702464, %eax
     f87: 91                           	xchgl	%ecx, %eax
     f88: 0f 00 00                     	sldtw	(%rax)
     f8b: 01 60 00                     	addl	%esp, (%rax)
     f8e: 00 00                        	addb	%al, (%rax)
     f90: 00 03                        	addb	%al, (%rbx)
     f92: f9                           	stc
     f93: 02 00                        	addb	(%rax), %al
     f95: 00 08                        	addb	%cl, (%rax)
     f97: 3e 01 0c 60                  	addl	%ecx, %ds:(%rax,%riz,2)
     f9b: 00 00                        	addb	%al, (%rax)
     f9d: 00 a9 0f 00 00 01            	addb	%ch, 16777231(%rcx)
     fa3: 2c 03                        	subb	$3, %al
     fa5: 00 00                        	addb	%al, (%rax)
     fa7: 2f                           	<unknown>
     fa8: 00 30                        	addb	%dh, (%rax)
     faa: 35 06 00 00 30               	xorl	$805306374, %eax
     faf: 0f 40 00                     	cmovol	(%rax), %eax
     fb2: 00 00                        	addb	%al, (%rax)
     fb4: 00 00                        	addb	%al, (%rax)
     fb6: 0f 00 00                     	sldtw	(%rax)
     fb9: 00 00                        	addb	%al, (%rax)
     fbb: 00 00                        	addb	%al, (%rax)
     fbd: 00 01                        	addb	%al, (%rcx)
     fbf: 9c                           	pushfq
     fc0: f0                           	lock
     fc1: 0f 00 00                     	sldtw	(%rax)
     fc4: 31 f0                        	xorl	%esi, %eax
     fc6: 0f 00 00                     	sldtw	(%rax)
     fc9: 30 0f                        	xorb	%cl, (%rdi)
     fcb: 40 00 00                     	addb	%al, (%rax)
     fce: 00 00                        	addb	%al, (%rax)
     fd0: 00 0e                        	addb	%cl, (%rsi)
     fd2: 00 00                        	addb	%al, (%rax)
     fd4: 00 00                        	addb	%al, (%rax)
     fd6: 00 00                        	addb	%al, (%rax)
     fd8: 00 01                        	addb	%al, (%rcx)
     fda: 5a                           	popq	%rdx
     fdb: 01 1b                        	addl	%ebx, (%rbx)
     fdd: 04 10                        	addb	$16, %al
     fdf: 00 00                        	addb	%al, (%rax)
     fe1: 0c 00                        	orb	$0, %al
     fe3: 00 00                        	addb	%al, (%rax)
     fe5: 1b fa                        	sbbl	%edx, %edi
     fe7: 0f 00 00                     	sldtw	(%rax)
     fea: 1c 00                        	sbbb	$0, %al
     fec: 00 00                        	addb	%al, (%rax)
     fee: 00 00                        	addb	%al, (%rax)
     ff0: 32 db                        	xorb	%bl, %bl
     ff2: 03 00                        	addl	(%rax), %eax
     ff4: 00 01                        	addb	%al, (%rcx)
     ff6: 0f 10 00                     	movups	(%rax), %xmm0
     ff9: 00 1c 6e                     	addb	%bl, (%rsi,%rbp,2)
     ffc: 01 00                        	addl	%eax, (%rax)
     ffe: 00 5a 60                     	addb	%bl, 96(%rdx)
    1001: 00 00                        	addb	%al, (%rax)
    1003: 00 1c ca                     	addb	%bl, (%rdx,%rcx,8)
    1006: 01 00                        	addl	%eax, (%rax)
    1008: 00 5a 60                     	addb	%bl, 96(%rdx)
    100b: 00 00                        	addb	%al, (%rax)
    100d: 00 00                        	addb	%al, (%rax)
    100f: 33 c1                        	xorl	%ecx, %eax
    1011: 03 00                        	addl	(%rax), %eax
    1013: 00 01                        	addb	%al, (%rcx)
    1015: 1d 05 60 00 00               	sbbl	$24581, %eax
    101a: 00 d0                        	addb	%dl, %al
    101c: 0d 40 00 00 00               	orl	$64, %eax
    1021: 00 00                        	addb	%al, (%rax)
    1023: 5d                           	popq	%rbp
    1024: 01 00                        	addl	%eax, (%rax)
    1026: 00 00                        	addb	%al, (%rax)
    1028: 00 00                        	addb	%al, (%rax)
    102a: 00 01                        	addb	%al, (%rcx)
    102c: 9c                           	pushfq
    102d: 26 13 00                     	adcl	%es:(%rax), %eax
    1030: 00 1d dd 01 00 00            	addb	%bl, 477(%rip)  # 1213 <.debug_info+0x1213>
    1036: 0e                           	<unknown>
    1037: 60                           	<unknown>
    1038: 00 00                        	addb	%al, (%rax)
    103a: 00 2a                        	addb	%ch, (%rdx)
    103c: 00 00                        	addb	%al, (%rax)
    103e: 00 1d b0 03 00 00            	addb	%bl, 944(%rip)  # 13f4 <.debug_info+0x13f4>
    1044: 1a f1                        	sbbb	%cl, %dh
    1046: 0a 00                        	orb	(%rax), %al
    1048: 00 64 00 00                  	addb	%ah, (%rax,%rax)
    104c: 00 34 2c                     	addb	%dh, (%rsp,%rbp)
    104f: 00 00                        	addb	%al, (%rax)
    1051: 00 01                        	addb	%al, (%rcx)
    1053: 34 0b                        	xorb	$11, %al
    1055: 88 00                        	movb	%al, (%rax)
    1057: 00 00                        	addb	%al, (%rax)
    1059: 8a 00                        	movb	(%rax), %al
    105b: 00 00                        	addb	%al, (%rax)
    105d: 05 ee 0d 40 00               	addl	$4197870, %eax
    1062: 00 00                        	addb	%al, (%rax)
    1064: 00 00                        	addb	%al, (%rax)
    1066: 76 0f                        	jbe	0x1077 <.debug_info+0x1077>
    1068: 00 00                        	addb	%al, (%rax)
    106a: 0b f8                        	orl	%eax, %edi
    106c: 0d 40 00 00 00               	orl	$64, %eax
    1071: 00 00                        	addb	%al, (%rax)
    1073: 26 13 00                     	adcl	%es:(%rax), %eax
    1076: 00 89 10 00 00 09            	addb	%cl, 150994960(%rcx)
    107c: 01 55 09                     	addl	%edx, 9(%rbp)
    107f: 03 f7                        	addl	%edi, %esi
    1081: 23 40 00                     	andl	(%rax), %eax
    1084: 00 00                        	addb	%al, (%rax)
    1086: 00 00                        	addb	%al, (%rax)
    1088: 00 05 fd 0d 40 00            	addb	%al, 4197885(%rip)  # 401e8b <_Z7submitrPKciS0_S0_S0_S0_S0_Pc+0x20b>
    108e: 00 00                        	addb	%al, (%rax)
    1090: 00 00                        	addb	%al, (%rax)
    1092: 66 0f 00 00                  	sldtw	(%rax)
    1096: 05 05 0e 40 00               	addl	$4197893, %eax
    109b: 00 00                        	addb	%al, (%rax)
    109d: 00 00                        	addb	%al, (%rax)
    109f: 52                           	pushq	%rdx
    10a0: 0f 00 00                     	sldtw	(%rax)
    10a3: 05 0a 0e 40 00               	addl	$4197898, %eax
    10a8: 00 00                        	addb	%al, (%rax)
    10aa: 00 00                        	addb	%al, (%rax)
    10ac: 48 0f 00 00                  	sldtw	(%rax)
    10b0: 0b 14 0e                     	orl	(%rsi,%rcx), %edx
    10b3: 40 00 00                     	addb	%al, (%rax)
    10b6: 00 00                        	addb	%al, (%rax)
    10b8: 00 26                        	addb	%ah, (%rsi)
    10ba: 13 00                        	adcl	(%rax), %eax
    10bc: 00 cf                        	addb	%cl, %bh
    10be: 10 00                        	adcb	%al, (%rax)
    10c0: 00 09                        	addb	%cl, (%rcx)
    10c2: 01 55 09                     	addl	%edx, 9(%rbp)
    10c5: 03 07                        	addl	(%rdi), %eax
    10c7: 24 40                        	andb	$64, %al
    10c9: 00 00                        	addb	%al, (%rax)
    10cb: 00 00                        	addb	%al, (%rax)
    10cd: 00 00                        	addb	%al, (%rax)
    10cf: 05 19 0e 40 00               	addl	$4197913, %eax
    10d4: 00 00                        	addb	%al, (%rax)
    10d6: 00 00                        	addb	%al, (%rax)
    10d8: 66 0f 00 00                  	sldtw	(%rax)
    10dc: 05 21 0e 40 00               	addl	$4197921, %eax
    10e1: 00 00                        	addb	%al, (%rax)
    10e3: 00 00                        	addb	%al, (%rax)
    10e5: 34 0f                        	xorb	$15, %al
    10e7: 00 00                        	addb	%al, (%rax)
    10e9: 05 26 0e 40 00               	addl	$4197926, %eax
    10ee: 00 00                        	addb	%al, (%rax)
    10f0: 00 00                        	addb	%al, (%rax)
    10f2: 48 0f 00 00                  	sldtw	(%rax)
    10f6: 0b 30                        	orl	(%rax), %esi
    10f8: 0e                           	<unknown>
    10f9: 40 00 00                     	addb	%al, (%rax)
    10fc: 00 00                        	addb	%al, (%rax)
    10fe: 00 26                        	addb	%ah, (%rsi)
    1100: 13 00                        	adcl	(%rax), %eax
    1102: 00 15 11 00 00 09            	addb	%dl, 150994961(%rip)  # 9001119 <_end+0x89fbfd9>
    1108: 01 55 09                     	addl	%edx, 9(%rbp)
    110b: 03 18                        	addl	(%rax), %ebx
    110d: 24 40                        	andb	$64, %al
    110f: 00 00                        	addb	%al, (%rax)
    1111: 00 00                        	addb	%al, (%rax)
    1113: 00 00                        	addb	%al, (%rax)
    1115: 05 35 0e 40 00               	addl	$4197941, %eax
    111a: 00 00                        	addb	%al, (%rax)
    111c: 00 00                        	addb	%al, (%rax)
    111e: 66 0f 00 00                  	sldtw	(%rax)
    1122: 05 3d 0e 40 00               	addl	$4197949, %eax
    1127: 00 00                        	addb	%al, (%rax)
    1129: 00 00                        	addb	%al, (%rax)
    112b: 20 0f                        	andb	%cl, (%rdi)
    112d: 00 00                        	addb	%al, (%rax)
    112f: 05 42 0e 40 00               	addl	$4197954, %eax
    1134: 00 00                        	addb	%al, (%rax)
    1136: 00 00                        	addb	%al, (%rax)
    1138: 48 0f 00 00                  	sldtw	(%rax)
    113c: 0b 4c 0e 40                  	orl	64(%rsi,%rcx), %ecx
    1140: 00 00                        	addb	%al, (%rax)
    1142: 00 00                        	addb	%al, (%rax)
    1144: 00 26                        	addb	%ah, (%rsi)
    1146: 13 00                        	adcl	(%rax), %eax
    1148: 00 5b 11                     	addb	%bl, 17(%rbx)
    114b: 00 00                        	addb	%al, (%rax)
    114d: 09 01                        	orl	%eax, (%rcx)
    114f: 55                           	pushq	%rbp
    1150: 09 03                        	orl	%eax, (%rbx)
    1152: 29 24 40                     	subl	%esp, (%rax,%rax,2)
    1155: 00 00                        	addb	%al, (%rax)
    1157: 00 00                        	addb	%al, (%rax)
    1159: 00 00                        	addb	%al, (%rax)
    115b: 05 51 0e 40 00               	addl	$4197969, %eax
    1160: 00 00                        	addb	%al, (%rax)
    1162: 00 00                        	addb	%al, (%rax)
    1164: 66 0f 00 00                  	sldtw	(%rax)
    1168: 05 59 0e 40 00               	addl	$4197977, %eax
    116d: 00 00                        	addb	%al, (%rax)
    116f: 00 00                        	addb	%al, (%rax)
    1171: 0c 0f                        	orb	$15, %al
    1173: 00 00                        	addb	%al, (%rax)
    1175: 05 5e 0e 40 00               	addl	$4197982, %eax
    117a: 00 00                        	addb	%al, (%rax)
    117c: 00 00                        	addb	%al, (%rax)
    117e: 48 0f 00 00                  	sldtw	(%rax)
    1182: 0b 68 0e                     	orl	14(%rax), %ebp
    1185: 40 00 00                     	addb	%al, (%rax)
    1188: 00 00                        	addb	%al, (%rax)
    118a: 00 26                        	addb	%ah, (%rsi)
    118c: 13 00                        	adcl	(%rax), %eax
    118e: 00 a1 11 00 00 09            	addb	%ah, 150994961(%rcx)
    1194: 01 55 09                     	addl	%edx, 9(%rbp)
    1197: 03 3a                        	addl	(%rdx), %edi
    1199: 24 40                        	andb	$64, %al
    119b: 00 00                        	addb	%al, (%rax)
    119d: 00 00                        	addb	%al, (%rax)
    119f: 00 00                        	addb	%al, (%rax)
    11a1: 05 6d 0e 40 00               	addl	$4197997, %eax
    11a6: 00 00                        	addb	%al, (%rax)
    11a8: 00 00                        	addb	%al, (%rax)
    11aa: 66 0f 00 00                  	sldtw	(%rax)
    11ae: 05 75 0e 40 00               	addl	$4198005, %eax
    11b3: 00 00                        	addb	%al, (%rax)
    11b5: 00 00                        	addb	%al, (%rax)
    11b7: f8                           	clc
    11b8: 0e                           	<unknown>
    11b9: 00 00                        	addb	%al, (%rax)
    11bb: 05 7a 0e 40 00               	addl	$4198010, %eax
    11c0: 00 00                        	addb	%al, (%rax)
    11c2: 00 00                        	addb	%al, (%rax)
    11c4: 48 0f 00 00                  	sldtw	(%rax)
    11c8: 0b 84 0e 40 00 00 00         	orl	64(%rsi,%rcx), %eax
    11cf: 00 00                        	addb	%al, (%rax)
    11d1: 26 13 00                     	adcl	%es:(%rax), %eax
    11d4: 00 e7                        	addb	%ah, %bh
    11d6: 11 00                        	adcl	%eax, (%rax)
    11d8: 00 09                        	addb	%cl, (%rcx)
    11da: 01 55 09                     	addl	%edx, 9(%rbp)
    11dd: 03 4b 24                     	addl	36(%rbx), %ecx
    11e0: 40 00 00                     	addb	%al, (%rax)
    11e3: 00 00                        	addb	%al, (%rax)
    11e5: 00 00                        	addb	%al, (%rax)
    11e7: 05 89 0e 40 00               	addl	$4198025, %eax
    11ec: 00 00                        	addb	%al, (%rax)
    11ee: 00 00                        	addb	%al, (%rax)
    11f0: 66 0f 00 00                  	sldtw	(%rax)
    11f4: 05 91 0e 40 00               	addl	$4198033, %eax
    11f9: 00 00                        	addb	%al, (%rax)
    11fb: 00 00                        	addb	%al, (%rax)
    11fd: e4 0e                        	inb	$14, %al
    11ff: 00 00                        	addb	%al, (%rax)
    1201: 05 96 0e 40 00               	addl	$4198038, %eax
    1206: 00 00                        	addb	%al, (%rax)
    1208: 00 00                        	addb	%al, (%rax)
    120a: 48 0f 00 00                  	sldtw	(%rax)
    120e: 0b a0 0e 40 00 00            	orl	16398(%rax), %esp
    1214: 00 00                        	addb	%al, (%rax)
    1216: 00 26                        	addb	%ah, (%rsi)
    1218: 13 00                        	adcl	(%rax), %eax
    121a: 00 2d 12 00 00 09            	addb	%ch, 150994962(%rip)  # 9001232 <_end+0x89fc0f2>
    1220: 01 55 09                     	addl	%edx, 9(%rbp)
    1223: 03 5c 24 40                  	addl	64(%rsp), %ebx
    1227: 00 00                        	addb	%al, (%rax)
    1229: 00 00                        	addb	%al, (%rax)
    122b: 00 00                        	addb	%al, (%rax)
    122d: 05 a5 0e 40 00               	addl	$4198053, %eax
    1232: 00 00                        	addb	%al, (%rax)
    1234: 00 00                        	addb	%al, (%rax)
    1236: 66 0f 00 00                  	sldtw	(%rax)
    123a: 05 ad 0e 40 00               	addl	$4198061, %eax
    123f: 00 00                        	addb	%al, (%rax)
    1241: 00 00                        	addb	%al, (%rax)
    1243: d0 0e                        	rorb	(%rsi)
    1245: 00 00                        	addb	%al, (%rax)
    1247: 05 b2 0e 40 00               	addl	$4198066, %eax
    124c: 00 00                        	addb	%al, (%rax)
    124e: 00 00                        	addb	%al, (%rax)
    1250: 48 0f 00 00                  	sldtw	(%rax)
    1254: 0b bc 0e 40 00 00 00         	orl	64(%rsi,%rcx), %edi
    125b: 00 00                        	addb	%al, (%rax)
    125d: 26 13 00                     	adcl	%es:(%rax), %eax
    1260: 00 73 12                     	addb	%dh, 18(%rbx)
    1263: 00 00                        	addb	%al, (%rax)
    1265: 09 01                        	orl	%eax, (%rcx)
    1267: 55                           	pushq	%rbp
    1268: 09 03                        	orl	%eax, (%rbx)
    126a: 6d                           	insl	%dx, %es:(%rdi)
    126b: 24 40                        	andb	$64, %al
    126d: 00 00                        	addb	%al, (%rax)
    126f: 00 00                        	addb	%al, (%rax)
    1271: 00 00                        	addb	%al, (%rax)
    1273: 0b d4                        	orl	%esp, %edx
    1275: 0e                           	<unknown>
    1276: 40 00 00                     	addb	%al, (%rax)
    1279: 00 00                        	addb	%al, (%rax)
    127b: 00 0b                        	addb	%cl, (%rbx)
    127d: 0d 00 00 98 12               	orl	$311951360, %eax
    1282: 00 00                        	addb	%al, (%rax)
    1284: 09 01                        	orl	%eax, (%rcx)
    1286: 55                           	pushq	%rbp
    1287: 02 7c 00 09                  	addb	9(%rax,%rax), %bh
    128b: 01 54 09 03                  	addl	%edx, 3(%rcx,%rcx)
    128f: c4 23 40 00                  	<unknown>
    1293: 00 00                        	addb	%al, (%rax)
    1295: 00 00                        	addb	%al, (%rax)
    1297: 00 0b                        	addb	%cl, (%rbx)
    1299: e9 0e 40 00 00               	jmp	0x52ac <.debug_info+0x52ac>
    129e: 00 00                        	addb	%al, (%rax)
    12a0: 00 8e 06 00 00 bd            	addb	%cl, -1124073466(%rsi)
    12a6: 12 00                        	adcb	(%rax), %al
    12a8: 00 09                        	addb	%cl, (%rcx)
    12aa: 01 55 02                     	addl	%edx, 2(%rbp)
    12ad: 7c 00                        	jl	0x12af <.debug_info+0x12af>
    12af: 09 01                        	orl	%eax, (%rcx)
    12b1: 54                           	pushq	%rsp
    12b2: 09 03                        	orl	%eax, (%rbx)
    12b4: c6 23                        	<unknown>
    12b6: 40 00 00                     	addb	%al, (%rax)
    12b9: 00 00                        	addb	%al, (%rax)
    12bb: 00 00                        	addb	%al, (%rax)
    12bd: 0b 0a                        	orl	(%rdx), %ecx
    12bf: 0f 40 00                     	cmovol	(%rax), %eax
    12c2: 00 00                        	addb	%al, (%rax)
    12c4: 00 00                        	addb	%al, (%rax)
    12c6: 91                           	xchgl	%ecx, %eax
    12c7: 0f 00 00                     	sldtw	(%rax)
    12ca: dc 12                        	fcoml	(%rdx)
    12cc: 00 00                        	addb	%al, (%rax)
    12ce: 09 01                        	orl	%eax, (%rcx)
    12d0: 55                           	pushq	%rbp
    12d1: 09 03                        	orl	%eax, (%rbx)
    12d3: c8 23 40 00                  	enter	$16419, $0
    12d7: 00 00                        	addb	%al, (%rax)
    12d9: 00 00                        	addb	%al, (%rax)
    12db: 00 0b                        	addb	%cl, (%rbx)
    12dd: 14 0f                        	adcb	$15, %al
    12df: 40 00 00                     	addb	%al, (%rax)
    12e2: 00 00                        	addb	%al, (%rax)
    12e4: 00 80 0f 00 00 f3            	addb	%al, -218103793(%rax)
    12ea: 12 00                        	adcb	(%rax), %al
    12ec: 00 09                        	addb	%cl, (%rcx)
    12ee: 01 55 01                     	addl	%edx, 1(%rbp)
    12f1: 38 00                        	cmpb	%al, (%rax)
    12f3: 0b 23                        	orl	(%rbx), %esp
    12f5: 0f 40 00                     	cmovol	(%rax), %eax
    12f8: 00 00                        	addb	%al, (%rax)
    12fa: 00 00                        	addb	%al, (%rax)
    12fc: 91                           	xchgl	%ecx, %eax
    12fd: 0f 00 00                     	sldtw	(%rax)
    1300: 12 13                        	adcb	(%rbx), %dl
    1302: 00 00                        	addb	%al, (%rax)
    1304: 09 01                        	orl	%eax, (%rcx)
    1306: 55                           	pushq	%rbp
    1307: 09 03                        	orl	%eax, (%rbx)
    1309: e5 23                        	inl	$35, %eax
    130b: 40 00 00                     	addb	%al, (%rax)
    130e: 00 00                        	addb	%al, (%rax)
    1310: 00 00                        	addb	%al, (%rax)
    1312: 35 2d 0f 40 00               	xorl	$4198189, %eax
    1317: 00 00                        	addb	%al, (%rax)
    1319: 00 00                        	addb	%al, (%rax)
    131b: 80 0f 00                     	orb	$0, (%rdi)
    131e: 00 09                        	addb	%cl, (%rcx)
    1320: 01 55 01                     	addl	%edx, 1(%rbp)
    1323: 38 00                        	cmpb	%al, (%rax)
    1325: 00 36                        	addb	%dh, (%rsi)
    1327: ad                           	lodsl	(%rsi), %eax
    1328: 02 00                        	addb	(%rax), %al
    132a: 00 a3 02 00 00 00            	addb	%ah, 2(%rbx)

Disassembly of section .debug_abbrev:

0000000000000000 <.debug_abbrev>:
       0: 01 05 00 49 13 00            	addl	%eax, 1263872(%rip)  # 134906 <.debug_info+0x134906>
       6: 00 02                        	addb	%al, (%rdx)
       8: 08 00                        	orb	%al, (%rax)
       a: 3a 0b                        	cmpb	(%rbx), %cl
       c: 3b 0b                        	cmpl	(%rbx), %ecx
       e: 39 0b                        	cmpl	%ecx, (%rbx)
      10: 18 13                        	sbbb	%dl, (%rbx)
      12: 00 00                        	addb	%al, (%rax)
      14: 03 2e                        	addl	(%rsi), %ebp
      16: 01 3f                        	addl	%edi, (%rdi)
      18: 19 03                        	sbbl	%eax, (%rbx)
      1a: 0e                           	<unknown>
      1b: 3a 0b                        	cmpb	(%rbx), %cl
      1d: 3b 05 39 0b 49 13            	cmpl	323554105(%rip), %eax  # 13490b5c <_end+0x12e8ba1c>
      23: 3c 19                        	cmpb	$25, %al
      25: 01 13                        	addl	%edx, (%rbx)
      27: 00 00                        	addb	%al, (%rax)
      29: 04 2e                        	addb	$46, %al
      2b: 01 3f                        	addl	%edi, (%rdi)
      2d: 19 03                        	sbbl	%eax, (%rbx)
      2f: 0e                           	<unknown>
      30: 3a 0b                        	cmpb	(%rbx), %cl
      32: 3b 0b                        	cmpl	(%rbx), %ecx
      34: 39 0b                        	cmpl	%ecx, (%rbx)
      36: 49 13 3c 19                  	adcq	(%r9,%rbx), %rdi
      3a: 01 13                        	addl	%edx, (%rbx)
      3c: 00 00                        	addb	%al, (%rax)
      3e: 05 48 00 7d 01               	addl	$24969288, %eax
      43: 7f 13                        	jg	0x58 <.debug_info+0x58>
      45: 00 00                        	addb	%al, (%rax)
      47: 06                           	<unknown>
      48: 0d 00 03 0e 3a               	orl	$973996800, %eax
      4d: 21 04 3b                     	andl	%eax, (%rbx,%rdi)
      50: 05 39 0b 49 13               	addl	$323554105, %eax
      55: 38 0b                        	cmpb	%cl, (%rbx)
      57: 00 00                        	addb	%al, (%rax)
      59: 07                           	<unknown>
      5a: 0d 00 03 0e 3a               	orl	$973996800, %eax
      5f: 0b 3b                        	orl	(%rbx), %edi
      61: 0b 39                        	orl	(%rcx), %edi
      63: 0b 49 13                     	orl	19(%rcx), %ecx
      66: 38 0b                        	cmpb	%cl, (%rbx)
      68: 00 00                        	addb	%al, (%rax)
      6a: 08 24 00                     	orb	%ah, (%rax,%rax)
      6d: 0b 0b                        	orl	(%rbx), %ecx
      6f: 3e 0b 03                     	orl	%ds:(%rbx), %eax
      72: 0e                           	<unknown>
      73: 00 00                        	addb	%al, (%rax)
      75: 09 49 00                     	orl	%ecx, (%rcx)
      78: 02 18                        	addb	(%rax), %bl
      7a: 7e 18                        	jle	0x94 <.debug_info+0x94>
      7c: 00 00                        	addb	%al, (%rax)
      7e: 0a 0f                        	orb	(%rdi), %cl
      80: 00 0b                        	addb	%cl, (%rbx)
      82: 21 08                        	andl	%ecx, (%rax)
      84: 49 13 00                     	adcq	(%r8), %rax
      87: 00 0b                        	addb	%cl, (%rbx)
      89: 48 01 7d 01                  	addq	%rdi, 1(%rbp)
      8d: 7f 13                        	jg	0xa2 <.debug_info+0xa2>
      8f: 01 13                        	addl	%edx, (%rbx)
      91: 00 00                        	addb	%al, (%rax)
      93: 0c 16                        	orb	$22, %al
      95: 00 03                        	addb	%al, (%rbx)
      97: 0e                           	<unknown>
      98: 3a 0b                        	cmpb	(%rbx), %cl
      9a: 3b 0b                        	cmpl	(%rbx), %ecx
      9c: 39 0b                        	cmpl	%ecx, (%rbx)
      9e: 49 13 00                     	adcq	(%r8), %rax
      a1: 00 0d 2e 01 3f 19            	addb	%cl, 423559470(%rip)  # 193f01d5 <_end+0x18deb095>
      a7: 03 0e                        	addl	(%rsi), %ecx
      a9: 3a 21                        	cmpb	(%rcx), %ah
      ab: 11 3b                        	adcl	%edi, (%rbx)
      ad: 0b 39                        	orl	(%rcx), %edi
      af: 21 0d 6e 0e 3c 19            	andl	%ecx, 423366254(%rip)  # 193c0f23 <_end+0x18dbbde3>
      b5: 01 13                        	addl	%edx, (%rbx)
      b7: 00 00                        	addb	%al, (%rax)
      b9: 0e                           	<unknown>
      ba: 2e 01 3f                     	addl	%edi, %cs:(%rdi)
      bd: 19 03                        	sbbl	%eax, (%rbx)
      bf: 0e                           	<unknown>
      c0: 3a 0b                        	cmpb	(%rbx), %cl
      c2: 3b 05 39 21 0d 3c            	cmpl	1007493433(%rip), %eax  # 3c0d2201 <_end+0x3bacd0c1>
      c8: 19 01                        	sbbl	%eax, (%rcx)
      ca: 13 00                        	adcl	(%rax), %eax
      cc: 00 0f                        	addb	%cl, (%rdi)
      ce: 2e 01 3f                     	addl	%edi, %cs:(%rdi)
      d1: 19 03                        	sbbl	%eax, (%rbx)
      d3: 0e                           	<unknown>
      d4: 3a 21                        	cmpb	(%rcx), %ah
      d6: 10 3b                        	adcb	%bh, (%rbx)
      d8: 0b 39                        	orl	(%rcx), %edi
      da: 21 01                        	andl	%eax, (%rcx)
      dc: 6e                           	outsb	(%rsi), %dx
      dd: 0e                           	<unknown>
      de: 49 13 3c 19                  	adcq	(%r9,%rbx), %rdi
      e2: 01 13                        	addl	%edx, (%rbx)
      e4: 00 00                        	addb	%al, (%rax)
      e6: 10 13                        	adcb	%dl, (%rbx)
      e8: 01 0b                        	addl	%ecx, (%rbx)
      ea: 0b 3a                        	orl	(%rdx), %edi
      ec: 0b 3b                        	orl	(%rbx), %edi
      ee: 0b 39                        	orl	(%rcx), %edi
      f0: 0b 6e 0e                     	orl	14(%rsi), %ebp
      f3: 01 13                        	addl	%edx, (%rbx)
      f5: 00 00                        	addb	%al, (%rax)
      f7: 11 2e                        	adcl	%ebp, (%rsi)
      f9: 01 3f                        	addl	%edi, (%rdi)
      fb: 19 03                        	sbbl	%eax, (%rbx)
      fd: 0e                           	<unknown>
      fe: 3a 0b                        	cmpb	(%rbx), %cl
     100: 3b 05 39 0b 6e 0e            	cmpl	242092857(%rip), %eax  # e6e0c3f <_end+0xe0dbaff>
     106: 49 13 3c 19                  	adcq	(%r9,%rbx), %rdi
     10a: 01 13                        	addl	%edx, (%rbx)
     10c: 00 00                        	addb	%al, (%rax)
     10e: 12 26                        	adcb	(%rsi), %ah
     110: 00 49 13                     	addb	%cl, 19(%rcx)
     113: 00 00                        	addb	%al, (%rax)
     115: 13 01                        	adcl	(%rcx), %eax
     117: 01 49 13                     	addl	%ecx, 19(%rcx)
     11a: 01 13                        	addl	%edx, (%rbx)
     11c: 00 00                        	addb	%al, (%rax)
     11e: 14 21                        	adcb	$33, %al
     120: 00 49 13                     	addb	%cl, 19(%rcx)
     123: 2f                           	<unknown>
     124: 0b 00                        	orl	(%rax), %eax
     126: 00 15 0d 00 03 08            	addb	%dl, 134414349(%rip)  # 8030139 <_end+0x7a2aff9>
     12c: 3a 21                        	cmpb	(%rcx), %ah
     12e: 0d 3b 0b 39 0b               	orl	$188287803, %eax
     133: 49 13 38                     	adcq	(%r8), %rdi
     136: 0b 00                        	orl	(%rax), %eax
     138: 00 16                        	addb	%dl, (%rsi)
     13a: 13 01                        	adcl	(%rcx), %eax
     13c: 03 0e                        	addl	(%rsi), %ecx
     13e: 0b 0b                        	orl	(%rbx), %ecx
     140: 3a 21                        	cmpb	(%rcx), %ah
     142: 04 3b                        	addb	$59, %al
     144: 0b 39                        	orl	(%rcx), %edi
     146: 21 08                        	andl	%ecx, (%rax)
     148: 01 13                        	addl	%edx, (%rbx)
     14a: 00 00                        	addb	%al, (%rax)
     14c: 17                           	<unknown>
     14d: 0d 00 03 0e 3a               	orl	$973996800, %eax
     152: 21 06                        	andl	%eax, (%rsi)
     154: 3b 0b                        	cmpl	(%rbx), %ecx
     156: 39 0b                        	cmpl	%ecx, (%rbx)
     158: 49 13 00                     	adcq	(%r8), %rax
     15b: 00 18                        	addb	%bl, (%rax)
     15d: 2e 00 3f                     	addb	%bh, %cs:(%rdi)
     160: 19 03                        	sbbl	%eax, (%rbx)
     162: 0e                           	<unknown>
     163: 3a 0b                        	cmpb	(%rbx), %cl
     165: 3b 0b                        	cmpl	(%rbx), %ecx
     167: 39 0b                        	cmpl	%ecx, (%rbx)
     169: 49 13 3c 19                  	adcq	(%r9,%rbx), %rdi
     16d: 00 00                        	addb	%al, (%rax)
     16f: 19 2e                        	sbbl	%ebp, (%rsi)
     171: 01 3f                        	addl	%edi, (%rdi)
     173: 19 03                        	sbbl	%eax, (%rbx)
     175: 0e                           	<unknown>
     176: 3a 21                        	cmpb	(%rcx), %ah
     178: 0d 3b 05 39 21               	orl	$557385019, %eax
     17d: 0d 87 01 19 3c               	orl	$1008271751, %eax
     182: 19 01                        	sbbl	%eax, (%rcx)
     184: 13 00                        	adcl	(%rax), %eax
     186: 00 1a                        	addb	%bl, (%rdx)
     188: 2e 00 3f                     	addb	%bh, %cs:(%rdi)
     18b: 19 03                        	sbbl	%eax, (%rbx)
     18d: 0e                           	<unknown>
     18e: 3a 21                        	cmpb	(%rcx), %ah
     190: 12 3b                        	adcb	(%rbx), %bh
     192: 0b 39                        	orl	(%rcx), %edi
     194: 21 06                        	andl	%eax, (%rsi)
     196: 6e                           	outsb	(%rsi), %dx
     197: 0e                           	<unknown>
     198: 3c 19                        	cmpb	$25, %al
     19a: 00 00                        	addb	%al, (%rax)
     19c: 1b 05 00 31 13 02            	sbbl	34812160(%rip), %eax  # 21332a2 <_end+0x1b2e162>
     1a2: 17                           	<unknown>
     1a3: 00 00                        	addb	%al, (%rax)
     1a5: 1c 05                        	sbbb	$5, %al
     1a7: 00 03                        	addb	%al, (%rbx)
     1a9: 0e                           	<unknown>
     1aa: 3a 21                        	cmpb	(%rcx), %ah
     1ac: 01 3b                        	addl	%edi, (%rbx)
     1ae: 0b 39                        	orl	(%rcx), %edi
     1b0: 21 01                        	andl	%eax, (%rcx)
     1b2: 49 13 00                     	adcq	(%r8), %rax
     1b5: 00 1d 05 00 03 0e            	addb	%bl, 235077637(%rip)  # e0301c0 <_end+0xda2b080>
     1bb: 3a 21                        	cmpb	(%rcx), %ah
     1bd: 01 3b                        	addl	%edi, (%rbx)
     1bf: 21 1d 39 0b 49 13            	andl	%ebx, 323554105(%rip)  # 13490cfe <_end+0x12e8bbbe>
     1c5: 02 17                        	addb	(%rdi), %dl
     1c7: 00 00                        	addb	%al, (%rax)
     1c9: 1e                           	<unknown>
     1ca: 11 01                        	adcl	%eax, (%rcx)
     1cc: 25 0e 13 0b 03               	andl	$51057422, %eax
     1d1: 0e                           	<unknown>
     1d2: 1b 0e                        	sbbl	(%rsi), %ecx
     1d4: 55                           	pushq	%rbp
     1d5: 17                           	<unknown>
     1d6: 11 01                        	adcl	%eax, (%rcx)
     1d8: 10 17                        	adcb	%dl, (%rdi)
     1da: 00 00                        	addb	%al, (%rax)
     1dc: 1f                           	<unknown>
     1dd: 24 00                        	andb	$0, %al
     1df: 0b 0b                        	orl	(%rbx), %ecx
     1e1: 3e 0b 03                     	orl	%ds:(%rbx), %eax
     1e4: 08 00                        	orb	%al, (%rax)
     1e6: 00 20                        	addb	%ah, (%rax)
     1e8: 0f 00 0b                     	strw	(%rbx)
     1eb: 0b 00                        	orl	(%rax), %eax
     1ed: 00 21                        	addb	%ah, (%rcx)
     1ef: 17                           	<unknown>
     1f0: 01 0b                        	addl	%ecx, (%rbx)
     1f2: 0b 3a                        	orl	(%rdx), %edi
     1f4: 0b 3b                        	orl	(%rbx), %edi
     1f6: 0b 39                        	orl	(%rcx), %edi
     1f8: 0b 01                        	orl	(%rcx), %eax
     1fa: 13 00                        	adcl	(%rax), %eax
     1fc: 00 22                        	addb	%ah, (%rdx)
     1fe: 16                           	<unknown>
     1ff: 00 03                        	addb	%al, (%rbx)
     201: 0e                           	<unknown>
     202: 3a 0b                        	cmpb	(%rbx), %cl
     204: 3b 0b                        	cmpl	(%rbx), %ecx
     206: 39 0b                        	cmpl	%ecx, (%rbx)
     208: 00 00                        	addb	%al, (%rax)
     20a: 23 34 00                     	andl	(%rax,%rax), %esi
     20d: 03 0e                        	addl	(%rsi), %ecx
     20f: 3a 0b                        	cmpb	(%rbx), %cl
     211: 3b 0b                        	cmpl	(%rbx), %ecx
     213: 39 0b                        	cmpl	%ecx, (%rbx)
     215: 49 13 3f                     	adcq	(%r15), %rdi
     218: 19 3c 19                     	sbbl	%edi, (%rcx,%rbx)
     21b: 00 00                        	addb	%al, (%rax)
     21d: 24 39                        	andb	$57, %al
     21f: 01 03                        	addl	%eax, (%rbx)
     221: 08 3a                        	orb	%bh, (%rdx)
     223: 0b 3b                        	orl	(%rbx), %edi
     225: 05 39 0b 01 13               	addl	$318835513, %eax
     22a: 00 00                        	addb	%al, (%rax)
     22c: 25 16 00 03 0e               	andl	$235077654, %eax
     231: 3a 0b                        	cmpb	(%rbx), %cl
     233: 3b 05 39 0b 49 13            	cmpl	323554105(%rip), %eax  # 13490d72 <_end+0x12e8bc32>
     239: 00 00                        	addb	%al, (%rax)
     23b: 26 15 01 49 13 01            	adcl	$18041089, %eax
     241: 13 00                        	adcl	(%rax), %eax
     243: 00 27                        	addb	%ah, (%rdi)
     245: 26 00 00                     	addb	%al, %es:(%rax)
     248: 00 28                        	addb	%ch, (%rax)
     24a: 15 00 00 00 29               	adcl	$687865856, %eax
     24f: 2e 01 3f                     	addl	%edi, %cs:(%rdi)
     252: 19 03                        	sbbl	%eax, (%rbx)
     254: 08 3a                        	orb	%bh, (%rdx)
     256: 0b 3b                        	orl	(%rbx), %edi
     258: 05 39 0b 49 13               	addl	$323554105, %eax
     25d: 3c 19                        	cmpb	$25, %al
     25f: 01 13                        	addl	%edx, (%rbx)
     261: 00 00                        	addb	%al, (%rax)
     263: 2a 2e                        	subb	(%rsi), %ch
     265: 00 3f                        	addb	%bh, (%rdi)
     267: 19 03                        	sbbl	%eax, (%rbx)
     269: 0e                           	<unknown>
     26a: 3a 0b                        	cmpb	(%rbx), %cl
     26c: 3b 05 39 0b 49 13            	cmpl	323554105(%rip), %eax  # 13490dab <_end+0x12e8bc6b>
     272: 3c 19                        	cmpb	$25, %al
     274: 00 00                        	addb	%al, (%rax)
     276: 2b 39                        	subl	(%rcx), %edi
     278: 01 03                        	addl	%eax, (%rbx)
     27a: 0e                           	<unknown>
     27b: 3a 0b                        	cmpb	(%rbx), %cl
     27d: 3b 05 39 0b 01 13            	cmpl	318835513(%rip), %eax  # 13010dbc <_end+0x12a0bc7c>
     283: 00 00                        	addb	%al, (%rax)
     285: 2c 2e                        	subb	$46, %al
     287: 01 3f                        	addl	%edi, (%rdi)
     289: 19 03                        	sbbl	%eax, (%rbx)
     28b: 08 3a                        	orb	%bh, (%rdx)
     28d: 0b 3b                        	orl	(%rbx), %edi
     28f: 0b 39                        	orl	(%rcx), %edi
     291: 0b 6e 0e                     	orl	14(%rsi), %ebp
     294: 49 13 3c 19                  	adcq	(%r9,%rbx), %rdi
     298: 00 00                        	addb	%al, (%rax)
     29a: 2d 34 00 03 0e               	subl	$235077684, %eax
     29f: 3a 0b                        	cmpb	(%rbx), %cl
     2a1: 3b 0b                        	cmpl	(%rbx), %ecx
     2a3: 39 0b                        	cmpl	%ecx, (%rbx)
     2a5: 49 13 3f                     	adcq	(%r15), %rdi
     2a8: 19 02                        	sbbl	%eax, (%rdx)
     2aa: 18 00                        	sbbb	%al, (%rax)
     2ac: 00 2e                        	addb	%ch, (%rsi)
     2ae: 2e 00 3f                     	addb	%bh, %cs:(%rdi)
     2b1: 19 03                        	sbbl	%eax, (%rbx)
     2b3: 0e                           	<unknown>
     2b4: 3a 0b                        	cmpb	(%rbx), %cl
     2b6: 3b 0b                        	cmpl	(%rbx), %ecx
     2b8: 39 0b                        	cmpl	%ecx, (%rbx)
     2ba: 6e                           	outsb	(%rsi), %dx
     2bb: 0e                           	<unknown>
     2bc: 49 13 3c 19                  	adcq	(%r9,%rbx), %rdi
     2c0: 00 00                        	addb	%al, (%rax)
     2c2: 2f                           	<unknown>
     2c3: 18 00                        	sbbb	%al, (%rax)
     2c5: 00 00                        	addb	%al, (%rax)
     2c7: 30 2e                        	xorb	%ch, (%rsi)
     2c9: 01 03                        	addl	%eax, (%rbx)
     2cb: 0e                           	<unknown>
     2cc: 34 19                        	xorb	$25, %al
     2ce: 11 01                        	adcl	%eax, (%rcx)
     2d0: 12 07                        	adcb	(%rdi), %al
     2d2: 40 18 7a 19                  	sbbb	%dil, 25(%rdx)
     2d6: 01 13                        	addl	%edx, (%rbx)
     2d8: 00 00                        	addb	%al, (%rax)
     2da: 31 1d 01 31 13 11            	xorl	%ebx, 286470401(%rip)  # 111333e1 <_end+0x10b2e2a1>
     2e0: 01 12                        	addl	%edx, (%rdx)
     2e2: 07                           	<unknown>
     2e3: 58                           	popq	%rax
     2e4: 0b 59 0b                     	orl	11(%rcx), %ebx
     2e7: 57                           	pushq	%rdi
     2e8: 0b 00                        	orl	(%rax), %eax
     2ea: 00 32                        	addb	%dh, (%rdx)
     2ec: 2e 01 03                     	addl	%eax, %cs:(%rbx)
     2ef: 0e                           	<unknown>
     2f0: 34 19                        	xorb	$25, %al
     2f2: 20 0b                        	andb	%cl, (%rbx)
     2f4: 01 13                        	addl	%edx, (%rbx)
     2f6: 00 00                        	addb	%al, (%rax)
     2f8: 33 2e                        	xorl	(%rsi), %ebp
     2fa: 01 3f                        	addl	%edi, (%rdi)
     2fc: 19 03                        	sbbl	%eax, (%rbx)
     2fe: 0e                           	<unknown>
     2ff: 3a 0b                        	cmpb	(%rbx), %cl
     301: 3b 0b                        	cmpl	(%rbx), %ecx
     303: 39 0b                        	cmpl	%ecx, (%rbx)
     305: 49 13 11                     	adcq	(%r9), %rdx
     308: 01 12                        	addl	%edx, (%rdx)
     30a: 07                           	<unknown>
     30b: 40 18 7a 19                  	sbbb	%dil, 25(%rdx)
     30f: 01 13                        	addl	%edx, (%rbx)
     311: 00 00                        	addb	%al, (%rax)
     313: 34 34                        	xorb	$52, %al
     315: 00 03                        	addb	%al, (%rbx)
     317: 0e                           	<unknown>
     318: 3a 0b                        	cmpb	(%rbx), %cl
     31a: 3b 0b                        	cmpl	(%rbx), %ecx
     31c: 39 0b                        	cmpl	%ecx, (%rbx)
     31e: 49 13 02                     	adcq	(%r10), %rax
     321: 17                           	<unknown>
     322: 00 00                        	addb	%al, (%rax)
     324: 35 48 01 7d 01               	xorl	$24969544, %eax
     329: 7f 13                        	jg	0x33e <.debug_info+0x33e>
     32b: 00 00                        	addb	%al, (%rax)
     32d: 36 2e 00 3f                  	addb	%bh, %cs:(%rdi)
     331: 19 3c 19                     	sbbl	%edi, (%rcx,%rbx)
     334: 6e                           	outsb	(%rsi), %dx
     335: 0e                           	<unknown>
     336: 03 0e                        	addl	(%rsi), %ecx
     338: 00 00                        	addb	%al, (%rax)
     33a: 00                           	<unknown>

Disassembly of section .debug_line:

0000000000000000 <.debug_line>:
       0: 38 03                        	cmpb	%al, (%rbx)
       2: 00 00                        	addb	%al, (%rax)
       4: 02 00                        	addb	(%rax), %al
       6: c4 01 00 00                  	<unknown>
       a: 01 01                        	addl	%eax, (%rcx)
       c: fb                           	sti
       d: 0e                           	<unknown>
       e: 0d 00 01 01 01               	orl	$16843008, %eax
      13: 01 00                        	addl	%eax, (%rax)
      15: 00 00                        	addb	%al, (%rax)
      17: 01 00                        	addl	%eax, (%rax)
      19: 00 01                        	addb	%al, (%rcx)
      1b: 2f                           	<unknown>
      1c: 6f                           	outsl	(%rsi), %dx
      1d: 70 74                        	jo	0x93 <.debug_info+0x93>
      1f: 2f                           	<unknown>
      20: 67 63 63 2f                  	movslq	47(%ebx), %esp
      24: 6c                           	insb	%dx, %es:(%rdi)
      25: 69 62 2f 67 63 63 2f         	imull	$795042663, 47(%rdx), %esp
      2c: 78 38                        	js	0x66 <.debug_info+0x66>
      2e: 36 5f                        	popq	%rdi
      30: 36 34 2d                     	xorb	$45, %al
      33: 61                           	<unknown>
      34: 6d                           	insl	%dx, %es:(%rdi)
      35: 61                           	<unknown>
      36: 7a 6f                        	jp	0xa7 <.debug_info+0xa7>
      38: 6e                           	outsb	(%rsi), %dx
      39: 2d 6c 69 6e 75               	subl	$1970170220, %eax
      3e: 78 2f                        	js	0x6f <.debug_info+0x6f>
      40: 31 31                        	xorl	%esi, (%rcx)
      42: 2e 33 2e                     	xorl	%cs:(%rsi), %ebp
      45: 30 2f                        	xorb	%ch, (%rdi)
      47: 69 6e 63 6c 75 64 65         	imull	$1701082476, 99(%rsi), %ebp
      4e: 00 2f                        	addb	%ch, (%rdi)
      50: 75 73                        	jne	0xc5 <.debug_info+0xc5>
      52: 72 2f                        	jb	0x83 <.debug_info+0x83>
      54: 69 6e 63 6c 75 64 65         	imull	$1701082476, 99(%rsi), %ebp
      5b: 2f                           	<unknown>
      5c: 62                           	<unknown>
      5d: 69 74 73 00 2f 75 73 72      	imull	$1920169263, (%rbx,%rsi,2), %esi
      65: 2f                           	<unknown>
      66: 69 6e 63 6c 75 64 65         	imull	$1701082476, 99(%rsi), %ebp
      6d: 00 2f                        	addb	%ch, (%rdi)
      6f: 75 73                        	jne	0xe4 <.debug_info+0xe4>
      71: 72 2f                        	jb	0xa2 <.debug_info+0xa2>
      73: 69 6e 63 6c 75 64 65         	imull	$1701082476, 99(%rsi), %ebp
      7a: 2f                           	<unknown>
      7b: 62                           	<unknown>
      7c: 69 74 73 2f 74 79 70 65      	imull	$1701869940, 47(%rbx,%rsi,2), %esi
      84: 73 00                        	jae	0x86 <.debug_info+0x86>
      86: 2f                           	<unknown>
      87: 6f                           	outsl	(%rsi), %dx
      88: 70 74                        	jo	0xfe <.debug_info+0xfe>
      8a: 2f                           	<unknown>
      8b: 67 63 63 2f                  	movslq	47(%ebx), %esp
      8f: 69 6e 63 6c 75 64 65         	imull	$1701082476, 99(%rsi), %ebp
      96: 2f                           	<unknown>
      97: 63 2b                        	movslq	(%rbx), %ebp
      99: 2b 2f                        	subl	(%rdi), %ebp
      9b: 31 31                        	xorl	%esi, (%rcx)
      9d: 2e 33 2e                     	xorl	%cs:(%rsi), %ebp
      a0: 30 00                        	xorb	%al, (%rax)
      a2: 2f                           	<unknown>
      a3: 6f                           	outsl	(%rsi), %dx
      a4: 70 74                        	jo	0x11a <.debug_info+0x11a>
      a6: 2f                           	<unknown>
      a7: 67 63 63 2f                  	movslq	47(%ebx), %esp
      ab: 69 6e 63 6c 75 64 65         	imull	$1701082476, 99(%rsi), %ebp
      b2: 2f                           	<unknown>
      b3: 63 2b                        	movslq	(%rbx), %ebp
      b5: 2b 2f                        	subl	(%rdi), %ebp
      b7: 31 31                        	xorl	%esi, (%rcx)
      b9: 2e 33 2e                     	xorl	%cs:(%rsi), %ebp
      bc: 30 2f                        	xorb	%ch, (%rdi)
      be: 78 38                        	js	0xf8 <.debug_info+0xf8>
      c0: 36 5f                        	popq	%rdi
      c2: 36 34 2d                     	xorb	$45, %al
      c5: 61                           	<unknown>
      c6: 6d                           	insl	%dx, %es:(%rdi)
      c7: 61                           	<unknown>
      c8: 7a 6f                        	jp	0x139 <.debug_info+0x139>
      ca: 6e                           	outsb	(%rsi), %dx
      cb: 2d 6c 69 6e 75               	subl	$1970170220, %eax
      d0: 78 2f                        	js	0x101 <.debug_info+0x101>
      d2: 62                           	<unknown>
      d3: 69 74 73 00 00 62 6f 6d      	imull	$1836016128, (%rbx,%rsi,2), %esi
      db: 62                           	<unknown>
      dc: 2e 63 63 00                  	movslq	%cs:(%rbx), %esp
      e0: 00 00                        	addb	%al, (%rax)
      e2: 00 73 74                     	addb	%dh, 116(%rbx)
      e5: 64 64 65 66 2e 68 00 01      	pushw	$256
      ed: 00 00                        	addb	%al, (%rax)
      ef: 74 79                        	je	0x16a <.debug_info+0x16a>
      f1: 70 65                        	jo	0x158 <.debug_info+0x158>
      f3: 73 2e                        	jae	0x123 <.debug_info+0x123>
      f5: 68 00 02 00 00               	pushq	$512
      fa: 6c                           	insb	%dx, %es:(%rdi)
      fb: 69 62 69 6f 2e 68 00         	imull	$6827631, 105(%rdx), %esp
     102: 03 00                        	addl	(%rax), %eax
     104: 00 46 49                     	addb	%al, 73(%rsi)
     107: 4c 45                        	<unknown>
     109: 2e 68 00 04 00 00            	pushq	$1024
     10f: 5f                           	popq	%rdi
     110: 5f                           	popq	%rdi
     111: 6d                           	insl	%dx, %es:(%rdi)
     112: 62 73 74 61 74               	<unknown>
     117: 65 5f                        	popq	%rdi
     119: 74 2e                        	je	0x149 <.debug_info+0x149>
     11b: 68 00 04 00 00               	pushq	$1024
     120: 5f                           	popq	%rdi
     121: 47 5f                        	popq	%r15
     123: 63 6f 6e                     	movslq	110(%rdi), %ebp
     126: 66 69 67 2e 68 00            	imulw	$104, 46(%rdi), %sp
     12c: 03 00                        	addl	(%rax), %eax
     12e: 00 73 74                     	addb	%dh, 116(%rbx)
     131: 64 69 6f 2e 68 00 03 00      	imull	$196712, %fs:46(%rdi), %ebp
     139: 00 63 73                     	addb	%ah, 115(%rbx)
     13c: 74 64                        	je	0x1a2 <.debug_info+0x1a2>
     13e: 69 6f 00 05 00 00 63         	imull	$1660944389, (%rdi), %ebp
     145: 73 74                        	jae	0x1bb <.debug_info+0x1bb>
     147: 64 6c                        	insb	%dx, %es:(%rdi)
     149: 69 62 00 05 00 00 63         	imull	$1660944389, (%rdx), %esp
     150: 73 74                        	jae	0x1c6 <.debug_info+0x1c6>
     152: 72 69                        	jb	0x1bd <.debug_info+0x1bd>
     154: 6e                           	outsb	(%rsi), %dx
     155: 67 00 05 00 00 73 74         	addb	%al, 1953693696(%eip)
     15c: 64 69 6f 2e 68 00 02 00      	imull	$131176, %fs:46(%rdi), %ebp
     164: 00 73 74                     	addb	%dh, 116(%rbx)
     167: 64 6c                        	insb	%dx, %es:(%rdi)
     169: 69 62 2e 68 00 03 00         	imull	$196712, 46(%rdx), %esp
     170: 00 73 74                     	addb	%dh, 116(%rbx)
     173: 64 6c                        	insb	%dx, %es:(%rdi)
     175: 69 62 2d 66 6c 6f 61         	imull	$1634692198, 45(%rdx), %esp
     17c: 74 2e                        	je	0x1ac <.debug_info+0x1ac>
     17e: 68 00 02 00 00               	pushq	$512
     183: 73 74                        	jae	0x1f9 <.debug_info+0x1f9>
     185: 64 6c                        	insb	%dx, %es:(%rdi)
     187: 69 62 2d 62 73 65 61         	imull	$1634038626, 45(%rdx), %esp
     18e: 72 63                        	jb	0x1f3 <.debug_info+0x1f3>
     190: 68 2e 68 00 02               	pushq	$33581102
     195: 00 00                        	addb	%al, (%rax)
     197: 73 74                        	jae	0x20d <.debug_info+0x20d>
     199: 72 69                        	jb	0x204 <.debug_info+0x204>
     19b: 6e                           	outsb	(%rsi), %dx
     19c: 67 2e 68 00 03 00 00         	pushq	$768
     1a3: 70 68                        	jo	0x20d <.debug_info+0x20d>
     1a5: 61                           	<unknown>
     1a6: 73 65                        	jae	0x20d <.debug_info+0x20d>
     1a8: 73 2e                        	jae	0x1d8 <.debug_info+0x1d8>
     1aa: 68 68 00 00 00               	pushq	$104
     1af: 00 73 75                     	addb	%dh, 117(%rbx)
     1b2: 70 70                        	jo	0x224 <.debug_info+0x224>
     1b4: 6f                           	outsl	(%rsi), %dx
     1b5: 72 74                        	jb	0x22b <.debug_info+0x22b>
     1b7: 2e 68 68 00 00 00            	pushq	$104
     1bd: 00 63 2b                     	addb	%ah, 43(%rbx)
     1c0: 2b 63 6f                     	subl	111(%rbx), %esp
     1c3: 6e                           	outsb	(%rsi), %dx
     1c4: 66 69 67 2e 68 00            	imulw	$104, 46(%rdi), %sp
     1ca: 06                           	<unknown>
     1cb: 00 00                        	addb	%al, (%rax)
     1cd: 00 05 22 00 09 02            	addb	%al, 34144290(%rip)  # 20901f5 <_end+0x1a8b0b5>
     1d3: d0 0d 40 00 00 00            	rorb	64(%rip)  # 219 <.debug_info+0x219>
     1d9: 00 00                        	addb	%al, (%rax)
     1db: 03 1c 01                     	addl	(%rcx,%rax), %ebx
     1de: 05 05 19 05 22               	addl	$570759429, %eax
     1e3: 06                           	<unknown>
     1e4: 03 79 01                     	addl	1(%rcx), %edi
     1e7: 74 05                        	je	0x1ee <.debug_info+0x1ee>
     1e9: 05 43 05 0c 06               	addl	$101451075, %eax
     1ee: 96                           	xchgl	%esi, %eax
     1ef: 05 05 6c 05 14               	addl	$335899653, %eax
     1f4: 06                           	<unknown>
     1f5: 01 05 05 06 5a 05            	addl	%eax, 89785861(%rip)  # 55a0800 <_end+0x4f9b6c0>
     1fb: 0b 06                        	orl	(%rsi), %eax
     1fd: 01 05 05 06 a0 05            	addl	%eax, 94373381(%rip)  # 5a00808 <_end+0x53fb6c8>
     203: 1c 06                        	sbbb	$6, %al
     205: 01 05 05 06 83 05            	addl	%eax, 92472837(%rip)  # 5830810 <_end+0x522b6d0>
     20b: 0b 06                        	orl	(%rsi), %eax
     20d: 01 05 05 06 59 05            	addl	%eax, 89720325(%rip)  # 5590818 <_end+0x4f8b6d8>
     213: 12 06                        	adcb	(%rsi), %al
     215: 01 05 05 06 59 05            	addl	%eax, 89720325(%rip)  # 5590820 <_end+0x4f8b6e0>
     21b: 0b 06                        	orl	(%rsi), %eax
     21d: 01 05 05 06 a1 05            	addl	%eax, 94438917(%rip)  # 5a10828 <_end+0x540b6e8>
     223: 16                           	<unknown>
     224: 06                           	<unknown>
     225: 01 05 05 06 83 05            	addl	%eax, 92472837(%rip)  # 5830830 <_end+0x522b6f0>
     22b: 0b 06                        	orl	(%rsi), %eax
     22d: 01 05 05 06 59 05            	addl	%eax, 89720325(%rip)  # 5590838 <_end+0x4f8b6f8>
     233: 12 06                        	adcb	(%rsi), %al
     235: 01 05 05 06 59 05            	addl	%eax, 89720325(%rip)  # 5590840 <_end+0x4f8b700>
     23b: 0b 06                        	orl	(%rsi), %eax
     23d: 01 05 05 06 a0 05            	addl	%eax, 94373381(%rip)  # 5a00848 <_end+0x53fb708>
     243: 16                           	<unknown>
     244: 06                           	<unknown>
     245: 01 05 05 06 83 05            	addl	%eax, 92472837(%rip)  # 5830850 <_end+0x522b710>
     24b: 0b 06                        	orl	(%rsi), %eax
     24d: 01 05 05 06 59 05            	addl	%eax, 89720325(%rip)  # 5590858 <_end+0x4f8b718>
     253: 12 06                        	adcb	(%rsi), %al
     255: 01 05 05 06 59 05            	addl	%eax, 89720325(%rip)  # 5590860 <_end+0x4f8b720>
     25b: 0b 06                        	orl	(%rsi), %eax
     25d: 01 05 05 06 a0 05            	addl	%eax, 94373381(%rip)  # 5a00868 <_end+0x53fb728>
     263: 16                           	<unknown>
     264: 06                           	<unknown>
     265: 01 05 05 06 83 05            	addl	%eax, 92472837(%rip)  # 5830870 <_end+0x522b730>
     26b: 0b 06                        	orl	(%rsi), %eax
     26d: 01 05 05 06 59 05            	addl	%eax, 89720325(%rip)  # 5590878 <_end+0x4f8b738>
     273: 12 06                        	adcb	(%rsi), %al
     275: 01 05 05 06 59 05            	addl	%eax, 89720325(%rip)  # 5590880 <_end+0x4f8b740>
     27b: 0b 06                        	orl	(%rsi), %eax
     27d: 01 05 05 06 a0 05            	addl	%eax, 94373381(%rip)  # 5a00888 <_end+0x53fb748>
     283: 16                           	<unknown>
     284: 06                           	<unknown>
     285: 01 05 05 06 83 05            	addl	%eax, 92472837(%rip)  # 5830890 <_end+0x522b750>
     28b: 0b 06                        	orl	(%rsi), %eax
     28d: 01 05 05 06 59 05            	addl	%eax, 89720325(%rip)  # 5590898 <_end+0x4f8b758>
     293: 12 06                        	adcb	(%rsi), %al
     295: 01 05 05 06 59 05            	addl	%eax, 89720325(%rip)  # 55908a0 <_end+0x4f8b760>
     29b: 0b 06                        	orl	(%rsi), %eax
     29d: 01 05 05 06 a0 05            	addl	%eax, 94373381(%rip)  # 5a008a8 <_end+0x53fb768>
     2a3: 16                           	<unknown>
     2a4: 06                           	<unknown>
     2a5: 01 05 05 06 83 05            	addl	%eax, 92472837(%rip)  # 58308b0 <_end+0x522b770>
     2ab: 0b 06                        	orl	(%rsi), %eax
     2ad: 01 05 05 06 59 05            	addl	%eax, 89720325(%rip)  # 55908b8 <_end+0x4f8b778>
     2b3: 12 06                        	adcb	(%rsi), %al
     2b5: 01 05 05 06 59 05            	addl	%eax, 89720325(%rip)  # 55908c0 <_end+0x4f8b780>
     2bb: 0b 06                        	orl	(%rsi), %eax
     2bd: 01 05 05 06 a0 05            	addl	%eax, 94373381(%rip)  # 5a008c8 <_end+0x53fb788>
     2c3: 16                           	<unknown>
     2c4: 06                           	<unknown>
     2c5: 01 05 05 06 83 05            	addl	%eax, 92472837(%rip)  # 58308d0 <_end+0x522b790>
     2cb: 0b 06                        	orl	(%rsi), %eax
     2cd: 01 05 05 06 59 05            	addl	%eax, 89720325(%rip)  # 55908d8 <_end+0x4f8b798>
     2d3: 12 06                        	adcb	(%rsi), %al
     2d5: 01 05 05 06 59 05            	addl	%eax, 89720325(%rip)  # 55908e0 <_end+0x4f8b7a0>
     2db: 0b 06                        	orl	(%rsi), %eax
     2dd: 01 05 05 06 a1 05            	addl	%eax, 94438917(%rip)  # 5a108e8 <_end+0x540b7a8>
     2e3: 01 06                        	addl	%eax, (%rsi)
     2e5: 13 05 1c 00 02 04            	adcl	67239964(%rip), %eax  # 4020307 <_end+0x3a1b1c7>
     2eb: 01 03                        	addl	%eax, (%rbx)
     2ed: 4a 74 05                     	je	0x2f5 <.debug_info+0x2f5>
     2f0: 13 00                        	adcl	(%rax), %eax
     2f2: 02 04 01                     	addb	(%rcx,%rax), %al
     2f5: 08 12                        	orb	%dl, (%rdx)
     2f7: 05 09 06 83 05               	addl	$92472841, %eax
     2fc: 17                           	<unknown>
     2fd: 06                           	<unknown>
     2fe: 01 05 10 c8 05 09            	addl	%eax, 151373840(%rip)  # 905cb14 <_end+0x8a579d4>
     304: 06                           	<unknown>
     305: 75 05                        	jne	0x30c <.debug_info+0x30c>
     307: 0d 91 05 13 06               	orl	$101909905, %eax
     30c: 01 05 0d 06 08 13            	addl	%eax, 319292941(%rip)  # 1308091f <_end+0x12a7b7df>
     312: 05 11 06 01 05               	addl	$83953169, %eax
     317: 09 06                        	orl	%eax, (%rsi)
     319: a1 05 0f 06 01 05 09 06 e5   	movabsl	-1943856272067129595, %eax
     322: 05 0d 06 01 05               	addl	$83953165, %eax
     327: 01 06                        	addl	%eax, (%rsi)
     329: 03 2e                        	addl	(%rsi), %ebp
     32b: c8 05 07 06                  	enter	$1797, $6
     32f: 03 41 01                     	addl	1(%rcx), %eax
     332: 05 01 03 3f d6               	addl	$3594453761, %eax
     337: 02 01                        	addb	(%rcx), %al
     339: 00 01                        	addb	%al, (%rcx)
     33b: 01                           	<unknown>

Disassembly of section .debug_str:

0000000000000000 <.debug_str>:
       0: 67 65 74 65                  	je	0x69 <.debug_info+0x69>
       4: 6e                           	outsb	(%rsi), %dx
       5: 76 00                        	jbe	0x7 <.debug_info+0x7>
       7: 5f                           	popq	%rdi
       8: 73 68                        	jae	0x72 <.debug_info+0x72>
       a: 6f                           	outsl	(%rsi), %dx
       b: 72 74                        	jb	0x81 <.debug_info+0x81>
       d: 62                           	<unknown>
       e: 75 66                        	jne	0x76 <.debug_info+0x76>
      10: 00 73 74                     	addb	%dh, 116(%rbx)
      13: 72 72                        	jb	0x87 <.debug_info+0x87>
      15: 63 68 72                     	movslq	114(%rax), %ebp
      18: 00 5f 49                     	addb	%bl, 73(%rdi)
      1b: 4f 5f                        	popq	%r15
      1d: 6c                           	insb	%dx, %es:(%rdi)
      1e: 6f                           	outsl	(%rsi), %dx
      1f: 63 6b 5f                     	movslq	95(%rbx), %ebp
      22: 74 00                        	je	0x24 <.debug_info+0x24>
      24: 73 65                        	jae	0x8b <.debug_info+0x8b>
      26: 74 76                        	je	0x9e <.debug_info+0x9e>
      28: 62                           	<unknown>
      29: 75 66                        	jne	0x91 <.debug_info+0x91>
      2b: 00 69 6e                     	addb	%ch, 110(%rcx)
      2e: 70 75                        	jo	0xa5 <.debug_info+0xa5>
      30: 74 00                        	je	0x32 <.debug_info+0x32>
      32: 72 65                        	jb	0x99 <.debug_info+0x99>
      34: 6d                           	insl	%dx, %es:(%rdi)
      35: 6f                           	outsl	(%rsi), %dx
      36: 76 65                        	jbe	0x9d <.debug_info+0x9d>
      38: 00 73 79                     	addb	%dh, 121(%rbx)
      3b: 73 74                        	jae	0xb1 <.debug_info+0xb1>
      3d: 65 6d                        	insl	%dx, %es:(%rdi)
      3f: 00 5f 49                     	addb	%bl, 73(%rdi)
      42: 4f 5f                        	popq	%r15
      44: 62                           	<unknown>
      45: 75 66                        	jne	0xad <.debug_info+0xad>
      47: 5f                           	popq	%rdi
      48: 65 6e                        	outsb	%gs:(%rsi), %dx
      4a: 64 00 66 66                  	addb	%ah, %fs:102(%rsi)
      4e: 6c                           	insb	%dx, %es:(%rdi)
      4f: 75 73                        	jne	0xc4 <.debug_info+0xc4>
      51: 68 00 66 74 65               	pushq	$1702127104
      56: 6c                           	insb	%dx, %es:(%rdi)
      57: 6c                           	insb	%dx, %es:(%rdi)
      58: 00 6d 62                     	addb	%ch, 98(%rbp)
      5b: 6c                           	insb	%dx, %es:(%rdi)
      5c: 65 6e                        	outsb	%gs:(%rsi), %dx
      5e: 00 5f 49                     	addb	%bl, 73(%rdi)
      61: 4f 5f                        	popq	%r15
      63: 77 72                        	ja	0xd7 <.debug_info+0xd7>
      65: 69 74 65 5f 65 6e 64 00      	imull	$6581861, 95(%rbp,%riz,2), %esi
      6d: 5f                           	popq	%rdi
      6e: 5f                           	popq	%rdi
      6f: 67 6e                        	outsb	(%esi), %dx
      71: 75 5f                        	jne	0xd2 <.debug_info+0xd2>
      73: 63 78 78                     	movslq	120(%rax), %edi
      76: 00 5f 66                     	addb	%bl, 102(%rdi)
      79: 6c                           	insb	%dx, %es:(%rdi)
      7a: 61                           	<unknown>
      7b: 67 73 00                     	jae	0x7e <.debug_info+0x7e>
      7e: 77 63                        	ja	0xe3 <.debug_info+0xe3>
      80: 68 61 72 5f 74               	pushq	$1952412257
      85: 00 73 74                     	addb	%dh, 116(%rbx)
      88: 72 65                        	jb	0xef <.debug_info+0xef>
      8a: 72 72                        	jb	0xfe <.debug_info+0xfe>
      8c: 6f                           	outsl	(%rsi), %dx
      8d: 72 00                        	jb	0x8f <.debug_info+0x8f>
      8f: 5f                           	popq	%rdi
      90: 6d                           	insl	%dx, %es:(%rdi)
      91: 61                           	<unknown>
      92: 72 6b                        	jb	0xff <.debug_info+0xff>
      94: 65 72 73                     	jb	0x10a <.debug_info+0x10a>
      97: 00 73 74                     	addb	%dh, 116(%rbx)
      9a: 72 70                        	jb	0x10c <.debug_info+0x10c>
      9c: 62                           	<unknown>
      9d: 72 6b                        	jb	0x10a <.debug_info+0x10a>
      9f: 00 5f 5a                     	addb	%bl, 90(%rdi)
      a2: 4e 39 5f 5f                  	cmpq	%r11, 95(%rdi)
      a6: 67 6e                        	outsb	(%esi), %dx
      a8: 75 5f                        	jne	0x109 <.debug_info+0x109>
      aa: 63 78 78                     	movslq	120(%rax), %edi
      ad: 33 64 69 76                  	xorl	118(%rcx,%rbp,2), %esp
      b1: 45 78 78                     	js	0x12c <.debug_info+0x12c>
      b4: 00 73 74                     	addb	%dh, 116(%rbx)
      b7: 72 74                        	jb	0x12d <.debug_info+0x12d>
      b9: 6f                           	outsl	(%rsi), %dx
      ba: 75 6c                        	jne	0x128 <.debug_info+0x128>
      bc: 6c                           	insb	%dx, %es:(%rdi)
      bd: 00 75 6e                     	addb	%dh, 110(%rbp)
      c0: 67 65 74 63                  	je	0x127 <.debug_info+0x127>
      c4: 00 5f 5a                     	addb	%bl, 90(%rdi)
      c7: 36 70 68                     	jo	0x132 <.debug_info+0x132>
      ca: 61                           	<unknown>
      cb: 73 65                        	jae	0x132 <.debug_info+0x132>
      cd: 35 50 63 00 73               	xorl	$1929405264, %eax
      d2: 74 72                        	je	0x146 <.debug_info+0x146>
      d4: 74 6f                        	je	0x145 <.debug_info+0x145>
      d6: 6c                           	insb	%dx, %es:(%rdi)
      d7: 64 00 73 74                  	addb	%dh, %fs:116(%rbx)
      db: 72 74                        	jb	0x151 <.debug_info+0x151>
      dd: 6f                           	outsl	(%rsi), %dx
      de: 6c                           	insb	%dx, %es:(%rdi)
      df: 6c                           	insb	%dx, %es:(%rdi)
      e0: 00 73 74                     	addb	%dh, 116(%rbx)
      e3: 72 63                        	jb	0x148 <.debug_info+0x148>
      e5: 70 79                        	jo	0x160 <.debug_info+0x160>
      e7: 00 6d 62                     	addb	%ch, 98(%rbp)
      ea: 74 6f                        	je	0x15b <.debug_info+0x15b>
      ec: 77 63                        	ja	0x151 <.debug_info+0x151>
      ee: 00 72 65                     	addb	%dh, 101(%rdx)
      f1: 61                           	<unknown>
      f2: 64 5f                        	popq	%rdi
      f4: 6c                           	insb	%dx, %es:(%rdi)
      f5: 69 6e 65 00 5f 49 4f         	imull	$1330208512, 101(%rsi), %ebp
      fc: 5f                           	popq	%rdi
      fd: 73 61                        	jae	0x160 <.debug_info+0x160>
      ff: 76 65                        	jbe	0x166 <.debug_info+0x166>
     101: 5f                           	popq	%rdi
     102: 65 6e                        	outsb	%gs:(%rsi), %dx
     104: 64 00 5f 5f                  	addb	%bl, %fs:95(%rdi)
     108: 63 6f 75                     	movslq	117(%rdi), %ebp
     10b: 6e                           	outsb	(%rsi), %dx
     10c: 74 00                        	je	0x10e <.debug_info+0x10e>
     10e: 66 6c                        	insb	%dx, %es:(%rdi)
     110: 6f                           	outsl	(%rsi), %dx
     111: 61                           	<unknown>
     112: 74 00                        	je	0x114 <.debug_info+0x114>
     114: 66 67 65 74 70               	je	0x189 <.debug_info+0x189>
     119: 6f                           	outsl	(%rsi), %dx
     11a: 73 00                        	jae	0x11c <.debug_info+0x11c>
     11c: 6c                           	insb	%dx, %es:(%rdi)
     11d: 6f                           	outsl	(%rsi), %dx
     11e: 6e                           	outsb	(%rsi), %dx
     11f: 67 20 6c 6f 6e               	andb	%ch, 110(%edi,%ebp,2)
     124: 67 20 75 6e                  	andb	%dh, 110(%ebp)
     128: 73 69                        	jae	0x193 <.debug_info+0x193>
     12a: 67 6e                        	outsb	(%esi), %dx
     12c: 65 64 20 69 6e               	andb	%ch, %fs:110(%rcx)
     131: 74 00                        	je	0x133 <.debug_info+0x133>
     133: 69 6e 69 74 69 61 6c         	imull	$1818323316, 105(%rsi), %ebp
     13a: 69 7a 65 5f 62 6f 6d         	imull	$1836016223, 101(%rdx), %edi
     141: 62 00 77 63                  	<unknown>
     145: 74 6f                        	je	0x1b6 <.debug_info+0x1b6>
     147: 6d                           	insl	%dx, %es:(%rdi)
     148: 62 00 5f 49                  	<unknown>
     14c: 4f 5f                        	popq	%r15
     14e: 62                           	<unknown>
     14f: 61                           	<unknown>
     150: 63 6b 75                     	movslq	117(%rbx), %ebp
     153: 70 5f                        	jo	0x1b4 <.debug_info+0x1b4>
     155: 62                           	<unknown>
     156: 61                           	<unknown>
     157: 73 65                        	jae	0x1be <.debug_info+0x1be>
     159: 00 6c 6c 64                  	addb	%ch, 100(%rsp,%rbp,2)
     15d: 69 76 00 61 74 6f 6c         	imull	$1819243617, (%rsi), %esi
     164: 6c                           	insb	%dx, %es:(%rdi)
     165: 00 5f 66                     	addb	%bl, 102(%rdi)
     168: 69 6c 65 6e 6f 00 5f 5f      	imull	$1600061551, 110(%rbp,%riz,2), %ebp
     170: 69 6e 69 74 69 61 6c         	imull	$1818323316, 105(%rsi), %ebp
     177: 69 7a 65 5f 70 00 70         	imull	$1879076959, 101(%rdx), %edi
     17e: 68 61 73 65 31               	pushq	$828732257
     183: 00 70 68                     	addb	%dh, 104(%rax)
     186: 61                           	<unknown>
     187: 73 65                        	jae	0x1ee <.debug_info+0x1ee>
     189: 32 00                        	xorb	(%rax), %al
     18b: 73 69                        	jae	0x1f6 <.debug_info+0x1f6>
     18d: 7a 65                        	jp	0x1f4 <.debug_info+0x1f4>
     18f: 5f                           	popq	%rdi
     190: 74 00                        	je	0x192 <.debug_info+0x192>
     192: 70 68                        	jo	0x1fc <.debug_info+0x1fc>
     194: 61                           	<unknown>
     195: 73 65                        	jae	0x1fc <.debug_info+0x1fc>
     197: 34 00                        	xorb	$0, %al
     199: 70 68                        	jo	0x203 <.debug_info+0x203>
     19b: 61                           	<unknown>
     19c: 73 65                        	jae	0x203 <.debug_info+0x203>
     19e: 35 00 73 72 61               	xorl	$1634890496, %eax
     1a3: 6e                           	outsb	(%rsi), %dx
     1a4: 64 00 70 68                  	addb	%dh, %fs:104(%rax)
     1a8: 61                           	<unknown>
     1a9: 73 65                        	jae	0x210 <.debug_info+0x210>
     1ab: 37                           	<unknown>
     1ac: 00 73 74                     	addb	%dh, 116(%rbx)
     1af: 72 78                        	jb	0x229 <.debug_info+0x229>
     1b1: 66 72 6d                     	jb	0x221 <.debug_info+0x221>
     1b4: 00 73 74                     	addb	%dh, 116(%rbx)
     1b7: 72 74                        	jb	0x22d <.debug_info+0x22d>
     1b9: 6f                           	outsl	(%rsi), %dx
     1ba: 6b 00 5f                     	imull	$95, (%rax), %eax
     1bd: 49 4f                        	<unknown>
     1bf: 5f                           	popq	%rdi
     1c0: 72 65                        	jb	0x227 <.debug_info+0x227>
     1c2: 61                           	<unknown>
     1c3: 64 5f                        	popq	%rdi
     1c5: 62                           	<unknown>
     1c6: 61                           	<unknown>
     1c7: 73 65                        	jae	0x22e <.debug_info+0x22e>
     1c9: 00 5f 5f                     	addb	%bl, 95(%rdi)
     1cc: 70 72                        	jo	0x240 <.debug_info+0x240>
     1ce: 69 6f 72 69 74 79 00         	imull	$7959657, 114(%rdi), %ebp
     1d5: 62 73 65 61 72               	<unknown>
     1da: 63 68 00                     	movslq	(%rax), %ebp
     1dd: 61                           	<unknown>
     1de: 72 67                        	jb	0x247 <.debug_info+0x247>
     1e0: 63 00                        	movslq	(%rax), %eax
     1e2: 73 74                        	jae	0x258 <.debug_info+0x258>
     1e4: 64 69 6e 00 5f 6e 65 78      	imull	$2019913311, %fs:(%rsi), %ebp
     1ec: 74 00                        	je	0x1ee <.debug_info+0x1ee>
     1ee: 5f                           	popq	%rdi
     1ef: 5f                           	popq	%rdi
     1f0: 66 6c                        	insb	%dx, %es:(%rdi)
     1f2: 6f                           	outsl	(%rsi), %dx
     1f3: 61                           	<unknown>
     1f4: 74 31                        	je	0x227 <.debug_info+0x227>
     1f6: 32 38                        	xorb	(%rax), %bh
     1f8: 00 63 6c                     	addb	%ah, 108(%rbx)
     1fb: 65 61                        	<unknown>
     1fd: 72 65                        	jb	0x264 <.debug_info+0x264>
     1ff: 72 72                        	jb	0x273 <.debug_info+0x273>
     201: 00 5f 5a                     	addb	%bl, 90(%rdi)
     204: 36 70 68                     	jo	0x26f <.debug_info+0x26f>
     207: 61                           	<unknown>
     208: 73 65                        	jae	0x26f <.debug_info+0x26f>
     20a: 37                           	<unknown>
     20b: 50                           	pushq	%rax
     20c: 63 00                        	movslq	(%rax), %eax
     20e: 5f                           	popq	%rdi
     20f: 5a                           	popq	%rdx
     210: 36 70 68                     	jo	0x27b <.debug_info+0x27b>
     213: 61                           	<unknown>
     214: 73 65                        	jae	0x27b <.debug_info+0x27b>
     216: 33 50 63                     	xorl	99(%rax), %edx
     219: 00 66 72                     	addb	%ah, 114(%rsi)
     21c: 65 6f                        	outsl	%gs:(%rsi), %dx
     21e: 70 65                        	jo	0x285 <.debug_info+0x285>
     220: 6e                           	outsb	(%rsi), %dx
     221: 00 5f 5f                     	addb	%bl, 95(%rdi)
     224: 76 61                        	jbe	0x287 <.debug_info+0x287>
     226: 6c                           	insb	%dx, %es:(%rdi)
     227: 75 65                        	jne	0x28e <.debug_info+0x28e>
     229: 00 73 74                     	addb	%dh, 116(%rbx)
     22c: 72 63                        	jb	0x291 <.debug_info+0x291>
     22e: 6f                           	outsl	(%rsi), %dx
     22f: 6c                           	insb	%dx, %es:(%rdi)
     230: 6c                           	insb	%dx, %es:(%rdi)
     231: 00 6d 65                     	addb	%ch, 101(%rbp)
     234: 6d                           	insl	%dx, %es:(%rdi)
     235: 63 68 72                     	movslq	114(%rax), %ebp
     238: 00 5f 6d                     	addb	%bl, 109(%rdi)
     23b: 6f                           	outsl	(%rsi), %dx
     23c: 64 65 00 35 64 69 76 5f      	addb	%dh, %gs:1601595748(%rip)
     244: 74 00                        	je	0x246 <.debug_info+0x246>
     246: 66 65 72 72                  	jb	0x2bc <.debug_info+0x2bc>
     24a: 6f                           	outsl	(%rsi), %dx
     24b: 72 00                        	jb	0x24d <.debug_info+0x24d>
     24d: 5f                           	popq	%rdi
     24e: 49 4f                        	<unknown>
     250: 5f                           	popq	%rdi
     251: 6d                           	insl	%dx, %es:(%rdi)
     252: 61                           	<unknown>
     253: 72 6b                        	jb	0x2c0 <.debug_info+0x2c0>
     255: 65 72 00                     	jb	0x258 <.debug_info+0x258>
     258: 5f                           	popq	%rdi
     259: 49 4f                        	<unknown>
     25b: 5f                           	popq	%rdi
     25c: 72 65                        	jb	0x2c3 <.debug_info+0x2c3>
     25e: 61                           	<unknown>
     25f: 64 5f                        	popq	%rdi
     261: 70 74                        	jo	0x2d7 <.debug_info+0x2d7>
     263: 72 00                        	jb	0x265 <.debug_info+0x265>
     265: 6c                           	insb	%dx, %es:(%rdi)
     266: 6f                           	outsl	(%rsi), %dx
     267: 6e                           	outsb	(%rsi), %dx
     268: 67 20 6c 6f 6e               	andb	%ch, 110(%edi,%ebp,2)
     26d: 67 20 69 6e                  	andb	%ch, 110(%ecx)
     271: 74 00                        	je	0x273 <.debug_info+0x273>
     273: 5f                           	popq	%rdi
     274: 5f                           	popq	%rdi
     275: 77 63                        	ja	0x2da <.debug_info+0x2da>
     277: 68 00 2f 68 6f               	pushq	$1869098752
     27c: 6d                           	insl	%dx, %es:(%rdi)
     27d: 65 2f                        	<unknown>
     27f: 6b 6f 68 6c                  	imull	$108, 104(%rdi), %ebp
     283: 65 72 2f                     	jb	0x2b5 <.debug_info+0x2b5>
     286: 63 73 36                     	movslq	54(%rbx), %esi
     289: 31 2d 70 73 65 74            	xorl	%ebp, 1952805744(%rip)  # 746575ff <_end+0x740524bf>
     28f: 73 2d                        	jae	0x2be <.debug_info+0x2be>
     291: 66 6f                        	outsw	(%rsi), %dx
     293: 72 2d                        	jb	0x2c2 <.debug_info+0x2c2>
     295: 62                           	<unknown>
     296: 6f                           	outsl	(%rsi), %dx
     297: 6d                           	insl	%dx, %es:(%rdi)
     298: 62                           	<unknown>
     299: 2f                           	<unknown>
     29a: 62                           	<unknown>
     29b: 6f                           	outsl	(%rsi), %dx
     29c: 6d                           	insl	%dx, %es:(%rdi)
     29d: 62                           	<unknown>
     29e: 2f                           	<unknown>
     29f: 73 72                        	jae	0x313 <.debug_info+0x313>
     2a1: 63 00                        	movslq	(%rax), %eax
     2a3: 5f                           	popq	%rdi
     2a4: 5f                           	popq	%rdi
     2a5: 62                           	<unknown>
     2a6: 75 69                        	jne	0x311 <.debug_info+0x311>
     2a8: 6c                           	insb	%dx, %es:(%rdi)
     2a9: 74 69                        	je	0x314 <.debug_info+0x314>
     2ab: 6e                           	outsb	(%rsi), %dx
     2ac: 5f                           	popq	%rdi
     2ad: 70 75                        	jo	0x324 <.debug_info+0x324>
     2af: 74 73                        	je	0x324 <.debug_info+0x324>
     2b1: 00 71 75                     	addb	%dh, 117(%rcx)
     2b4: 6f                           	outsl	(%rsi), %dx
     2b5: 74 00                        	je	0x2b7 <.debug_info+0x2b7>
     2b7: 72 65                        	jb	0x31e <.debug_info+0x31e>
     2b9: 6e                           	outsb	(%rsi), %dx
     2ba: 61                           	<unknown>
     2bb: 6d                           	insl	%dx, %es:(%rdi)
     2bc: 65 00 5f 5f                  	addb	%bl, %gs:95(%rdi)
     2c0: 70 6f                        	jo	0x331 <.debug_info+0x331>
     2c2: 73 00                        	jae	0x2c4 <.debug_info+0x2c4>
     2c4: 6d                           	insl	%dx, %es:(%rdi)
     2c5: 62 73 74 6f 77               	<unknown>
     2ca: 63 73 00                     	movslq	(%rbx), %esi
     2cd: 67 65 74 63                  	je	0x334 <.debug_info+0x334>
     2d1: 68 61 72 00 5f               	pushq	$1593864801
     2d6: 49 4f                        	<unknown>
     2d8: 5f                           	popq	%rdi
     2d9: 77 72                        	ja	0x34d <.debug_info+0x34d>
     2db: 69 74 65 5f 62 61 73 65      	imull	$1702060386, 95(%rbp,%riz,2), %esi
     2e3: 00 74 6d 70                  	addb	%dh, 112(%rbp,%rbp,2)
     2e7: 6e                           	outsb	(%rsi), %dx
     2e8: 61                           	<unknown>
     2e9: 6d                           	insl	%dx, %es:(%rdi)
     2ea: 00 73 65                     	addb	%dh, 101(%rbx)
     2ed: 74 62                        	je	0x351 <.debug_info+0x351>
     2ef: 75 66                        	jne	0x357 <.debug_info+0x357>
     2f1: 00 70 65                     	addb	%dh, 101(%rax)
     2f4: 72 72                        	jb	0x368 <.debug_info+0x368>
     2f6: 6f                           	outsl	(%rsi), %dx
     2f7: 72 00                        	jb	0x2f9 <.debug_info+0x2f9>
     2f9: 70 72                        	jo	0x36d <.debug_info+0x36d>
     2fb: 69 6e 74 66 00 5f 49         	imull	$1230962790, 116(%rsi), %ebp
     302: 4f 5f                        	popq	%r15
     304: 73 61                        	jae	0x367 <.debug_info+0x367>
     306: 76 65                        	jbe	0x36d <.debug_info+0x36d>
     308: 5f                           	popq	%rdi
     309: 62                           	<unknown>
     30a: 61                           	<unknown>
     30b: 73 65                        	jae	0x372 <.debug_info+0x372>
     30d: 00 39                        	addb	%bh, (%rcx)
     30f: 5f                           	popq	%rdi
     310: 47 5f                        	popq	%r15
     312: 66 70 6f                     	jo	0x384 <.debug_info+0x384>
     315: 73 5f                        	jae	0x376 <.debug_info+0x376>
     317: 74 00                        	je	0x319 <.debug_info+0x319>
     319: 5f                           	popq	%rdi
     31a: 5a                           	popq	%rdx
     31b: 31 33                        	xorl	%esi, (%rbx)
     31d: 70 68                        	jo	0x387 <.debug_info+0x387>
     31f: 61                           	<unknown>
     320: 73 65                        	jae	0x387 <.debug_info+0x387>
     322: 5f                           	popq	%rdi
     323: 64 65 66 75 73               	jne	0x39b <.debug_info+0x39b>
     328: 65 64 76 00                  	jbe	0x32c <.debug_info+0x32c>
     32c: 66 73 65                     	jae	0x394 <.debug_info+0x394>
     32f: 65 6b 00 5f                  	imull	$95, %gs:(%rax), %eax
     333: 5f                           	popq	%rdi
     334: 63 6f 6d                     	movslq	109(%rdi), %ebp
     337: 70 61                        	jo	0x39a <.debug_info+0x39a>
     339: 72 5f                        	jb	0x39a <.debug_info+0x39a>
     33b: 66 6e                        	outsb	(%rsi), %dx
     33d: 5f                           	popq	%rdi
     33e: 74 00                        	je	0x340 <.debug_info+0x340>
     340: 5f                           	popq	%rdi
     341: 5a                           	popq	%rdx
     342: 36 70 68                     	jo	0x3ad <.debug_info+0x3ad>
     345: 61                           	<unknown>
     346: 73 65                        	jae	0x3ad <.debug_info+0x3ad>
     348: 36 50                        	pushq	%rax
     34a: 63 00                        	movslq	(%rax), %eax
     34c: 66 73 65                     	jae	0x3b4 <.debug_info+0x3b4>
     34f: 74 70                        	je	0x3c1 <.debug_info+0x3c1>
     351: 6f                           	outsl	(%rsi), %dx
     352: 73 00                        	jae	0x354 <.debug_info+0x354>
     354: 5f                           	popq	%rdi
     355: 5f                           	popq	%rdi
     356: 75 6e                        	jne	0x3c6 <.debug_info+0x3c6>
     358: 6b 6e 6f 77                  	imull	$119, 111(%rsi), %ebp
     35c: 6e                           	outsb	(%rsi), %dx
     35d: 5f                           	popq	%rdi
     35e: 5f                           	popq	%rdi
     35f: 00 5f 5f                     	addb	%bl, 95(%rdi)
     362: 70 61                        	jo	0x3c5 <.debug_info+0x3c5>
     364: 64 31 00                     	xorl	%eax, %fs:(%rax)
     367: 5f                           	popq	%rdi
     368: 5f                           	popq	%rdi
     369: 70 61                        	jo	0x3cc <.debug_info+0x3cc>
     36b: 64 32 00                     	xorb	%fs:(%rax), %al
     36e: 5f                           	popq	%rdi
     36f: 5f                           	popq	%rdi
     370: 70 61                        	jo	0x3d3 <.debug_info+0x3d3>
     372: 64 33 00                     	xorl	%fs:(%rax), %eax
     375: 5f                           	popq	%rdi
     376: 5f                           	popq	%rdi
     377: 70 61                        	jo	0x3da <.debug_info+0x3da>
     379: 64 34 00                     	xorb	$0, %al
     37c: 5f                           	popq	%rdi
     37d: 5f                           	popq	%rdi
     37e: 70 61                        	jo	0x3e1 <.debug_info+0x3e1>
     380: 64 35 00 5f 5a 36            	xorl	$911892224, %eax
     386: 70 68                        	jo	0x3f0 <.debug_info+0x3f0>
     388: 61                           	<unknown>
     389: 73 65                        	jae	0x3f0 <.debug_info+0x3f0>
     38b: 31 50 63                     	xorl	%edx, 99(%rax)
     38e: 00 66 67                     	addb	%ah, 103(%rsi)
     391: 65 74 63                     	je	0x3f7 <.debug_info+0x3f7>
     394: 00 66 6f                     	addb	%ah, 111(%rsi)
     397: 70 65                        	jo	0x3fe <.debug_info+0x3fe>
     399: 6e                           	outsb	(%rsi), %dx
     39a: 00 5f 76                     	addb	%bl, 118(%rdi)
     39d: 74 61                        	je	0x400 <.debug_info+0x400>
     39f: 62                           	<unknown>
     3a0: 6c                           	insb	%dx, %es:(%rdi)
     3a1: 65 5f                        	popq	%rdi
     3a3: 6f                           	outsl	(%rsi), %dx
     3a4: 66 66 73 65                  	jae	0x40d <.debug_info+0x40d>
     3a8: 74 00                        	je	0x3aa <.debug_info+0x3aa>
     3aa: 66 67 65 74 73               	je	0x422 <.debug_info+0x422>
     3af: 00 61 72                     	addb	%ah, 114(%rcx)
     3b2: 67 76 00                     	jbe	0x3b5 <.debug_info+0x3b5>
     3b5: 6c                           	insb	%dx, %es:(%rdi)
     3b6: 6f                           	outsl	(%rsi), %dx
     3b7: 6e                           	outsb	(%rsi), %dx
     3b8: 67 20 64 6f 75               	andb	%ah, 117(%edi,%ebp,2)
     3bd: 62                           	<unknown>
     3be: 6c                           	insb	%dx, %es:(%rdi)
     3bf: 65 00 6d 61                  	addb	%ch, %gs:97(%rbp)
     3c3: 69 6e 00 5f 5a 31 35         	imull	$892426847, (%rsi), %ebp
     3ca: 69 6e 69 74 69 61 6c         	imull	$1818323316, 105(%rsi), %ebp
     3d1: 69 7a 65 5f 62 6f 6d         	imull	$1836016223, 101(%rdx), %edi
     3d8: 62                           	<unknown>
     3d9: 76 00                        	jbe	0x3db <.debug_info+0x3db>
     3db: 5f                           	popq	%rdi
     3dc: 5f                           	popq	%rdi
     3dd: 73 74                        	jae	0x453 <.debug_info+0x453>
     3df: 61                           	<unknown>
     3e0: 74 69                        	je	0x44b <.debug_info+0x44b>
     3e2: 63 5f 69                     	movslq	105(%rdi), %ebx
     3e5: 6e                           	outsb	(%rsi), %dx
     3e6: 69 74 69 61 6c 69 7a 61      	imull	$1635412332, 97(%rcx,%rbp,2), %esi
     3ee: 74 69                        	je	0x459 <.debug_info+0x459>
     3f0: 6f                           	outsl	(%rsi), %dx
     3f1: 6e                           	outsb	(%rsi), %dx
     3f2: 5f                           	popq	%rdi
     3f3: 61                           	<unknown>
     3f4: 6e                           	outsb	(%rsi), %dx
     3f5: 64 5f                        	popq	%rdi
     3f7: 64 65 73 74                  	jae	0x46f <.debug_info+0x46f>
     3fb: 72 75                        	jb	0x472 <.debug_info+0x472>
     3fd: 63 74 69 6f                  	movslq	111(%rcx,%rbp,2), %esi
     401: 6e                           	outsb	(%rsi), %dx
     402: 5f                           	popq	%rdi
     403: 30 00                        	xorb	%al, (%rax)
     405: 5f                           	popq	%rdi
     406: 49 4f                        	<unknown>
     408: 5f                           	popq	%rdi
     409: 72 65                        	jb	0x470 <.debug_info+0x470>
     40b: 61                           	<unknown>
     40c: 64 5f                        	popq	%rdi
     40e: 65 6e                        	outsb	%gs:(%rsi), %dx
     410: 64 00 73 74                  	addb	%dh, %fs:116(%rbx)
     414: 72 63                        	jb	0x479 <.debug_info+0x479>
     416: 68 72 00 73 68               	pushq	$1752367218
     41b: 6f                           	outsl	(%rsi), %dx
     41c: 72 74                        	jb	0x492 <.debug_info+0x492>
     41e: 20 69 6e                     	andb	%ch, 110(%rcx)
     421: 74 00                        	je	0x423 <.debug_info+0x423>
     423: 5f                           	popq	%rdi
     424: 5a                           	popq	%rdx
     425: 39 72 65                     	cmpl	%esi, 101(%rdx)
     428: 61                           	<unknown>
     429: 64 5f                        	popq	%rdi
     42b: 6c                           	insb	%dx, %es:(%rdi)
     42c: 69 6e 65 76 00 47 4e         	imull	$1313276022, 101(%rsi), %ebp
     433: 55                           	pushq	%rbp
     434: 20 43 2b                     	andb	%al, 43(%rbx)
     437: 2b 32                        	subl	(%rdx), %esi
     439: 33 20                        	xorl	(%rax), %esp
     43b: 31 31                        	xorl	%esi, (%rcx)
     43d: 2e 33 2e                     	xorl	%cs:(%rsi), %ebp
     440: 30 20                        	xorb	%ah, (%rax)
     442: 2d 6d 74 75 6e               	subl	$1853191277, %eax
     447: 65 3d 67 65 6e 65            	cmpl	$1701733735, %eax
     44d: 72 69                        	jb	0x4b8 <.debug_info+0x4b8>
     44f: 63 20                        	movslq	(%rax), %esp
     451: 2d 6d 61 72 63               	subl	$1668440429, %eax
     456: 68 3d 78 38 36               	pushq	$909670461
     45b: 2d 36 34 20 2d               	subl	$757085238, %eax
     460: 67 67 64 62 20 2d 4f         	<unknown>
     467: 32 20                        	xorb	(%rax), %ah
     469: 2d 73 74 64 3d               	subl	$1029993587, %eax
     46e: 67 6e                        	outsb	(%esi), %dx
     470: 75 2b                        	jne	0x49d <.debug_info+0x49d>
     472: 2b 32                        	subl	(%rdx), %esi
     474: 33 20                        	xorl	(%rax), %esp
     476: 2d 66 6e 6f 2d               	subl	$762277478, %eax
     47b: 62                           	<unknown>
     47c: 75 69                        	jne	0x4e7 <.debug_info+0x4e7>
     47e: 6c                           	insb	%dx, %es:(%rdi)
     47f: 74 69                        	je	0x4ea <.debug_info+0x4ea>
     481: 6e                           	outsb	(%rsi), %dx
     482: 2d 73 74 72 63               	subl	$1668445299, %eax
     487: 70 79                        	jo	0x502 <.debug_info+0x502>
     489: 20 2d 66 6e 6f 2d            	andb	%ch, 762277478(%rip)  # 2d6f72f5 <_end+0x2d0f21b5>
     48f: 62                           	<unknown>
     490: 75 69                        	jne	0x4fb <.debug_info+0x4fb>
     492: 6c                           	insb	%dx, %es:(%rdi)
     493: 74 69                        	je	0x4fe <.debug_info+0x4fe>
     495: 6e                           	outsb	(%rsi), %dx
     496: 2d 73 74 72 6c               	subl	$1819440243, %eax
     49b: 65 6e                        	outsb	%gs:(%rsi), %dx
     49d: 20 2d 66 6e 6f 2d            	andb	%ch, 762277478(%rip)  # 2d6f7309 <_end+0x2d0f21c9>
     4a3: 62                           	<unknown>
     4a4: 75 69                        	jne	0x50f <.debug_info+0x50f>
     4a6: 6c                           	insb	%dx, %es:(%rdi)
     4a7: 74 69                        	je	0x512 <.debug_info+0x512>
     4a9: 6e                           	outsb	(%rsi), %dx
     4aa: 2d 73 74 72 63               	subl	$1668445299, %eax
     4af: 6d                           	insl	%dx, %es:(%rdi)
     4b0: 70 20                        	jo	0x4d2 <.debug_info+0x4d2>
     4b2: 2d 66 6e 6f 2d               	subl	$762277478, %eax
     4b7: 62                           	<unknown>
     4b8: 75 69                        	jne	0x523 <.debug_info+0x523>
     4ba: 6c                           	insb	%dx, %es:(%rdi)
     4bb: 74 69                        	je	0x526 <.debug_info+0x526>
     4bd: 6e                           	outsb	(%rsi), %dx
     4be: 2d 73 74 72 63               	subl	$1668445299, %eax
     4c3: 68 72 20 2d 66               	pushq	$1714233458
     4c8: 6e                           	outsb	(%rsi), %dx
     4c9: 6f                           	outsl	(%rsi), %dx
     4ca: 2d 62 75 69 6c               	subl	$1818850658, %eax
     4cf: 74 69                        	je	0x53a <.debug_info+0x53a>
     4d1: 6e                           	outsb	(%rsi), %dx
     4d2: 2d 6d 65 6d 63               	subl	$1668113773, %eax
     4d7: 6d                           	insl	%dx, %es:(%rdi)
     4d8: 70 20                        	jo	0x4fa <.debug_info+0x4fa>
     4da: 2d 66 6e 6f 2d               	subl	$762277478, %eax
     4df: 6f                           	outsl	(%rsi), %dx
     4e0: 6d                           	insl	%dx, %es:(%rdi)
     4e1: 69 74 2d 66 72 61 6d 65      	imull	$1701667186, 102(%rbp,%rbp), %esi
     4e9: 2d 70 6f 69 6e               	subl	$1852403568, %eax
     4ee: 74 65                        	je	0x555 <.debug_info+0x555>
     4f0: 72 20                        	jb	0x512 <.debug_info+0x512>
     4f2: 2d 66 6e 6f 2d               	subl	$762277478, %eax
     4f7: 6f                           	outsl	(%rsi), %dx
     4f8: 70 74                        	jo	0x56e <.debug_info+0x56e>
     4fa: 69 6d 69 7a 65 2d 73         	imull	$1932354938, 105(%rbp), %ebp
     501: 74 72                        	je	0x575 <.debug_info+0x575>
     503: 6c                           	insb	%dx, %es:(%rdi)
     504: 65 6e                        	outsb	%gs:(%rsi), %dx
     506: 00 66 72                     	addb	%ah, 114(%rsi)
     509: 65 61                        	<unknown>
     50b: 64 00 31                     	addb	%dh, %fs:(%rcx)
     50e: 31 5f 5f                     	xorl	%ebx, 95(%rdi)
     511: 6d                           	insl	%dx, %es:(%rdi)
     512: 62 73 74 61 74               	<unknown>
     517: 65 5f                        	popq	%rdi
     519: 74 00                        	je	0x51b <.debug_info+0x51b>
     51b: 61                           	<unknown>
     51c: 74 65                        	je	0x583 <.debug_info+0x583>
     51e: 78 69                        	js	0x589 <.debug_info+0x589>
     520: 74 00                        	je	0x522 <.debug_info+0x522>
     522: 62                           	<unknown>
     523: 6f                           	outsl	(%rsi), %dx
     524: 6d                           	insl	%dx, %es:(%rdi)
     525: 62                           	<unknown>
     526: 2e 63 63 00                  	movslq	%cs:(%rbx), %esp
     52a: 6d                           	insl	%dx, %es:(%rdi)
     52b: 65 6d                        	insl	%dx, %es:(%rdi)
     52d: 63 6d 70                     	movslq	112(%rbp), %ebp
     530: 00 5f 5f                     	addb	%bl, 95(%rdi)
     533: 77 63                        	ja	0x598 <.debug_info+0x598>
     535: 68 62 00 66 63               	pushq	$1667629154
     53a: 6c                           	insb	%dx, %es:(%rdi)
     53b: 6f                           	outsl	(%rsi), %dx
     53c: 73 65                        	jae	0x5a3 <.debug_info+0x5a3>
     53e: 00 72 65                     	addb	%dh, 101(%rdx)
     541: 77 69                        	ja	0x5ac <.debug_info+0x5ac>
     543: 6e                           	outsb	(%rsi), %dx
     544: 64 00 70 68                  	addb	%dh, %fs:104(%rax)
     548: 61                           	<unknown>
     549: 73 65                        	jae	0x5b0 <.debug_info+0x5b0>
     54b: 33 00                        	xorl	(%rax), %eax
     54d: 70 68                        	jo	0x5b7 <.debug_info+0x5b7>
     54f: 61                           	<unknown>
     550: 73 65                        	jae	0x5b7 <.debug_info+0x5b7>
     552: 36 00 61 74                  	addb	%ah, %ss:116(%rcx)
     556: 5f                           	popq	%rdi
     557: 71 75                        	jno	0x5ce <.debug_info+0x5ce>
     559: 69 63 6b 5f 65 78 69         	imull	$1769497951, 107(%rbx), %esp
     560: 74 00                        	je	0x562 <.debug_info+0x562>
     562: 5f                           	popq	%rdi
     563: 5a                           	popq	%rdx
     564: 36 70 68                     	jo	0x5cf <.debug_info+0x5cf>
     567: 61                           	<unknown>
     568: 73 65                        	jae	0x5cf <.debug_info+0x5cf>
     56a: 34 50                        	xorb	$80, %al
     56c: 63 00                        	movslq	(%rax), %eax
     56e: 5f                           	popq	%rdi
     56f: 6c                           	insb	%dx, %es:(%rdi)
     570: 6f                           	outsl	(%rsi), %dx
     571: 63 6b 00                     	movslq	(%rbx), %ebp
     574: 73 74                        	jae	0x5ea <.debug_info+0x5ea>
     576: 72 74                        	jb	0x5ec <.debug_info+0x5ec>
     578: 6f                           	outsl	(%rsi), %dx
     579: 75 6c                        	jne	0x5e7 <.debug_info+0x5e7>
     57b: 00 5f 6f                     	addb	%bl, 111(%rdi)
     57e: 6c                           	insb	%dx, %es:(%rdi)
     57f: 64 5f                        	popq	%rdi
     581: 6f                           	outsl	(%rsi), %dx
     582: 66 66 73 65                  	jae	0x5eb <.debug_info+0x5eb>
     586: 74 00                        	je	0x588 <.debug_info+0x588>
     588: 5f                           	popq	%rdi
     589: 49 4f                        	<unknown>
     58b: 5f                           	popq	%rdi
     58c: 46 49                        	<unknown>
     58e: 4c 45                        	<unknown>
     590: 00 73 74                     	addb	%dh, 116(%rbx)
     593: 72 73                        	jb	0x608 <.debug_info+0x608>
     595: 74 72                        	je	0x609 <.debug_info+0x609>
     597: 00 70 68                     	addb	%dh, 104(%rax)
     59a: 61                           	<unknown>
     59b: 73 65                        	jae	0x602 <.debug_info+0x602>
     59d: 5f                           	popq	%rdi
     59e: 64 65 66 75 73               	jne	0x616 <.debug_info+0x616>
     5a3: 65 64 00 75 6e               	addb	%dh, %fs:110(%rbp)
     5a8: 73 69                        	jae	0x613 <.debug_info+0x613>
     5aa: 67 6e                        	outsb	(%esi), %dx
     5ac: 65 64 20 63 68               	andb	%ah, %fs:104(%rbx)
     5b1: 61                           	<unknown>
     5b2: 72 00                        	jb	0x5b4 <.debug_info+0x5b4>
     5b4: 5f                           	popq	%rdi
     5b5: 73 62                        	jae	0x619 <.debug_info+0x619>
     5b7: 75 66                        	jne	0x61f <.debug_info+0x61f>
     5b9: 00 74 6d 70                  	addb	%dh, 112(%rbp,%rbp,2)
     5bd: 66 69 6c 65 00 5f 49         	imulw	$18783, (%rbp,%riz,2), %bp
     5c4: 4f 5f                        	popq	%r15
     5c6: 77 72                        	ja	0x63a <.debug_info+0x63a>
     5c8: 69 74 65 5f 70 74 72 00      	imull	$7500912, 95(%rbp,%riz,2), %esi
     5d0: 73 74                        	jae	0x646 <.debug_info+0x646>
     5d2: 72 74                        	jb	0x648 <.debug_info+0x648>
     5d4: 6f                           	outsl	(%rsi), %dx
     5d5: 64 00 73 74                  	addb	%dh, %fs:116(%rbx)
     5d9: 72 74                        	jb	0x64f <.debug_info+0x64f>
     5db: 6f                           	outsl	(%rsi), %dx
     5dc: 66 00 66 65                  	addb	%ah, 101(%rsi)
     5e0: 6f                           	outsl	(%rsi), %dx
     5e1: 66 00 77 63                  	addb	%dh, 99(%rdi)
     5e5: 73 74                        	jae	0x65b <.debug_info+0x65b>
     5e7: 6f                           	outsl	(%rsi), %dx
     5e8: 6d                           	insl	%dx, %es:(%rdi)
     5e9: 62                           	<unknown>
     5ea: 73 00                        	jae	0x5ec <.debug_info+0x5ec>
     5ec: 73 74                        	jae	0x662 <.debug_info+0x662>
     5ee: 72 74                        	jb	0x664 <.debug_info+0x664>
     5f0: 6f                           	outsl	(%rsi), %dx
     5f1: 6c                           	insb	%dx, %es:(%rdi)
     5f2: 00 36                        	addb	%dh, (%rsi)
     5f4: 6c                           	insb	%dx, %es:(%rdi)
     5f5: 64 69 76 5f 74 00 5f 5f      	imull	$1600061556, %fs:95(%rsi), %esi
     5fd: 6f                           	outsl	(%rsi), %dx
     5fe: 66 66 5f                     	popw	%di
     601: 74 00                        	je	0x603 <.debug_info+0x603>
     603: 37                           	<unknown>
     604: 6c                           	insb	%dx, %es:(%rdi)
     605: 6c                           	insb	%dx, %es:(%rdi)
     606: 64 69 76 5f 74 00 73 74      	imull	$1953693812, %fs:95(%rsi), %esi
     60e: 72 63                        	jb	0x673 <.debug_info+0x673>
     610: 6d                           	insl	%dx, %es:(%rdi)
     611: 70 00                        	jo	0x613 <.debug_info+0x613>
     613: 73 68                        	jae	0x67d <.debug_info+0x67d>
     615: 6f                           	outsl	(%rsi), %dx
     616: 72 74                        	jb	0x68c <.debug_info+0x68c>
     618: 20 75 6e                     	andb	%dh, 110(%rbp)
     61b: 73 69                        	jae	0x686 <.debug_info+0x686>
     61d: 67 6e                        	outsb	(%esi), %dx
     61f: 65 64 20 69 6e               	andb	%ch, %fs:110(%rcx)
     624: 74 00                        	je	0x626 <.debug_info+0x626>
     626: 61                           	<unknown>
     627: 74 6f                        	je	0x698 <.debug_info+0x698>
     629: 66 00 61 74                  	addb	%ah, 116(%rcx)
     62d: 6f                           	outsl	(%rsi), %dx
     62e: 69 00 61 74 6f 6c            	imull	$1819243617, (%rax), %eax
     634: 00 5f 47                     	addb	%bl, 71(%rdi)
     637: 4c 4f                        	<unknown>
     639: 42 41                        	<unknown>
     63b: 4c 5f                        	popq	%rdi
     63d: 5f                           	popq	%rdi
     63e: 73 75                        	jae	0x6b5 <.debug_info+0x6b5>
     640: 62                           	<unknown>
     641: 5f                           	popq	%rdi
     642: 49 5f                        	popq	%r15
     644: 69 6e 66 69 6c 65 00         	imull	$6646889, 102(%rsi), %ebp
     64b: 5f                           	popq	%rdi
     64c: 63 68 61                     	movslq	97(%rax), %ebp
     64f: 69 6e 00 5f 5f 73 74         	imull	$1953718111, (%rsi), %ebp
     656: 61                           	<unknown>
     657: 74 65                        	je	0x6be <.debug_info+0x6be>
     659: 00 5f 66                     	addb	%bl, 102(%rdi)
     65c: 6c                           	insb	%dx, %es:(%rdi)
     65d: 61                           	<unknown>
     65e: 67 73 32                     	jae	0x693 <.debug_info+0x693>
     661: 00 5f 63                     	addb	%bl, 99(%rdi)
     664: 75 72                        	jne	0x6d8 <.debug_info+0x6d8>
     666: 5f                           	popq	%rdi
     667: 63 6f 6c                     	movslq	108(%rdi), %ebp
     66a: 75 6d                        	jne	0x6d9 <.debug_info+0x6d9>
     66c: 6e                           	outsb	(%rsi), %dx
     66d: 00 5f 5a                     	addb	%bl, 90(%rdi)
     670: 36 70 68                     	jo	0x6db <.debug_info+0x6db>
     673: 61                           	<unknown>
     674: 73 65                        	jae	0x6db <.debug_info+0x6db>
     676: 32 50 63                     	xorb	99(%rax), %dl
     679: 00 5f 5f                     	addb	%bl, 95(%rdi)
     67c: 6f                           	outsl	(%rsi), %dx
     67d: 66 66 36 34 5f               	xorb	$95, %al
     682: 74 00                        	je	0x684 <.debug_info+0x684>
     684: 5f                           	popq	%rdi
     685: 75 6e                        	jne	0x6f5 <.debug_info+0x6f5>
     687: 75 73                        	jne	0x6fc <.debug_info+0x6fc>
     689: 65 64 32 00                  	xorb	%fs:(%rax), %al
     68d: 5f                           	popq	%rdi
     68e: 49 4f                        	<unknown>
     690: 5f                           	popq	%rdi
     691: 62                           	<unknown>
     692: 75 66                        	jne	0x6fa <.debug_info+0x6fa>
     694: 5f                           	popq	%rdi
     695: 62                           	<unknown>
     696: 61                           	<unknown>
     697: 73 65                        	jae	0x6fe <.debug_info+0x6fe>
     699: 00 71 73                     	addb	%dh, 115(%rcx)
     69c: 6f                           	outsl	(%rsi), %dx
     69d: 72 74                        	jb	0x713 <.debug_info+0x713>
     69f: 00                           	<unknown>

Disassembly of section .debug_loclists:

0000000000000000 <.debug_loclists>:
       0: b7 00                        	movb	$0, %bh
       2: 00 00                        	addb	%al, (%rax)
       4: 05 00 08 00 00               	addl	$2048, %eax
       9: 00 00                        	addb	%al, (%rax)
       b: 00 08                        	addb	%cl, (%rax)
       d: 30 0f                        	xorb	%cl, (%rdi)
       f: 40 00 00                     	addb	%al, (%rax)
      12: 00 00                        	addb	%al, (%rax)
      14: 00 0e                        	addb	%cl, (%rsi)
      16: 04 0a                        	addb	$10, %al
      18: ff ff                        	<unknown>
      1a: 9f                           	lahf
      1b: 00 08                        	addb	%cl, (%rax)
      1d: 30 0f                        	xorb	%cl, (%rdi)
      1f: 40 00 00                     	addb	%al, (%rax)
      22: 00 00                        	addb	%al, (%rax)
      24: 00 0e                        	addb	%cl, (%rsi)
      26: 02 31                        	addb	(%rcx), %dh
      28: 9f                           	lahf
      29: 00 06                        	addb	%al, (%rsi)
      2b: d0 0d 40 00 00 00            	rorb	64(%rip)  # 71 <.debug_info+0x71>
      31: 00 00                        	addb	%al, (%rax)
      33: 04 00                        	addb	$0, %al
      35: 19 01                        	sbbl	%eax, (%rcx)
      37: 55                           	pushq	%rbp
      38: 04 19                        	addb	$25, %al
      3a: f3 01 04 a3                  	rep		addl	%eax, (%rbx,%riz,4)
      3e: 01 55 9f                     	addl	%edx, -97(%rbp)
      41: 04 f3                        	addb	$-13, %al
      43: 01 ff                        	addl	%edi, %edi
      45: 01 01                        	addl	%eax, (%rcx)
      47: 55                           	pushq	%rbp
      48: 04 ff                        	addb	$-1, %al
      4a: 01 c4                        	addl	%eax, %esp
      4c: 02 04 a3                     	addb	(%rbx,%riz,4), %al
      4f: 01 55 9f                     	addl	%edx, -97(%rbp)
      52: 04 c4                        	addb	$-60, %al
      54: 02 cc                        	addb	%ah, %cl
      56: 02 01                        	addb	(%rcx), %al
      58: 55                           	pushq	%rbp
      59: 04 cc                        	addb	$-52, %al
      5b: 02 dd                        	addb	%ch, %bl
      5d: 02 04 a3                     	addb	(%rbx,%riz,4), %al
      60: 01 55 9f                     	addl	%edx, -97(%rbp)
      63: 00 06                        	addb	%al, (%rsi)
      65: d0 0d 40 00 00 00            	rorb	64(%rip)  # ab <.debug_info+0xab>
      6b: 00 00                        	addb	%al, (%rax)
      6d: 04 00                        	addb	$0, %al
      6f: 19 01                        	sbbl	%eax, (%rcx)
      71: 54                           	pushq	%rsp
      72: 04 19                        	addb	$25, %al
      74: ef                           	outl	%eax, %dx
      75: 01 01                        	addl	%eax, (%rcx)
      77: 53                           	pushq	%rbx
      78: 04 ef                        	addb	$-17, %al
      7a: 01 f3                        	addl	%esi, %ebx
      7c: 01 04 a3                     	addl	%eax, (%rbx,%riz,4)
      7f: 01 54 9f 04                  	addl	%edx, 4(%rdi,%rbx,4)
      83: f3 01 dd                     	rep		addl	%ebx, %ebp
      86: 02 01                        	addb	(%rcx), %al
      88: 53                           	pushq	%rbx
      89: 00 06                        	addb	%al, (%rsi)
      8b: 00 0e                        	addb	%cl, (%rsi)
      8d: 40 00 00                     	addb	%al, (%rax)
      90: 00 00                        	addb	%al, (%rax)
      92: 00 04 00                     	addb	%al, (%rax,%rax)
      95: 04 01                        	addb	$1, %al
      97: 50                           	pushq	%rax
      98: 04 1c                        	addb	$28, %al
      9a: 20 01                        	andb	%al, (%rcx)
      9c: 50                           	pushq	%rax
      9d: 04 38                        	addb	$56, %al
      9f: 3c 01                        	cmpb	$1, %al
      a1: 50                           	pushq	%rax
      a2: 04 54                        	addb	$84, %al
      a4: 58                           	popq	%rax
      a5: 01 50 04                     	addl	%edx, 4(%rax)
      a8: 70 74                        	jo	0x11e <.debug_info+0x11e>
      aa: 01 50 04                     	addl	%edx, 4(%rax)
      ad: 8c 01                        	movw	%es, (%rcx)
      af: 90                           	nop
      b0: 01 01                        	addl	%eax, (%rcx)
      b2: 50                           	pushq	%rax
      b3: 04 a8                        	addb	$-88, %al
      b5: 01 ac 01                     	<unknown>
      b8: 01 50 00                     	addl	%edx, (%rax)

Disassembly of section .debug_rnglists:

0000000000000000 <.debug_rnglists>:
       0: 1e                           	<unknown>
       1: 00 00                        	addb	%al, (%rax)
       3: 00 05 00 08 00 00            	addb	%al, 2048(%rip)  # 809 <.debug_info+0x809>
       9: 00 00                        	addb	%al, (%rax)
       b: 00 07                        	addb	%al, (%rdi)
       d: d0 0d 40 00 00 00            	rorb	64(%rip)  # 53 <.debug_info+0x53>
      13: 00 00                        	addb	%al, (%rax)
      15: dd 02                        	fldl	(%rdx)
      17: 07                           	<unknown>
      18: 30 0f                        	xorb	%cl, (%rdi)
      1a: 40 00 00                     	addb	%al, (%rax)
      1d: 00 00                        	addb	%al, (%rax)
      1f: 00 0f                        	addb	%cl, (%rdi)
      21: 00                           	<unknown>

Disassembly of section .symtab:

0000000000000000 <.symtab>:
		...
      1c: 03 00                        	addl	(%rax), %eax
      1e: 01 00                        	addl	%eax, (%rax)
      20: 38 02                        	cmpb	%al, (%rdx)
      22: 40 00 00                     	addb	%al, (%rax)
		...
      31: 00 00                        	addb	%al, (%rax)
      33: 00 03                        	addb	%al, (%rbx)
      35: 00 02                        	addb	%al, (%rdx)
      37: 00 54 02 40                  	addb	%dl, 64(%rdx,%rax)
		...
      4b: 00 03                        	addb	%al, (%rbx)
      4d: 00 03                        	addb	%al, (%rbx)
      4f: 00 74 02 40                  	addb	%dh, 64(%rdx,%rax)
		...
      63: 00 03                        	addb	%al, (%rbx)
      65: 00 04 00                     	addb	%al, (%rax,%rax)
      68: 98                           	cwtl
      69: 02 40 00                     	addb	(%rax), %al
		...
      7c: 03 00                        	addl	(%rax), %eax
      7e: 05 00 c8 02 40               	addl	$1073924096, %eax
		...
      93: 00 03                        	addb	%al, (%rbx)
      95: 00 06                        	addb	%al, (%rsi)
      97: 00 58 06                     	addb	%bl, 6(%rax)
      9a: 40 00 00                     	addb	%al, (%rax)
		...
      a9: 00 00                        	addb	%al, (%rax)
      ab: 00 03                        	addb	%al, (%rbx)
      ad: 00 07                        	addb	%al, (%rdi)
      af: 00 c0                        	addb	%al, %al
      b1: 07                           	<unknown>
      b2: 40 00 00                     	addb	%al, (%rax)
		...
      c1: 00 00                        	addb	%al, (%rax)
      c3: 00 03                        	addb	%al, (%rbx)
      c5: 00 08                        	addb	%cl, (%rax)
      c7: 00 10                        	addb	%dl, (%rax)
      c9: 08 40 00                     	orb	%al, (%rax)
		...
      dc: 03 00                        	addl	(%rax), %eax
      de: 09 00                        	orl	%eax, (%rax)
      e0: 30 08                        	xorb	%cl, (%rax)
      e2: 40 00 00                     	addb	%al, (%rax)
		...
      f1: 00 00                        	addb	%al, (%rax)
      f3: 00 03                        	addb	%al, (%rbx)
      f5: 00 0a                        	addb	%cl, (%rdx)
      f7: 00 a8 08 40 00 00            	addb	%ch, 16392(%rax)
		...
     109: 00 00                        	addb	%al, (%rax)
     10b: 00 03                        	addb	%al, (%rbx)
     10d: 00 0b                        	addb	%cl, (%rbx)
     10f: 00 a8 0b 40 00 00            	addb	%ch, 16395(%rax)
		...
     121: 00 00                        	addb	%al, (%rax)
     123: 00 03                        	addb	%al, (%rbx)
     125: 00 0c 00                     	addb	%cl, (%rax,%rax)
     128: c0 0b 40                     	rorb	$64, (%rbx)
		...
     13b: 00 03                        	addb	%al, (%rbx)
     13d: 00 0d 00 d0 0d 40            	addb	%cl, 1074647040(%rip)  # 400dd143 <_end+0x3fad8003>
		...
     153: 00 03                        	addb	%al, (%rbx)
     155: 00 0e                        	addb	%cl, (%rsi)
     157: 00 a8 23 40 00 00            	addb	%ch, 16419(%rax)
		...
     169: 00 00                        	addb	%al, (%rax)
     16b: 00 03                        	addb	%al, (%rbx)
     16d: 00 0f                        	addb	%cl, (%rdi)
     16f: 00 c0                        	addb	%al, %al
     171: 23 40 00                     	andl	(%rax), %eax
		...
     184: 03 00                        	addl	(%rax), %eax
     186: 10 00                        	adcb	%al, (%rax)
     188: 9c                           	pushfq
     189: 2b 40 00                     	subl	(%rax), %eax
		...
     19c: 03 00                        	addl	(%rax), %eax
     19e: 11 00                        	adcl	%eax, (%rax)
     1a0: e8 2c 40 00 00               	callq	0x41d1 <.debug_info+0x41d1>
		...
     1b1: 00 00                        	addb	%al, (%rax)
     1b3: 00 03                        	addb	%al, (%rbx)
     1b5: 00 12                        	addb	%dl, (%rdx)
     1b7: 00 d8                        	addb	%bl, %al
     1b9: 3d 60 00 00 00               	cmpl	$96, %eax
		...
     1ca: 00 00                        	addb	%al, (%rax)
     1cc: 03 00                        	addl	(%rax), %eax
     1ce: 13 00                        	adcl	(%rax), %eax
     1d0: e8 3d 60 00 00               	callq	0x6212 <.debug_info+0x6212>
		...
     1e1: 00 00                        	addb	%al, (%rax)
     1e3: 00 03                        	addb	%al, (%rbx)
     1e5: 00 14 00                     	addb	%dl, (%rax,%rax)
     1e8: f0                           	lock
     1e9: 3d 60 00 00 00               	cmpl	$96, %eax
		...
     1fa: 00 00                        	addb	%al, (%rax)
     1fc: 03 00                        	addl	(%rax), %eax
     1fe: 15 00 f0 3f 60               	adcl	$1614802944, %eax
		...
     213: 00 03                        	addb	%al, (%rbx)
     215: 00 16                        	addb	%dl, (%rsi)
     217: 00 00                        	addb	%al, (%rax)
     219: 40 60                        	<unknown>
		...
     22b: 00 03                        	addb	%al, (%rbx)
     22d: 00 17                        	addb	%dl, (%rdi)
     22f: 00 20                        	addb	%ah, (%rax)
     231: 41 60                        	<unknown>
		...
     243: 00 03                        	addb	%al, (%rbx)
     245: 00 18                        	addb	%bl, (%rax)
     247: 00 a0 43 60 00 00            	addb	%ah, 24643(%rax)
		...
     259: 00 00                        	addb	%al, (%rax)
     25b: 00 03                        	addb	%al, (%rbx)
     25d: 00 19                        	addb	%bl, (%rcx)
		...
     273: 00 03                        	addb	%al, (%rbx)
     275: 00 1a                        	addb	%bl, (%rdx)
		...
     28b: 00 03                        	addb	%al, (%rbx)
     28d: 00 1b                        	addb	%bl, (%rbx)
		...
     2a3: 00 03                        	addb	%al, (%rbx)
     2a5: 00 1c 00                     	addb	%bl, (%rax,%rax)
		...
     2bc: 03 00                        	addl	(%rax), %eax
     2be: 1d 00 00 00 00               	sbbl	$0, %eax
		...
     2d3: 00 03                        	addb	%al, (%rbx)
     2d5: 00 1e                        	addb	%bl, (%rsi)
		...
     2eb: 00 03                        	addb	%al, (%rbx)
     2ed: 00 1f                        	addb	%bl, (%rdi)
		...
     303: 00 03                        	addb	%al, (%rbx)
     305: 00 20                        	addb	%ah, (%rax)
		...
     317: 00 01                        	addb	%al, (%rcx)
     319: 00 00                        	addb	%al, (%rax)
     31b: 00 04 00                     	addb	%al, (%rax,%rax)
     31e: f1                           	<unknown>
     31f: ff 00                        	incl	(%rax)
		...
     32d: 00 00                        	addb	%al, (%rax)
     32f: 00 09                        	addb	%cl, (%rcx)
     331: 00 00                        	addb	%al, (%rax)
     333: 00 02                        	addb	%al, (%rdx)
     335: 00 0d 00 30 0f 40            	addb	%cl, 1074737152(%rip)  # 400f333b <_end+0x3faee1fb>
     33b: 00 00                        	addb	%al, (%rax)
     33d: 00 00                        	addb	%al, (%rax)
     33f: 00 0f                        	addb	%cl, (%rdi)
     341: 00 00                        	addb	%al, (%rax)
     343: 00 00                        	addb	%al, (%rax)
     345: 00 00                        	addb	%al, (%rax)
     347: 00 1f                        	addb	%bl, (%rdi)
     349: 00 00                        	addb	%al, (%rax)
     34b: 00 04 00                     	addb	%al, (%rax,%rax)
     34e: f1                           	<unknown>
     34f: ff 00                        	incl	(%rax)
		...
     35d: 00 00                        	addb	%al, (%rax)
     35f: 00 2a                        	addb	%ch, (%rdx)
     361: 00 00                        	addb	%al, (%rax)
     363: 00 02                        	addb	%al, (%rdx)
     365: 00 0d 00 70 0f 40            	addb	%cl, 1074753536(%rip)  # 400f736b <_end+0x3faf222b>
		...
     377: 00 2c 00                     	addb	%ch, (%rax,%rax)
     37a: 00 00                        	addb	%al, (%rax)
     37c: 02 00                        	addb	(%rax), %al
     37e: 0d 00 a0 0f 40               	orl	$1074765824, %eax
		...
     38f: 00 3f                        	addb	%bh, (%rdi)
     391: 00 00                        	addb	%al, (%rax)
     393: 00 02                        	addb	%al, (%rdx)
     395: 00 0d 00 e0 0f 40            	addb	%cl, 1074782208(%rip)  # 400fe39b <_end+0x3faf925b>
		...
     3a7: 00 55 00                     	addb	%dl, (%rbp)
     3aa: 00 00                        	addb	%al, (%rax)
     3ac: 01 00                        	addl	%eax, (%rax)
     3ae: 18 00                        	sbbb	%al, (%rax)
     3b0: c8 43 60 00                  	enter	$24643, $0
     3b4: 00 00                        	addb	%al, (%rax)
     3b6: 00 00                        	addb	%al, (%rax)
     3b8: 01 00                        	addl	%eax, (%rax)
     3ba: 00 00                        	addb	%al, (%rax)
     3bc: 00 00                        	addb	%al, (%rax)
     3be: 00 00                        	addb	%al, (%rax)
     3c0: 61                           	<unknown>
     3c1: 00 00                        	addb	%al, (%rax)
     3c3: 00 01                        	addb	%al, (%rcx)
     3c5: 00 13                        	addb	%dl, (%rbx)
     3c7: 00 e8                        	addb	%ch, %al
     3c9: 3d 60 00 00 00               	cmpl	$96, %eax
		...
     3d6: 00 00                        	addb	%al, (%rax)
     3d8: 88 00                        	movb	%al, (%rax)
     3da: 00 00                        	addb	%al, (%rax)
     3dc: 02 00                        	addb	(%rax), %al
     3de: 0d 00 10 10 40               	orl	$1074794496, %eax
		...
     3ef: 00 94 00 00 00 01 00         	addb	%dl, 65536(%rax,%rax)
     3f6: 12 00                        	adcb	(%rax), %al
     3f8: d8 3d 60 00 00 00            	fdivrs	96(%rip)  # 45e <.debug_info+0x45e>
		...
     406: 00 00                        	addb	%al, (%rax)
     408: b3 00                        	movb	$0, %bl
     40a: 00 00                        	addb	%al, (%rax)
     40c: 04 00                        	addb	$0, %al
     40e: f1                           	<unknown>
     40f: ff 00                        	incl	(%rax)
		...
     41d: 00 00                        	addb	%al, (%rax)
     41f: 00 bd 00 00 00 01            	addb	%bh, 16777216(%rbp)
     425: 00 0f                        	addb	%cl, (%rdi)
     427: 00 c0                        	addb	%al, %al
     429: 25 40 00 00 00               	andl	$64, %eax
     42e: 00 00                        	addb	%al, (%rax)
     430: 20 00                        	andb	%al, (%rax)
     432: 00 00                        	addb	%al, (%rax)
     434: 00 00                        	addb	%al, (%rax)
     436: 00 00                        	addb	%al, (%rax)
     438: c7 00 00 00 01 00            	movl	$65536, (%rax)
     43e: 0f 00 a0 25 40 00 00         	verr	16421(%rax)
     445: 00 00                        	addb	%al, (%rax)
     447: 00 08                        	addb	%cl, (%rax)
     449: 00 00                        	addb	%al, (%rax)
     44b: 00 00                        	addb	%al, (%rax)
     44d: 00 00                        	addb	%al, (%rax)
     44f: 00 d1                        	addb	%dl, %cl
     451: 00 00                        	addb	%al, (%rax)
     453: 00 01                        	addb	%al, (%rcx)
     455: 00 0f                        	addb	%cl, (%rdi)
     457: 00 e0                        	addb	%ah, %al
     459: 25 40 00 00 00               	andl	$64, %eax
     45e: 00 00                        	addb	%al, (%rax)
     460: 28 00                        	subb	%al, (%rax)
     462: 00 00                        	addb	%al, (%rax)
     464: 00 00                        	addb	%al, (%rax)
     466: 00 00                        	addb	%al, (%rax)
     468: dc 00                        	faddl	(%rax)
     46a: 00 00                        	addb	%al, (%rax)
     46c: 04 00                        	addb	$0, %al
     46e: f1                           	<unknown>
     46f: ff 00                        	incl	(%rax)
		...
     47d: 00 00                        	addb	%al, (%rax)
     47f: 00 e7                        	addb	%ah, %bh
     481: 00 00                        	addb	%al, (%rax)
     483: 00 02                        	addb	%al, (%rdx)
     485: 00 0d 00 d0 16 40            	addb	%cl, 1075236864(%rip)  # 4016d48b <_end+0x3fb6834b>
     48b: 00 00                        	addb	%al, (%rax)
     48d: 00 00                        	addb	%al, (%rax)
     48f: 00 5e 00                     	addb	%bl, (%rsi)
     492: 00 00                        	addb	%al, (%rax)
     494: 00 00                        	addb	%al, (%rax)
     496: 00 00                        	addb	%al, (%rax)
     498: f9                           	stc
     499: 00 00                        	addb	%al, (%rax)
     49b: 00 02                        	addb	%al, (%rdx)
     49d: 00 0d 00 30 17 40            	addb	%cl, 1075261440(%rip)  # 401734a3 <_end+0x3fb6e363>
     4a3: 00 00                        	addb	%al, (%rax)
     4a5: 00 00                        	addb	%al, (%rax)
     4a7: 00 80 00 00 00 00            	addb	%al, (%rax)
     4ad: 00 00                        	addb	%al, (%rax)
     4af: 00 06                        	addb	%al, (%rsi)
     4b1: 01 00                        	addl	%eax, (%rax)
     4b3: 00 01                        	addb	%al, (%rcx)
     4b5: 00 18                        	addb	%bl, (%rax)
     4b7: 00 a0 50 60 00 00            	addb	%ah, 24656(%rax)
     4bd: 00 00                        	addb	%al, (%rax)
     4bf: 00 a0 00 00 00 00            	addb	%ah, (%rax)
     4c5: 00 00                        	addb	%al, (%rax)
     4c7: 00 20                        	addb	%ah, (%rax)
     4c9: 01 00                        	addl	%eax, (%rax)
     4cb: 00 04 00                     	addb	%al, (%rax,%rax)
     4ce: f1                           	<unknown>
     4cf: ff 00                        	incl	(%rax)
		...
     4dd: 00 00                        	addb	%al, (%rax)
     4df: 00 2d 01 00 00 02            	addb	%ch, 33554433(%rip)  # 20004e6 <_end+0x19fb3a6>
     4e5: 00 0d 00 a0 1b 40            	addb	%cl, 1075552256(%rip)  # 401ba4eb <_end+0x3fbb53ab>
     4eb: 00 00                        	addb	%al, (%rax)
     4ed: 00 00                        	addb	%al, (%rax)
     4ef: 00 de                        	addb	%bl, %dh
     4f1: 00 00                        	addb	%al, (%rax)
     4f3: 00 00                        	addb	%al, (%rax)
     4f5: 00 00                        	addb	%al, (%rax)
     4f7: 00 1f                        	addb	%bl, (%rdi)
     4f9: 00 00                        	addb	%al, (%rax)
     4fb: 00 04 00                     	addb	%al, (%rax,%rax)
     4fe: f1                           	<unknown>
     4ff: ff 00                        	incl	(%rax)
		...
     50d: 00 00                        	addb	%al, (%rax)
     50f: 00 56 01                     	addb	%dl, 1(%rsi)
     512: 00 00                        	addb	%al, (%rax)
     514: 01 00                        	addl	%eax, (%rax)
     516: 11 00                        	adcl	%eax, (%rax)
     518: ac                           	lodsb	(%rsi), %al
     519: 32 40 00                     	xorb	(%rax), %al
		...
     52c: 04 00                        	addb	$0, %al
     52e: f1                           	<unknown>
     52f: ff 00                        	incl	(%rax)
		...
     53d: 00 00                        	addb	%al, (%rax)
     53f: 00 64 01 00                  	addb	%ah, (%rcx,%rax)
     543: 00 00                        	addb	%al, (%rax)
     545: 00 10                        	addb	%dl, (%rax)
     547: 00 9c 2b 40 00 00 00         	addb	%bl, 64(%rbx,%rbp)
		...
     556: 00 00                        	addb	%al, (%rax)
     558: 77 01                        	ja	0x55b <.debug_info+0x55b>
     55a: 00 00                        	addb	%al, (%rax)
     55c: 01 00                        	addl	%eax, (%rax)
     55e: 14 00                        	adcb	$0, %al
     560: f0                           	lock
     561: 3d 60 00 00 00               	cmpl	$96, %eax
		...
     56e: 00 00                        	addb	%al, (%rax)
     570: 80 01 00                     	addb	$0, (%rcx)
     573: 00 00                        	addb	%al, (%rax)
     575: 00 12                        	addb	%dl, (%rdx)
     577: 00 e8                        	addb	%ch, %al
     579: 3d 60 00 00 00               	cmpl	$96, %eax
		...
     586: 00 00                        	addb	%al, (%rax)
     588: 91                           	xchgl	%ecx, %eax
     589: 01 00                        	addl	%eax, (%rax)
     58b: 00 00                        	addb	%al, (%rax)
     58d: 00 12                        	addb	%dl, (%rdx)
     58f: 00 d8                        	addb	%bl, %al
     591: 3d 60 00 00 00               	cmpl	$96, %eax
		...
     59e: 00 00                        	addb	%al, (%rax)
     5a0: a4                           	movsb	(%rsi), %es:(%rdi)
     5a1: 01 00                        	addl	%eax, (%rax)
     5a3: 00 01                        	addb	%al, (%rcx)
     5a5: 00 16                        	addb	%dl, (%rsi)
     5a7: 00 00                        	addb	%al, (%rax)
     5a9: 40 60                        	<unknown>
		...
     5b7: 00 ba 01 00 00 11            	addb	%bh, 285212673(%rdx)
     5bd: 00 17                        	addb	%dl, (%rdi)
     5bf: 00 20                        	addb	%ah, (%rax)
     5c1: 43 60                        	<unknown>
     5c3: 00 00                        	addb	%al, (%rax)
     5c5: 00 00                        	addb	%al, (%rax)
     5c7: 00 10                        	addb	%dl, (%rax)
     5c9: 00 00                        	addb	%al, (%rax)
     5cb: 00 00                        	addb	%al, (%rax)
     5cd: 00 00                        	addb	%al, (%rax)
     5cf: 00 c0                        	addb	%al, %al
     5d1: 01 00                        	addl	%eax, (%rax)
     5d3: 00 12                        	addb	%dl, (%rdx)
		...
     5e5: 00 00                        	addb	%al, (%rax)
     5e7: 00 d5                        	addb	%dl, %ch
     5e9: 01 00                        	addl	%eax, (%rax)
     5eb: 00 12                        	addb	%dl, (%rdx)
		...
     5fd: 00 00                        	addb	%al, (%rax)
     5ff: 00 cc                        	addb	%cl, %ah
     601: 05 00 00 12 00               	addl	$1179648, %eax
		...
     616: 00 00                        	addb	%al, (%rax)
     618: f3 01 00                     	rep		addl	%eax, (%rax)
     61b: 00 12                        	addb	%dl, (%rdx)
     61d: 00 0d 00 b0 11 40            	addb	%cl, 1074900992(%rip)  # 4011b623 <_end+0x3fb164e3>
     623: 00 00                        	addb	%al, (%rax)
     625: 00 00                        	addb	%al, (%rax)
     627: 00 70 00                     	addb	%dh, (%rax)
     62a: 00 00                        	addb	%al, (%rax)
     62c: 00 00                        	addb	%al, (%rax)
     62e: 00 00                        	addb	%al, (%rax)
     630: 10 02                        	adcb	%al, (%rdx)
     632: 00 00                        	addb	%al, (%rax)
     634: 12 00                        	adcb	(%rax), %al
		...
     646: 00 00                        	addb	%al, (%rax)
     648: 25 02 00 00 11               	andl	$285212674, %eax
     64d: 00 18                        	addb	%bl, (%rax)
     64f: 00 a0 43 60 00 00            	addb	%ah, 24643(%rax)
     655: 00 00                        	addb	%al, (%rax)
     657: 00 08                        	addb	%cl, (%rax)
     659: 00 00                        	addb	%al, (%rax)
     65b: 00 00                        	addb	%al, (%rax)
     65d: 00 00                        	addb	%al, (%rax)
     65f: 00 39                        	addb	%bh, (%rcx)
     661: 02 00                        	addb	(%rax), %al
     663: 00 11                        	addb	%dl, (%rcx)
     665: 00 17                        	addb	%dl, (%rdi)
     667: 00 94 43 60 00 00 00         	addb	%dl, 96(%rbx,%rax,2)
     66e: 00 00                        	addb	%al, (%rax)
     670: 04 00                        	addb	$0, %al
     672: 00 00                        	addb	%al, (%rax)
     674: 00 00                        	addb	%al, (%rax)
     676: 00 00                        	addb	%al, (%rax)
     678: 41 02 00                     	addb	(%r8), %al
     67b: 00 12                        	addb	%dl, (%rdx)
     67d: 00 0d 00 20 10 40            	addb	%cl, 1074798592(%rip)  # 40102683 <_end+0x3fafd543>
     683: 00 00                        	addb	%al, (%rax)
     685: 00 00                        	addb	%al, (%rax)
     687: 00 25 00 00 00 00            	addb	%ah, (%rip)  # 68d <.debug_info+0x68d>
     68d: 00 00                        	addb	%al, (%rax)
     68f: 00 4d 02                     	addb	%cl, 2(%rbp)
     692: 00 00                        	addb	%al, (%rax)
     694: 12 00                        	adcb	(%rax), %al
		...
     6a6: 00 00                        	addb	%al, (%rax)
     6a8: 62                           	<unknown>
     6a9: 02 00                        	addb	(%rax), %al
     6ab: 00 12                        	addb	%dl, (%rdx)
     6ad: 00 0d 00 20 12 40            	addb	%cl, 1074929664(%rip)  # 401226b3 <_end+0x3fb1d573>
     6b3: 00 00                        	addb	%al, (%rax)
     6b5: 00 00                        	addb	%al, (%rax)
     6b7: 00 1e                        	addb	%bl, (%rsi)
     6b9: 01 00                        	addl	%eax, (%rax)
     6bb: 00 00                        	addb	%al, (%rax)
     6bd: 00 00                        	addb	%al, (%rax)
     6bf: 00 6e 02                     	addb	%ch, 2(%rsi)
     6c2: 00 00                        	addb	%al, (%rax)
     6c4: 11 00                        	adcl	%eax, (%rax)
     6c6: 17                           	<unknown>
     6c7: 00 90 42 60 00 00            	addb	%dl, 24642(%rax)
     6cd: 00 00                        	addb	%al, (%rax)
     6cf: 00 18                        	addb	%bl, (%rax)
     6d1: 00 00                        	addb	%al, (%rax)
     6d3: 00 00                        	addb	%al, (%rax)
     6d5: 00 00                        	addb	%al, (%rax)
     6d7: 00 72 02                     	addb	%dh, 2(%rdx)
     6da: 00 00                        	addb	%al, (%rax)
     6dc: 12 00                        	adcb	(%rax), %al
     6de: 0d 00 90 10 40               	orl	$1074827264, %eax
     6e3: 00 00                        	addb	%al, (%rax)
     6e5: 00 00                        	addb	%al, (%rax)
     6e7: 00 4c 00 00                  	addb	%cl, (%rax,%rax)
     6eb: 00 00                        	addb	%al, (%rax)
     6ed: 00 00                        	addb	%al, (%rax)
     6ef: 00 7e 02                     	addb	%bh, 2(%rsi)
     6f2: 00 00                        	addb	%al, (%rax)
     6f4: 12 00                        	adcb	(%rax), %al
     6f6: 0d 00 50 11 40               	orl	$1074876416, %eax
     6fb: 00 00                        	addb	%al, (%rax)
     6fd: 00 00                        	addb	%al, (%rax)
     6ff: 00 58 00                     	addb	%bl, (%rax)
     702: 00 00                        	addb	%al, (%rax)
     704: 00 00                        	addb	%al, (%rax)
     706: 00 00                        	addb	%al, (%rax)
     708: 93                           	xchgl	%ebx, %eax
     709: 02 00                        	addb	(%rax), %al
     70b: 00 10                        	addb	%dl, (%rax)
     70d: 00 17                        	addb	%dl, (%rdi)
     70f: 00 98 43 60 00 00            	addb	%bl, 24643(%rax)
		...
     71d: 00 00                        	addb	%al, (%rax)
     71f: 00 9a 02 00 00 12            	addb	%bl, 301989890(%rdx)
		...
     735: 00 00                        	addb	%al, (%rax)
     737: 00 ae 02 00 00 12            	addb	%ch, 301989890(%rsi)
     73d: 00 0d 00 30 15 40            	addb	%cl, 1075130368(%rip)  # 40153743 <_end+0x3fb4e603>
     743: 00 00                        	addb	%al, (%rax)
     745: 00 00                        	addb	%al, (%rax)
     747: 00 e5                        	addb	%ah, %ch
     749: 00 00                        	addb	%al, (%rax)
     74b: 00 00                        	addb	%al, (%rax)
     74d: 00 00                        	addb	%al, (%rax)
     74f: 00 ba 02 00 00 11            	addb	%bh, 285212674(%rdx)
     755: 00 18                        	addb	%bl, (%rax)
     757: 00 e0                        	addb	%ah, %al
     759: 43 60                        	<unknown>
     75b: 00 00                        	addb	%al, (%rax)
     75d: 00 00                        	addb	%al, (%rax)
     75f: 00 04 00                     	addb	%al, (%rax,%rax)
     762: 00 00                        	addb	%al, (%rax)
     764: 00 00                        	addb	%al, (%rax)
     766: 00 00                        	addb	%al, (%rax)
     768: c3                           	retq
     769: 02 00                        	addb	(%rax), %al
     76b: 00 12                        	addb	%dl, (%rdx)
     76d: 00 0d 00 70 1b 40            	addb	%cl, 1075539968(%rip)  # 401b7773 <_end+0x3fbb2633>
     773: 00 00                        	addb	%al, (%rax)
     775: 00 00                        	addb	%al, (%rax)
     777: 00 23                        	addb	%ah, (%rbx)
     779: 00 00                        	addb	%al, (%rax)
     77b: 00 00                        	addb	%al, (%rax)
     77d: 00 00                        	addb	%al, (%rax)
     77f: 00 d8                        	addb	%bl, %al
     781: 02 00                        	addb	(%rax), %al
     783: 00 12                        	addb	%dl, (%rdx)
		...
     795: 00 00                        	addb	%al, (%rax)
     797: 00 94 05 00 00 20 00         	addb	%dl, 2097152(%rbp,%rax)
     79e: 17                           	<unknown>
     79f: 00 20                        	addb	%ah, (%rax)
     7a1: 41 60                        	<unknown>
		...
     7af: 00 ed                        	addb	%ch, %ch
     7b1: 02 00                        	addb	(%rax), %al
     7b3: 00 11                        	addb	%dl, (%rcx)
     7b5: 00 17                        	addb	%dl, (%rdi)
     7b7: 00 10                        	addb	%dl, (%rax)
     7b9: 43 60                        	<unknown>
     7bb: 00 00                        	addb	%al, (%rax)
     7bd: 00 00                        	addb	%al, (%rax)
     7bf: 00 10                        	addb	%dl, (%rax)
     7c1: 00 00                        	addb	%al, (%rax)
     7c3: 00 00                        	addb	%al, (%rax)
     7c5: 00 00                        	addb	%al, (%rax)
     7c7: 00 f3                        	addb	%dh, %bl
     7c9: 02 00                        	addb	(%rax), %al
     7cb: 00 12                        	addb	%dl, (%rdx)
     7cd: 00 0d 00 60 16 40            	addb	%cl, 1075208192(%rip)  # 401667d3 <_end+0x3fb61693>
     7d3: 00 00                        	addb	%al, (%rax)
     7d5: 00 00                        	addb	%al, (%rax)
     7d7: 00 6d 00                     	addb	%ch, (%rbp)
     7da: 00 00                        	addb	%al, (%rax)
     7dc: 00 00                        	addb	%al, (%rax)
     7de: 00 00                        	addb	%al, (%rax)
     7e0: 05 03 00 00 12               	addl	$301989891, %eax
     7e5: 00 0d 00 f0 13 40            	addb	%cl, 1075048448(%rip)  # 4013f7eb <_end+0x3fb3a6ab>
     7eb: 00 00                        	addb	%al, (%rax)
     7ed: 00 00                        	addb	%al, (%rax)
     7ef: 00 c7                        	addb	%al, %bh
     7f1: 00 00                        	addb	%al, (%rax)
     7f3: 00 00                        	addb	%al, (%rax)
     7f5: 00 00                        	addb	%al, (%rax)
     7f7: 00 1d 03 00 00 11            	addb	%bl, 285212675(%rip)  # 11000800 <_end+0x109fb6c0>
     7fd: 00 0f                        	addb	%cl, (%rdi)
     7ff: 00 c0                        	addb	%al, %al
     801: 23 40 00                     	andl	(%rax), %eax
     804: 00 00                        	addb	%al, (%rax)
     806: 00 00                        	addb	%al, (%rax)
     808: 04 00                        	addb	$0, %al
     80a: 00 00                        	addb	%al, (%rax)
     80c: 00 00                        	addb	%al, (%rax)
     80e: 00 00                        	addb	%al, (%rax)
     810: 2c 03                        	subb	$3, %al
     812: 00 00                        	addb	%al, (%rax)
     814: 12 00                        	adcb	(%rax), %al
		...
     826: 00 00                        	addb	%al, (%rax)
     828: 3f                           	<unknown>
     829: 03 00                        	addl	(%rax), %eax
     82b: 00 11                        	addb	%dl, (%rcx)
     82d: 00 17                        	addb	%dl, (%rdi)
     82f: 00 f0                        	addb	%dh, %al
     831: 41 60                        	<unknown>
     833: 00 00                        	addb	%al, (%rax)
     835: 00 00                        	addb	%al, (%rax)
     837: 00 18                        	addb	%bl, (%rax)
     839: 00 00                        	addb	%al, (%rax)
     83b: 00 00                        	addb	%al, (%rax)
     83d: 00 00                        	addb	%al, (%rax)
     83f: 00 43 03                     	addb	%al, 3(%rbx)
     842: 00 00                        	addb	%al, (%rax)
     844: 12 00                        	adcb	(%rax), %al
     846: 0d 00 40 13 40               	orl	$1075003392, %eax
     84b: 00 00                        	addb	%al, (%rax)
     84d: 00 00                        	addb	%al, (%rax)
     84f: 00 58 00                     	addb	%bl, (%rax)
     852: 00 00                        	addb	%al, (%rax)
     854: 00 00                        	addb	%al, (%rax)
     856: 00 00                        	addb	%al, (%rax)
     858: 5d                           	popq	%rbp
     859: 03 00                        	addl	(%rax), %eax
     85b: 00 12                        	addb	%dl, (%rdx)
		...
     86d: 00 00                        	addb	%al, (%rax)
     86f: 00 71 03                     	addb	%dh, 3(%rcx)
     872: 00 00                        	addb	%al, (%rax)
     874: 12 00                        	adcb	(%rax), %al
		...
     886: 00 00                        	addb	%al, (%rax)
     888: 85 03                        	testl	%eax, (%rbx)
     88a: 00 00                        	addb	%al, (%rax)
     88c: 11 00                        	adcl	%eax, (%rax)
     88e: 17                           	<unknown>
     88f: 00 50 42                     	addb	%dl, 66(%rax)
     892: 60                           	<unknown>
     893: 00 00                        	addb	%al, (%rax)
     895: 00 00                        	addb	%al, (%rax)
     897: 00 18                        	addb	%bl, (%rax)
     899: 00 00                        	addb	%al, (%rax)
     89b: 00 00                        	addb	%al, (%rax)
     89d: 00 00                        	addb	%al, (%rax)
     89f: 00 89 03 00 00 12            	addb	%cl, 301989891(%rcx)
     8a5: 00 0d 00 00 21 40            	addb	%cl, 1075904512(%rip)  # 402108ab <_end+0x3fc0b76b>
     8ab: 00 00                        	addb	%al, (%rax)
     8ad: 00 00                        	addb	%al, (%rax)
     8af: 00 35 00 00 00 00            	addb	%dh, (%rip)  # 8b5 <.debug_info+0x8b5>
     8b5: 00 00                        	addb	%al, (%rax)
     8b7: 00 9b 03 00 00 12            	addb	%bl, 301989891(%rbx)
     8bd: 00 0d 00 d0 0d 40            	addb	%cl, 1074647040(%rip)  # 400dd8c3 <_end+0x3fad8783>
     8c3: 00 00                        	addb	%al, (%rax)
     8c5: 00 00                        	addb	%al, (%rax)
     8c7: 00 5d 01                     	addb	%bl, 1(%rbp)
     8ca: 00 00                        	addb	%al, (%rax)
     8cc: 00 00                        	addb	%al, (%rax)
     8ce: 00 00                        	addb	%al, (%rax)
     8d0: a0 03 00 00 11 00 17 00 88   	movabsb	-8646885995498700797, %al
     8d9: 43 60                        	<unknown>
     8db: 00 00                        	addb	%al, (%rax)
     8dd: 00 00                        	addb	%al, (%rax)
     8df: 00 0b                        	addb	%cl, (%rbx)
     8e1: 00 00                        	addb	%al, (%rax)
     8e3: 00 00                        	addb	%al, (%rax)
     8e5: 00 00                        	addb	%al, (%rax)
     8e7: 00 18                        	addb	%bl, (%rax)
     8e9: 00 00                        	addb	%al, (%rax)
     8eb: 00 11                        	addb	%dl, (%rcx)
     8ed: 00 18                        	addb	%bl, (%rax)
     8ef: 00 d0                        	addb	%dl, %al
     8f1: 43 60                        	<unknown>
     8f3: 00 00                        	addb	%al, (%rax)
     8f5: 00 00                        	addb	%al, (%rax)
     8f7: 00 08                        	addb	%cl, (%rax)
     8f9: 00 00                        	addb	%al, (%rax)
     8fb: 00 00                        	addb	%al, (%rax)
     8fd: 00 00                        	addb	%al, (%rax)
     8ff: 00 a7 03 00 00 11            	addb	%ah, 285212675(%rdi)
     905: 02 17                        	addb	(%rdi), %dl
     907: 00 28                        	addb	%ch, (%rax)
     909: 41 60                        	<unknown>
		...
     917: 00 b4 03 00 00 12 00         	addb	%dh, 1179648(%rbx,%rax)
		...
     92e: 00 00                        	addb	%al, (%rax)
     930: cf                           	iretl
     931: 03 00                        	addl	(%rax), %eax
     933: 00 12                        	addb	%dl, (%rdx)
     935: 00 0d 00 a0 18 40            	addb	%cl, 1075355648(%rip)  # 4018a93b <_end+0x3fb857fb>
     93b: 00 00                        	addb	%al, (%rax)
     93d: 00 00                        	addb	%al, (%rax)
     93f: 00 01                        	addb	%al, (%rcx)
     941: 00 00                        	addb	%al, (%rax)
     943: 00 00                        	addb	%al, (%rax)
     945: 00 00                        	addb	%al, (%rax)
     947: 00 ea                        	addb	%ch, %dl
     949: 03 00                        	addl	(%rax), %eax
     94b: 00 11                        	addb	%dl, (%rcx)
     94d: 00 17                        	addb	%dl, (%rdi)
     94f: 00 f0                        	addb	%dh, %al
     951: 42 60                        	<unknown>
     953: 00 00                        	addb	%al, (%rax)
     955: 00 00                        	addb	%al, (%rax)
     957: 00 18                        	addb	%bl, (%rax)
     959: 00 00                        	addb	%al, (%rax)
     95b: 00 00                        	addb	%al, (%rax)
     95d: 00 00                        	addb	%al, (%rax)
     95f: 00 ee                        	addb	%ch, %dh
     961: 03 00                        	addl	(%rax), %eax
     963: 00 12                        	addb	%dl, (%rdx)
     965: 00 0d 00 e0 10 40            	addb	%cl, 1074847744(%rip)  # 4010e96b <_end+0x3fb0982b>
     96b: 00 00                        	addb	%al, (%rax)
     96d: 00 00                        	addb	%al, (%rax)
     96f: 00 19                        	addb	%bl, (%rcx)
     971: 00 00                        	addb	%al, (%rax)
     973: 00 00                        	addb	%al, (%rax)
     975: 00 00                        	addb	%al, (%rax)
     977: 00 fa                        	addb	%bh, %dl
     979: 03 00                        	addl	(%rax), %eax
     97b: 00 12                        	addb	%dl, (%rdx)
     97d: 02 0d 00 90 23 40            	addb	1076072448(%rip), %cl  # 40239983 <_end+0x3fc34843>
     983: 00 00                        	addb	%al, (%rax)
     985: 00 00                        	addb	%al, (%rax)
     987: 00 18                        	addb	%bl, (%rax)
     989: 00 00                        	addb	%al, (%rax)
     98b: 00 00                        	addb	%al, (%rax)
     98d: 00 00                        	addb	%al, (%rax)
     98f: 00 01                        	addb	%al, (%rcx)
     991: 04 00                        	addb	$0, %al
     993: 00 12                        	addb	%dl, (%rdx)
		...
     9a5: 00 00                        	addb	%al, (%rax)
     9a7: 00 33                        	addb	%dh, (%rbx)
     9a9: 07                           	<unknown>
     9aa: 00 00                        	addb	%al, (%rax)
     9ac: 12 00                        	adcb	(%rax), %al
     9ae: 0e                           	<unknown>
     9af: 00 a8 23 40 00 00            	addb	%ch, 16419(%rax)
		...
     9bd: 00 00                        	addb	%al, (%rax)
     9bf: 00 15 04 00 00 12            	addb	%dl, 301989892(%rip)  # 120009c9 <_end+0x119fb889>
		...
     9d5: 00 00                        	addb	%al, (%rax)
     9d7: 00 28                        	addb	%ch, (%rax)
     9d9: 04 00                        	addb	$0, %al
     9db: 00 11                        	addb	%dl, (%rcx)
     9dd: 00 18                        	addb	%bl, (%rax)
     9df: 00 b0 43 60 00 00            	addb	%dh, 24643(%rax)
     9e5: 00 00                        	addb	%al, (%rax)
     9e7: 00 08                        	addb	%cl, (%rax)
     9e9: 00 00                        	addb	%al, (%rax)
     9eb: 00 00                        	addb	%al, (%rax)
     9ed: 00 00                        	addb	%al, (%rax)
     9ef: 00 3b                        	addb	%bh, (%rbx)
     9f1: 04 00                        	addb	$0, %al
     9f3: 00 11                        	addb	%dl, (%rcx)
     9f5: 00 17                        	addb	%dl, (%rdi)
     9f7: 00 70 41                     	addb	%dh, 65(%rax)
     9fa: 60                           	<unknown>
     9fb: 00 00                        	addb	%al, (%rax)
     9fd: 00 00                        	addb	%al, (%rax)
     9ff: 00 18                        	addb	%bl, (%rax)
     a01: 00 00                        	addb	%al, (%rax)
     a03: 00 00                        	addb	%al, (%rax)
     a05: 00 00                        	addb	%al, (%rax)
     a07: 00 3f                        	addb	%bh, (%rdi)
     a09: 04 00                        	addb	$0, %al
     a0b: 00 12                        	addb	%dl, (%rdx)
		...
     a1d: 00 00                        	addb	%al, (%rax)
     a1f: 00 54 04 00                  	addb	%dl, (%rsp,%rax)
     a23: 00 11                        	addb	%dl, (%rcx)
     a25: 00 17                        	addb	%dl, (%rdi)
     a27: 00 90 41 60 00 00            	addb	%dl, 24641(%rax)
     a2d: 00 00                        	addb	%al, (%rax)
     a2f: 00 18                        	addb	%bl, (%rax)
     a31: 00 00                        	addb	%al, (%rax)
     a33: 00 00                        	addb	%al, (%rax)
     a35: 00 00                        	addb	%al, (%rax)
     a37: 00 58 04                     	addb	%bl, 4(%rax)
     a3a: 00 00                        	addb	%al, (%rax)
     a3c: 12 00                        	adcb	(%rax), %al
		...
     a4e: 00 00                        	addb	%al, (%rax)
     a50: 72 04                        	jb	0xa56 <.debug_info+0xa56>
     a52: 00 00                        	addb	%al, (%rax)
     a54: 11 00                        	adcl	%eax, (%rax)
     a56: 17                           	<unknown>
     a57: 00 10                        	addb	%dl, (%rax)
     a59: 42 60                        	<unknown>
     a5b: 00 00                        	addb	%al, (%rax)
     a5d: 00 00                        	addb	%al, (%rax)
     a5f: 00 18                        	addb	%bl, (%rax)
     a61: 00 00                        	addb	%al, (%rax)
     a63: 00 00                        	addb	%al, (%rax)
     a65: 00 00                        	addb	%al, (%rax)
     a67: 00 76 04                     	addb	%dh, 4(%rsi)
     a6a: 00 00                        	addb	%al, (%rax)
     a6c: 12 00                        	adcb	(%rax), %al
		...
     a7e: 00 00                        	addb	%al, (%rax)
     a80: 8a 04 00                     	movb	(%rax,%rax), %al
     a83: 00 12                        	addb	%dl, (%rdx)
     a85: 00 0d 00 40 21 40            	addb	%cl, 1075920896(%rip)  # 40214a8b <_end+0x3fc0f94b>
     a8b: 00 00                        	addb	%al, (%rax)
     a8d: 00 00                        	addb	%al, (%rax)
     a8f: 00 1e                        	addb	%bl, (%rsi)
     a91: 01 00                        	addl	%eax, (%rax)
     a93: 00 00                        	addb	%al, (%rax)
     a95: 00 00                        	addb	%al, (%rax)
     a97: 00 9c 04 00 00 12 00         	addb	%bl, 1179648(%rsp,%rax)
     a9e: 0d 00 d0 17 40               	orl	$1075302400, %eax
     aa3: 00 00                        	addb	%al, (%rax)
     aa5: 00 00                        	addb	%al, (%rax)
     aa7: 00 1d 00 00 00 00            	addb	%bl, (%rip)  # aad <.debug_info+0xaad>
     aad: 00 00                        	addb	%al, (%rax)
     aaf: 00 98 05 00 00 12            	addb	%bl, 301989893(%rax)
     ab5: 00 0d 00 40 0f 40            	addb	%cl, 1074741248(%rip)  # 400f4abb <_end+0x3faef97b>
     abb: 00 00                        	addb	%al, (%rax)
     abd: 00 00                        	addb	%al, (%rax)
     abf: 00 2b                        	addb	%ch, (%rbx)
     ac1: 00 00                        	addb	%al, (%rax)
     ac3: 00 00                        	addb	%al, (%rax)
     ac5: 00 00                        	addb	%al, (%rax)
     ac7: 00 b0 04 00 00 11            	addb	%dh, 285212676(%rax)
     acd: 00 18                        	addb	%bl, (%rax)
     acf: 00 80 50 60 00 00            	addb	%al, 24656(%rax)
		...
     add: 00 00                        	addb	%al, (%rax)
     adf: 00 bb 04 00 00 11            	addb	%bh, 285212676(%rbx)
     ae5: 00 17                        	addb	%dl, (%rdi)
     ae7: 00 60 43                     	addb	%ah, 67(%rax)
     aea: 60                           	<unknown>
     aeb: 00 00                        	addb	%al, (%rax)
     aed: 00 00                        	addb	%al, (%rax)
     aef: 00 10                        	addb	%dl, (%rax)
     af1: 00 00                        	addb	%al, (%rax)
     af3: 00 00                        	addb	%al, (%rax)
     af5: 00 00                        	addb	%al, (%rax)
     af7: 00 c1                        	addb	%al, %cl
     af9: 04 00                        	addb	$0, %al
     afb: 00 11                        	addb	%dl, (%rcx)
     afd: 00 17                        	addb	%dl, (%rdi)
     aff: 00 b0 41 60 00 00            	addb	%dh, 24641(%rax)
     b05: 00 00                        	addb	%al, (%rax)
     b07: 00 18                        	addb	%bl, (%rax)
     b09: 00 00                        	addb	%al, (%rax)
     b0b: 00 00                        	addb	%al, (%rax)
     b0d: 00 00                        	addb	%al, (%rax)
     b0f: 00 8d 06 00 00 12            	addb	%cl, 301989894(%rbp)
     b15: 00 0b                        	addb	%cl, (%rbx)
     b17: 00 a8 0b 40 00 00            	addb	%ch, 16395(%rax)
		...
     b25: 00 00                        	addb	%al, (%rax)
     b27: 00 c5                        	addb	%al, %ch
     b29: 04 00                        	addb	$0, %al
     b2b: 00 12                        	addb	%dl, (%rdx)
		...
     b3d: 00 00                        	addb	%al, (%rax)
     b3f: 00 e0                        	addb	%ah, %al
     b41: 04 00                        	addb	$0, %al
     b43: 00 11                        	addb	%dl, (%rcx)
     b45: 02 17                        	addb	(%rdi), %dl
     b47: 00 98 43 60 00 00            	addb	%bl, 24643(%rax)
		...
     b55: 00 00                        	addb	%al, (%rax)
     b57: 00 ec                        	addb	%ch, %ah
     b59: 04 00                        	addb	$0, %al
     b5b: 00 11                        	addb	%dl, (%rcx)
     b5d: 00 17                        	addb	%dl, (%rdi)
     b5f: 00 d0                        	addb	%dl, %al
     b61: 42 60                        	<unknown>
     b63: 00 00                        	addb	%al, (%rax)
     b65: 00 00                        	addb	%al, (%rax)
     b67: 00 18                        	addb	%bl, (%rax)
     b69: 00 00                        	addb	%al, (%rax)
     b6b: 00 00                        	addb	%al, (%rax)
     b6d: 00 00                        	addb	%al, (%rax)
     b6f: 00 f0                        	addb	%dh, %al
     b71: 04 00                        	addb	$0, %al
     b73: 00 12                        	addb	%dl, (%rdx)
		...
     b85: 00 00                        	addb	%al, (%rax)
     b87: 00 03                        	addb	%al, (%rbx)
     b89: 05 00 00 12 00               	addl	$1179648, %eax
		...
     b9e: 00 00                        	addb	%al, (%rax)
     ba0: 17                           	<unknown>
     ba1: 05 00 00 12 00               	addl	$1179648, %eax
     ba6: 0d 00 20 16 40               	orl	$1075191808, %eax
     bab: 00 00                        	addb	%al, (%rax)
     bad: 00 00                        	addb	%al, (%rax)
     baf: 00 3b                        	addb	%bh, (%rbx)
     bb1: 00 00                        	addb	%al, (%rax)
     bb3: 00 00                        	addb	%al, (%rax)
     bb5: 00 00                        	addb	%al, (%rax)
     bb7: 00 bc 06 00 00 12 00         	addb	%bh, 1179648(%rsi,%rax)
		...
     bce: 00 00                        	addb	%al, (%rax)
     bd0: 2f                           	<unknown>
     bd1: 05 00 00 12 00               	addl	$1179648, %eax
		...
     be6: 00 00                        	addb	%al, (%rax)
     be8: 48 05 00 00 12 00            	addq	$1179648, %rax
		...
     bfe: 00 00                        	addb	%al, (%rax)
     c00: 5f                           	popq	%rdi
     c01: 05 00 00 11 00               	addl	$1114112, %eax
     c06: 17                           	<unknown>
     c07: 00 50 43                     	addb	%dl, 67(%rax)
     c0a: 60                           	<unknown>
     c0b: 00 00                        	addb	%al, (%rax)
     c0d: 00 00                        	addb	%al, (%rax)
     c0f: 00 10                        	addb	%dl, (%rax)
     c11: 00 00                        	addb	%al, (%rax)
     c13: 00 00                        	addb	%al, (%rax)
     c15: 00 00                        	addb	%al, (%rax)
     c17: 00 65 05                     	addb	%ah, 5(%rbp)
     c1a: 00 00                        	addb	%al, (%rax)
     c1c: 11 00                        	adcl	%eax, (%rax)
     c1e: 18 00                        	sbbb	%al, (%rax)
     c20: c0 43 60 00                  	rolb	$0, 96(%rbx)
     c24: 00 00                        	addb	%al, (%rax)
     c26: 00 00                        	addb	%al, (%rax)
     c28: 08 00                        	orb	%al, (%rax)
     c2a: 00 00                        	addb	%al, (%rax)
     c2c: 00 00                        	addb	%al, (%rax)
     c2e: 00 00                        	addb	%al, (%rax)
     c30: 79 05                        	jns	0xc37 <.debug_info+0xc37>
     c32: 00 00                        	addb	%al, (%rax)
     c34: 12 00                        	adcb	(%rax), %al
     c36: 0d 00 60 22 40               	orl	$1075994624, %eax
     c3b: 00 00                        	addb	%al, (%rax)
     c3d: 00 00                        	addb	%al, (%rax)
     c3f: 00 b3 00 00 00 00            	addb	%dh, (%rbx)
     c45: 00 00                        	addb	%al, (%rax)
     c47: 00 92 05 00 00 10            	addb	%dl, 268435461(%rdx)
     c4d: 00 17                        	addb	%dl, (%rdi)
     c4f: 00 20                        	addb	%ah, (%rax)
     c51: 41 60                        	<unknown>
		...
     c5f: 00 8c 01 00 00 10 00         	addb	%cl, 1048576(%rcx,%rax)
     c66: 18 00                        	sbbb	%al, (%rax)
     c68: 40 51                        	pushq	%rcx
     c6a: 60                           	<unknown>
		...
     c77: 00 9f 05 00 00 12            	addb	%bl, 301989893(%rdi)
		...
     c8d: 00 00                        	addb	%al, (%rax)
     c8f: 00 b3 05 00 00 12            	addb	%dh, 301989893(%rbx)
		...
     ca5: 00 00                        	addb	%al, (%rax)
     ca7: 00 c7                        	addb	%al, %bh
     ca9: 05 00 00 11 00               	addl	$1114112, %eax
     cae: 17                           	<unknown>
     caf: 00 b0 42 60 00 00            	addb	%dh, 24642(%rax)
     cb5: 00 00                        	addb	%al, (%rax)
     cb7: 00 18                        	addb	%bl, (%rax)
     cb9: 00 00                        	addb	%al, (%rax)
     cbb: 00 00                        	addb	%al, (%rax)
     cbd: 00 00                        	addb	%al, (%rax)
     cbf: 00 cb                        	addb	%cl, %bl
     cc1: 05 00 00 12 00               	addl	$1179648, %eax
		...
     cd6: 00 00                        	addb	%al, (%rax)
     cd8: e0 05                        	loopne	0xcdf <.debug_info+0xcdf>
     cda: 00 00                        	addb	%al, (%rax)
     cdc: 12 00                        	adcb	(%rax), %al
		...
     cee: 00 00                        	addb	%al, (%rax)
     cf0: f2 05 00 00 12 00            	repne		addl	$1179648, %eax
     cf6: 0d 00 f0 17 40               	orl	$1075310592, %eax
     cfb: 00 00                        	addb	%al, (%rax)
     cfd: 00 00                        	addb	%al, (%rax)
     cff: 00 a2 00 00 00 00            	addb	%ah, (%rdx)
     d05: 00 00                        	addb	%al, (%rax)
     d07: 00 07                        	addb	%al, (%rdi)
     d09: 06                           	<unknown>
     d0a: 00 00                        	addb	%al, (%rax)
     d0c: 11 00                        	adcl	%eax, (%rax)
     d0e: 18 00                        	sbbb	%al, (%rax)
     d10: 00 44 60 00                  	addb	%al, (%rax,%riz,2)
     d14: 00 00                        	addb	%al, (%rax)
     d16: 00 00                        	addb	%al, (%rax)
     d18: 80 0c 00 00                  	orb	$0, (%rax,%rax)
     d1c: 00 00                        	addb	%al, (%rax)
     d1e: 00 00                        	addb	%al, (%rax)
     d20: 15 06 00 00 12               	adcl	$301989894, %eax
     d25: 00 0d 00 80 1c 40            	addb	%cl, 1075609600(%rip)  # 401c8d2b <_end+0x3fbc3beb>
     d2b: 00 00                        	addb	%al, (%rax)
     d2d: 00 00                        	addb	%al, (%rax)
     d2f: 00 7b 04                     	addb	%bh, 4(%rbx)
     d32: 00 00                        	addb	%al, (%rax)
     d34: 00 00                        	addb	%al, (%rax)
     d36: 00 00                        	addb	%al, (%rax)
     d38: 35 06 00 00 10               	xorl	$268435462, %eax
     d3d: 00 18                        	addb	%bl, (%rax)
     d3f: 00 98 43 60 00 00            	addb	%bl, 24643(%rax)
		...
     d4d: 00 00                        	addb	%al, (%rax)
     d4f: 00 41 06                     	addb	%al, 6(%rcx)
     d52: 00 00                        	addb	%al, (%rax)
     d54: 12 00                        	adcb	(%rax), %al
     d56: 0d 00 00 11 40               	orl	$1074855936, %eax
     d5b: 00 00                        	addb	%al, (%rax)
     d5d: 00 00                        	addb	%al, (%rax)
     d5f: 00 4f 00                     	addb	%cl, (%rdi)
     d62: 00 00                        	addb	%al, (%rax)
     d64: 00 00                        	addb	%al, (%rax)
     d66: 00 00                        	addb	%al, (%rax)
     d68: 55                           	pushq	%rbp
     d69: 06                           	<unknown>
     d6a: 00 00                        	addb	%al, (%rax)
     d6c: 12 00                        	adcb	(%rax), %al
     d6e: 0d 00 e0 18 40               	orl	$1075372032, %eax
     d73: 00 00                        	addb	%al, (%rax)
     d75: 00 00                        	addb	%al, (%rax)
     d77: 00 29                        	addb	%ch, (%rcx)
     d79: 01 00                        	addl	%eax, (%rax)
     d7b: 00 00                        	addb	%al, (%rax)
     d7d: 00 00                        	addb	%al, (%rax)
     d7f: 00 63 06                     	addb	%ah, 6(%rbx)
     d82: 00 00                        	addb	%al, (%rax)
     d84: 11 00                        	adcl	%eax, (%rax)
     d86: 17                           	<unknown>
     d87: 00 40 43                     	addb	%al, 67(%rax)
     d8a: 60                           	<unknown>
     d8b: 00 00                        	addb	%al, (%rax)
     d8d: 00 00                        	addb	%al, (%rax)
     d8f: 00 10                        	addb	%dl, (%rax)
     d91: 00 00                        	addb	%al, (%rax)
     d93: 00 00                        	addb	%al, (%rax)
     d95: 00 00                        	addb	%al, (%rax)
     d97: 00 69 06                     	addb	%ch, 6(%rcx)
     d9a: 00 00                        	addb	%al, (%rax)
     d9c: 11 00                        	adcl	%eax, (%rax)
     d9e: 17                           	<unknown>
     d9f: 00 50 41                     	addb	%dl, 65(%rax)
     da2: 60                           	<unknown>
     da3: 00 00                        	addb	%al, (%rax)
     da5: 00 00                        	addb	%al, (%rax)
     da7: 00 18                        	addb	%bl, (%rax)
     da9: 00 00                        	addb	%al, (%rax)
     dab: 00 00                        	addb	%al, (%rax)
     dad: 00 00                        	addb	%al, (%rax)
     daf: 00 6d 06                     	addb	%ch, 6(%rbp)
     db2: 00 00                        	addb	%al, (%rax)
     db4: 12 00                        	adcb	(%rax), %al
		...
     dc6: 00 00                        	addb	%al, (%rax)
     dc8: 7f 06                        	jg	0xdd0 <.debug_info+0xdd0>
     dca: 00 00                        	addb	%al, (%rax)
     dcc: 11 00                        	adcl	%eax, (%rax)
     dce: 17                           	<unknown>
     dcf: 00 d0                        	addb	%dl, %al
     dd1: 41 60                        	<unknown>
     dd3: 00 00                        	addb	%al, (%rax)
     dd5: 00 00                        	addb	%al, (%rax)
     dd7: 00 18                        	addb	%bl, (%rax)
     dd9: 00 00                        	addb	%al, (%rax)
     ddb: 00 00                        	addb	%al, (%rax)
     ddd: 00 00                        	addb	%al, (%rax)
     ddf: 00 83 06 00 00 12            	addb	%al, 301989894(%rbx)
     de5: 00 0d 00 20 23 40            	addb	%cl, 1076043776(%rip)  # 40232deb <_end+0x3fc2dcab>
     deb: 00 00                        	addb	%al, (%rax)
     ded: 00 00                        	addb	%al, (%rax)
     def: 00 5d 00                     	addb	%bl, (%rbp)
     df2: 00 00                        	addb	%al, (%rax)
     df4: 00 00                        	addb	%al, (%rax)
     df6: 00 00                        	addb	%al, (%rax)
     df8: 93                           	xchgl	%ebx, %eax
     df9: 06                           	<unknown>
     dfa: 00 00                        	addb	%al, (%rax)
     dfc: 12 00                        	adcb	(%rax), %al
		...
     e0e: 00 00                        	addb	%al, (%rax)
     e10: a6                           	cmpsb	%es:(%rdi), (%rsi)
     e11: 06                           	<unknown>
     e12: 00 00                        	addb	%al, (%rax)
     e14: 12 00                        	adcb	(%rax), %al
		...
     e26: 00 00                        	addb	%al, (%rax)
     e28: bb 06 00 00 12               	movl	$301989894, %ebx
		...
     e3d: 00 00                        	addb	%al, (%rax)
     e3f: 00 ce                        	addb	%cl, %dh
     e41: 06                           	<unknown>
     e42: 00 00                        	addb	%al, (%rax)
     e44: 12 00                        	adcb	(%rax), %al
     e46: 0d 00 b0 18 40               	orl	$1075359744, %eax
     e4b: 00 00                        	addb	%al, (%rax)
     e4d: 00 00                        	addb	%al, (%rax)
     e4f: 00 30                        	addb	%dh, (%rax)
     e51: 00 00                        	addb	%al, (%rax)
     e53: 00 00                        	addb	%al, (%rax)
     e55: 00 00                        	addb	%al, (%rax)
     e57: 00 df                        	addb	%bl, %bh
     e59: 06                           	<unknown>
     e5a: 00 00                        	addb	%al, (%rax)
     e5c: 11 00                        	adcl	%eax, (%rax)
     e5e: 17                           	<unknown>
     e5f: 00 70 42                     	addb	%dh, 66(%rax)
     e62: 60                           	<unknown>
     e63: 00 00                        	addb	%al, (%rax)
     e65: 00 00                        	addb	%al, (%rax)
     e67: 00 18                        	addb	%bl, (%rax)
     e69: 00 00                        	addb	%al, (%rax)
     e6b: 00 00                        	addb	%al, (%rax)
     e6d: 00 00                        	addb	%al, (%rax)
     e6f: 00 e3                        	addb	%ah, %bl
     e71: 06                           	<unknown>
     e72: 00 00                        	addb	%al, (%rax)
     e74: 12 00                        	adcb	(%rax), %al
     e76: 0d 00 50 10 40               	orl	$1074810880, %eax
     e7b: 00 00                        	addb	%al, (%rax)
     e7d: 00 00                        	addb	%al, (%rax)
     e7f: 00 3d 00 00 00 00            	addb	%bh, (%rip)  # e85 <.debug_info+0xe85>
     e85: 00 00                        	addb	%al, (%rax)
     e87: 00 ef                        	addb	%ch, %bh
     e89: 06                           	<unknown>
     e8a: 00 00                        	addb	%al, (%rax)
     e8c: 12 00                        	adcb	(%rax), %al
     e8e: 0d 00 c0 14 40               	orl	$1075101696, %eax
     e93: 00 00                        	addb	%al, (%rax)
     e95: 00 00                        	addb	%al, (%rax)
     e97: 00 6f 00                     	addb	%ch, (%rdi)
     e9a: 00 00                        	addb	%al, (%rax)
     e9c: 00 00                        	addb	%al, (%rax)
     e9e: 00 00                        	addb	%al, (%rax)
     ea0: fb                           	sti
     ea1: 06                           	<unknown>
     ea2: 00 00                        	addb	%al, (%rax)
     ea4: 11 00                        	adcl	%eax, (%rax)
     ea6: 17                           	<unknown>
     ea7: 00 30                        	addb	%dh, (%rax)
     ea9: 43 60                        	<unknown>
     eab: 00 00                        	addb	%al, (%rax)
     ead: 00 00                        	addb	%al, (%rax)
     eaf: 00 10                        	addb	%dl, (%rax)
     eb1: 00 00                        	addb	%al, (%rax)
     eb3: 00 00                        	addb	%al, (%rax)
     eb5: 00 00                        	addb	%al, (%rax)
     eb7: 00 01                        	addb	%al, (%rcx)
     eb9: 07                           	<unknown>
     eba: 00 00                        	addb	%al, (%rax)
     ebc: 12 00                        	adcb	(%rax), %al
     ebe: 0d 00 d0 1a 40               	orl	$1075499008, %eax
     ec3: 00 00                        	addb	%al, (%rax)
     ec5: 00 00                        	addb	%al, (%rax)
     ec7: 00 33                        	addb	%dh, (%rbx)
     ec9: 00 00                        	addb	%al, (%rax)
     ecb: 00 00                        	addb	%al, (%rax)
     ecd: 00 00                        	addb	%al, (%rax)
     ecf: 00 13                        	addb	%dl, (%rbx)
     ed1: 07                           	<unknown>
     ed2: 00 00                        	addb	%al, (%rax)
     ed4: 11 00                        	adcl	%eax, (%rax)
     ed6: 17                           	<unknown>
     ed7: 00 30                        	addb	%dh, (%rax)
     ed9: 41 60                        	<unknown>
     edb: 00 00                        	addb	%al, (%rax)
     edd: 00 00                        	addb	%al, (%rax)
     edf: 00 18                        	addb	%bl, (%rax)
     ee1: 00 00                        	addb	%al, (%rax)
     ee3: 00 00                        	addb	%al, (%rax)
     ee5: 00 00                        	addb	%al, (%rax)
     ee7: 00 16                        	addb	%dl, (%rsi)
     ee9: 07                           	<unknown>
     eea: 00 00                        	addb	%al, (%rax)
     eec: 12 00                        	adcb	(%rax), %al
     eee: 0d 00 50 1b 40               	orl	$1075531776, %eax
     ef3: 00 00                        	addb	%al, (%rax)
     ef5: 00 00                        	addb	%al, (%rax)
     ef7: 00 17                        	addb	%dl, (%rdi)
     ef9: 00 00                        	addb	%al, (%rax)
     efb: 00 00                        	addb	%al, (%rax)
     efd: 00 00                        	addb	%al, (%rax)
     eff: 00 29                        	addb	%ch, (%rcx)
     f01: 07                           	<unknown>
     f02: 00 00                        	addb	%al, (%rax)
     f04: 12 00                        	adcb	(%rax), %al
     f06: 0d 00 80 23 40               	orl	$1076068352, %eax
     f0b: 00 00                        	addb	%al, (%rax)
     f0d: 00 00                        	addb	%al, (%rax)
     f0f: 00 02                        	addb	%al, (%rdx)
     f11: 00 00                        	addb	%al, (%rax)
     f13: 00 00                        	addb	%al, (%rax)
     f15: 00 00                        	addb	%al, (%rax)
     f17: 00 39                        	addb	%bh, (%rcx)
     f19: 07                           	<unknown>
     f1a: 00 00                        	addb	%al, (%rax)
     f1c: 12 00                        	adcb	(%rax), %al
     f1e: 0d 00 a0 13 40               	orl	$1075027968, %eax
     f23: 00 00                        	addb	%al, (%rax)
     f25: 00 00                        	addb	%al, (%rax)
     f27: 00 41 00                     	addb	%al, (%rcx)
     f2a: 00 00                        	addb	%al, (%rax)
     f2c: 00 00                        	addb	%al, (%rax)
     f2e: 00 00                        	addb	%al, (%rax)
     f30: 51                           	pushq	%rcx
     f31: 07                           	<unknown>
     f32: 00 00                        	addb	%al, (%rax)
     f34: 11 00                        	adcl	%eax, (%rax)
     f36: 17                           	<unknown>
     f37: 00 70 43                     	addb	%dh, 67(%rax)
     f3a: 60                           	<unknown>
     f3b: 00 00                        	addb	%al, (%rax)
     f3d: 00 00                        	addb	%al, (%rax)
     f3f: 00 15 00 00 00 00            	addb	%dl, (%rip)  # f45 <.debug_info+0xf45>
     f45: 00 00                        	addb	%al, (%rax)
     f47: 00 5f 07                     	addb	%bl, 7(%rdi)
     f4a: 00 00                        	addb	%al, (%rax)
     f4c: 12 00                        	adcb	(%rax), %al
		...
     f5e: 00 00                        	addb	%al, (%rax)
     f60: 7e 07                        	jle	0xf69 <.debug_info+0xf69>
     f62: 00 00                        	addb	%al, (%rax)
     f64: 12 00                        	adcb	(%rax), %al
     f66: 0d 00 10 1b 40               	orl	$1075515392, %eax
     f6b: 00 00                        	addb	%al, (%rax)
     f6d: 00 00                        	addb	%al, (%rax)
     f6f: 00 37                        	addb	%dh, (%rdi)
     f71: 00 00                        	addb	%al, (%rax)
     f73: 00 00                        	addb	%al, (%rax)
     f75: 00 00                        	addb	%al, (%rax)
     f77: 00 98 07 00 00 12            	addb	%bl, 301989895(%rax)
     f7d: 00 0d 00 b0 17 40            	addb	%cl, 1075294208(%rip)  # 4017bf83 <_end+0x3fb76e43>
     f83: 00 00                        	addb	%al, (%rax)
     f85: 00 00                        	addb	%al, (%rax)
     f87: 00 15 00 00 00 00            	addb	%dl, (%rip)  # f8d <.debug_info+0xf8d>
     f8d: 00 00                        	addb	%al, (%rax)
     f8f: 00 9e 07 00 00 11            	addb	%bl, 285212679(%rsi)
     f95: 00 17                        	addb	%dl, (%rdi)
     f97: 00 30                        	addb	%dh, (%rax)
     f99: 42 60                        	<unknown>
     f9b: 00 00                        	addb	%al, (%rax)
     f9d: 00 00                        	addb	%al, (%rax)
     f9f: 00 18                        	addb	%bl, (%rax)
     fa1: 00 00                        	addb	%al, (%rax)
     fa3: 00 00                        	addb	%al, (%rax)
     fa5: 00 00                        	addb	%al, (%rax)
     fa7: 00 a2 07 00 00 20            	addb	%ah, 536870919(%rdx)
		...
     fbd: 00 00                        	addb	%al, (%rax)
     fbf: 00 b1 07 00 00 12            	addb	%dh, 301989895(%rcx)
		...
     fd5: 00 00                        	addb	%al, (%rax)
     fd7: 00 c4                        	addb	%al, %ah
     fd9: 07                           	<unknown>
     fda: 00 00                        	addb	%al, (%rax)
     fdc: 12 00                        	adcb	(%rax), %al
     fde: 0d 00 10 1a 40               	orl	$1075449856, %eax
     fe3: 00 00                        	addb	%al, (%rax)
     fe5: 00 00                        	addb	%al, (%rax)
     fe7: 00 b7 00 00 00 00            	addb	%dh, (%rdi)
     fed: 00 00                        	addb	%al, (%rax)
     fef: 00 d1                        	addb	%dl, %cl
     ff1: 07                           	<unknown>
     ff2: 00 00                        	addb	%al, (%rax)
     ff4: 12 00                        	adcb	(%rax), %al
		...
    1006: 00 00                        	addb	%al, (%rax)

Disassembly of section .strtab:

0000000000000000 <.strtab>:
       0: 00 62 6f                     	addb	%ah, 111(%rdx)
       3: 6d                           	insl	%dx, %es:(%rdi)
       4: 62                           	<unknown>
       5: 2e 63 63 00                  	movslq	%cs:(%rbx), %esp
       9: 5f                           	popq	%rdi
       a: 47 4c                        	<unknown>
       c: 4f 42                        	<unknown>
       e: 41 4c                        	<unknown>
      10: 5f                           	popq	%rdi
      11: 5f                           	popq	%rdi
      12: 73 75                        	jae	0x89 <.debug_info+0x89>
      14: 62                           	<unknown>
      15: 5f                           	popq	%rdi
      16: 49 5f                        	popq	%r15
      18: 69 6e 66 69 6c 65 00         	imull	$6646889, 102(%rsi), %ebp
      1f: 63 72 74                     	movslq	116(%rdx), %esi
      22: 73 74                        	jae	0x98 <.debug_info+0x98>
      24: 75 66                        	jne	0x8c <.debug_info+0x8c>
      26: 66 2e 63 00                  	movslq	%cs:(%rax), %ax
      2a: 64 65 72 65                  	jb	0x93 <.debug_info+0x93>
      2e: 67 69 73 74 65 72 5f 74      	imull	$1952412261, 116(%ebx), %esi
      36: 6d                           	insl	%dx, %es:(%rdi)
      37: 5f                           	popq	%rdi
      38: 63 6c 6f 6e                  	movslq	110(%rdi,%rbp,2), %ebp
      3c: 65 73 00                     	jae	0x3f <.debug_info+0x3f>
      3f: 5f                           	popq	%rdi
      40: 5f                           	popq	%rdi
      41: 64 6f                        	outsl	%fs:(%rsi), %dx
      43: 5f                           	popq	%rdi
      44: 67 6c                        	insb	%dx, %es:(%edi)
      46: 6f                           	outsl	(%rsi), %dx
      47: 62 61 6c 5f 64               	<unknown>
      4c: 74 6f                        	je	0xbd <.debug_info+0xbd>
      4e: 72 73                        	jb	0xc3 <.debug_info+0xc3>
      50: 5f                           	popq	%rdi
      51: 61                           	<unknown>
      52: 75 78                        	jne	0xcc <.debug_info+0xcc>
      54: 00 63 6f                     	addb	%ah, 111(%rbx)
      57: 6d                           	insl	%dx, %es:(%rdi)
      58: 70 6c                        	jo	0xc6 <.debug_info+0xc6>
      5a: 65 74 65                     	je	0xc2 <.debug_info+0xc2>
      5d: 64 2e 30 00                  	xorb	%al, %cs:(%rax)
      61: 5f                           	popq	%rdi
      62: 5f                           	popq	%rdi
      63: 64 6f                        	outsl	%fs:(%rsi), %dx
      65: 5f                           	popq	%rdi
      66: 67 6c                        	insb	%dx, %es:(%edi)
      68: 6f                           	outsl	(%rsi), %dx
      69: 62 61 6c 5f 64               	<unknown>
      6e: 74 6f                        	je	0xdf <.debug_info+0xdf>
      70: 72 73                        	jb	0xe5 <.debug_info+0xe5>
      72: 5f                           	popq	%rdi
      73: 61                           	<unknown>
      74: 75 78                        	jne	0xee <.debug_info+0xee>
      76: 5f                           	popq	%rdi
      77: 66 69 6e 69 5f 61            	imulw	$24927, 105(%rsi), %bp
      7d: 72 72                        	jb	0xf1 <.debug_info+0xf1>
      7f: 61                           	<unknown>
      80: 79 5f                        	jns	0xe1 <.debug_info+0xe1>
      82: 65 6e                        	outsb	%gs:(%rsi), %dx
      84: 74 72                        	je	0xf8 <.debug_info+0xf8>
      86: 79 00                        	jns	0x88 <.debug_info+0x88>
      88: 66 72 61                     	jb	0xec <.debug_info+0xec>
      8b: 6d                           	insl	%dx, %es:(%rdi)
      8c: 65 5f                        	popq	%rdi
      8e: 64 75 6d                     	jne	0xfe <.debug_info+0xfe>
      91: 6d                           	insl	%dx, %es:(%rdi)
      92: 79 00                        	jns	0x94 <.debug_info+0x94>
      94: 5f                           	popq	%rdi
      95: 5f                           	popq	%rdi
      96: 66 72 61                     	jb	0xfa <.debug_info+0xfa>
      99: 6d                           	insl	%dx, %es:(%rdi)
      9a: 65 5f                        	popq	%rdi
      9c: 64 75 6d                     	jne	0x10c <.debug_info+0x10c>
      9f: 6d                           	insl	%dx, %es:(%rdi)
      a0: 79 5f                        	jns	0x101 <.debug_info+0x101>
      a2: 69 6e 69 74 5f 61 72         	imull	$1918984052, 105(%rsi), %ebp
      a9: 72 61                        	jb	0x10c <.debug_info+0x10c>
      ab: 79 5f                        	jns	0x10c <.debug_info+0x10c>
      ad: 65 6e                        	outsb	%gs:(%rsi), %dx
      af: 74 72                        	je	0x123 <.debug_info+0x123>
      b1: 79 00                        	jns	0xb3 <.debug_info+0xb3>
      b3: 70 68                        	jo	0x11d <.debug_info+0x11d>
      b5: 61                           	<unknown>
      b6: 73 65                        	jae	0x11d <.debug_info+0x11d>
      b8: 73 2e                        	jae	0xe8 <.debug_info+0xe8>
      ba: 63 63 00                     	movslq	(%rbx), %esp
      bd: 43 53                        	pushq	%r11
      bf: 57                           	pushq	%rdi
      c0: 54                           	pushq	%rsp
      c1: 43 48                        	rex64
      c3: 2e 31 33                     	xorl	%esi, %cs:(%rbx)
      c6: 00 43 53                     	addb	%al, 83(%rbx)
      c9: 57                           	pushq	%rdi
      ca: 54                           	pushq	%rsp
      cb: 43 48                        	rex64
      cd: 2e 31 34 00                  	xorl	%esi, %cs:(%rax,%rax)
      d1: 5f                           	popq	%rdi
      d2: 5a                           	popq	%rdx
      d3: 4c 36                        	ss
      d5: 66 74 61                     	je	0x139 <.debug_info+0x139>
      d8: 62                           	<unknown>
      d9: 6c                           	insb	%dx, %es:(%rdi)
      da: 65 00 73 75                  	addb	%dh, %gs:117(%rbx)
      de: 70 70                        	jo	0x150 <.debug_info+0x150>
      e0: 6f                           	outsl	(%rsi), %dx
      e1: 72 74                        	jb	0x157 <.debug_info+0x157>
      e3: 2e 63 63 00                  	movslq	%cs:(%rbx), %esp
      e7: 5f                           	popq	%rdi
      e8: 5a                           	popq	%rdx
      e9: 4c 31 31                     	xorq	%r14, (%rcx)
      ec: 73 69                        	jae	0x157 <.debug_info+0x157>
      ee: 67 5f                        	popq	%rdi
      f0: 68 61 6e 64 6c               	pushq	$1818521185
      f5: 65 72 69                     	jb	0x161 <.debug_info+0x161>
      f8: 00 5f 5a                     	addb	%bl, 90(%rdi)
      fb: 31 65 76                     	xorl	%esp, 118(%rbp)
      fe: 2e 70 61                     	jo	0x162 <.debug_info+0x162>
     101: 72 74                        	jb	0x177 <.debug_info+0x177>
     103: 2e 30 00                     	xorb	%al, %cs:(%rax)
     106: 5f                           	popq	%rdi
     107: 5a                           	popq	%rdx
     108: 4c 32 30                     	xorb	(%rax), %r14b
     10b: 63 75 72                     	movslq	114(%rbp), %esi
     10e: 72 65                        	jb	0x175 <.debug_info+0x175>
     110: 6e                           	outsb	(%rsi), %dx
     111: 74 5f                        	je	0x172 <.debug_info+0x172>
     113: 69 6e 70 75 74 5f 73         	imull	$1935635573, 112(%rsi), %ebp
     11a: 74 72                        	je	0x18e <.debug_info+0x18e>
     11c: 69 6e 67 00 64 72 69         	imull	$1769104384, 103(%rsi), %ebp
     123: 76 65                        	jbe	0x18a <.debug_info+0x18a>
     125: 72 6c                        	jb	0x193 <.debug_info+0x193>
     127: 69 62 2e 63 63 00 5f         	imull	$1593860963, 46(%rdx), %esp
     12e: 5a                           	popq	%rdx
     12f: 4c 31 33                     	xorq	%r14, (%rbx)
     132: 72 69                        	jb	0x19d <.debug_info+0x19d>
     134: 6f                           	outsl	(%rsi), %dx
     135: 5f                           	popq	%rdi
     136: 72 65                        	jb	0x19d <.debug_info+0x19d>
     138: 61                           	<unknown>
     139: 64 6c                        	insb	%dx, %es:(%rdi)
     13b: 69 6e 65 62 50 35 72         	imull	$1916096610, 101(%rsi), %ebp
     142: 69 6f 5f 74 50 76 6d         	imull	$1836470388, 95(%rdi), %ebp
     149: 2e 63 6f 6e                  	movslq	%cs:110(%rdi), %ebp
     14d: 73 74                        	jae	0x1c3 <.debug_info+0x1c3>
     14f: 70 72                        	jo	0x1c3 <.debug_info+0x1c3>
     151: 6f                           	outsl	(%rsi), %dx
     152: 70 2e                        	jo	0x182 <.debug_info+0x182>
     154: 30 00                        	xorb	%al, (%rax)
     156: 5f                           	popq	%rdi
     157: 5f                           	popq	%rdi
     158: 46 52                        	pushq	%rdx
     15a: 41 4d                        	<unknown>
     15c: 45 5f                        	popq	%r15
     15e: 45 4e                        	<unknown>
     160: 44 5f                        	popq	%rdi
     162: 5f                           	popq	%rdi
     163: 00 5f 5f                     	addb	%bl, 95(%rdi)
     166: 47 4e                        	<unknown>
     168: 55                           	pushq	%rbp
     169: 5f                           	popq	%rdi
     16a: 45 48                        	rex64
     16c: 5f                           	popq	%rdi
     16d: 46 52                        	pushq	%rdx
     16f: 41 4d                        	<unknown>
     171: 45 5f                        	popq	%r15
     173: 48 44                        	<unknown>
     175: 52                           	pushq	%rdx
     176: 00 5f 44                     	addb	%bl, 68(%rdi)
     179: 59                           	popq	%rcx
     17a: 4e 41                        	<unknown>
     17c: 4d 49                        	<unknown>
     17e: 43 00 5f 5f                  	addb	%bl, 95(%r15)
     182: 69 6e 69 74 5f 61 72         	imull	$1918984052, 105(%rsi), %ebp
     189: 72 61                        	jb	0x1ec <.debug_info+0x1ec>
     18b: 79 5f                        	jns	0x1ec <.debug_info+0x1ec>
     18d: 65 6e                        	outsb	%gs:(%rsi), %dx
     18f: 64 00 5f 5f                  	addb	%bl, %fs:95(%rdi)
     193: 69 6e 69 74 5f 61 72         	imull	$1918984052, 105(%rsi), %ebp
     19a: 72 61                        	jb	0x1fd <.debug_info+0x1fd>
     19c: 79 5f                        	jns	0x1fd <.debug_info+0x1fd>
     19e: 73 74                        	jae	0x214 <.debug_info+0x214>
     1a0: 61                           	<unknown>
     1a1: 72 74                        	jb	0x217 <.debug_info+0x217>
     1a3: 00 5f 47                     	addb	%bl, 71(%rdi)
     1a6: 4c 4f                        	<unknown>
     1a8: 42 41                        	<unknown>
     1aa: 4c 5f                        	popq	%rdi
     1ac: 4f 46                        	<unknown>
     1ae: 46 53                        	pushq	%rbx
     1b0: 45 54                        	pushq	%r12
     1b2: 5f                           	popq	%rdi
     1b3: 54                           	pushq	%rsp
     1b4: 41 42                        	<unknown>
     1b6: 4c 45                        	<unknown>
     1b8: 5f                           	popq	%rdi
     1b9: 00 6e 6f                     	addb	%ch, 111(%rsi)
     1bc: 64 65 32 00                  	xorb	%gs:(%rax), %al
     1c0: 73 65                        	jae	0x227 <.debug_info+0x227>
     1c2: 74 76                        	je	0x23a <.debug_info+0x23a>
     1c4: 62                           	<unknown>
     1c5: 75 66                        	jne	0x22d <.debug_info+0x22d>
     1c7: 40 40                        	<unknown>
     1c9: 47 4c                        	<unknown>
     1cb: 49 42                        	<unknown>
     1cd: 43 5f                        	popq	%r15
     1cf: 32 2e                        	xorb	(%rsi), %ch
     1d1: 32 2e                        	xorb	(%rsi), %ch
     1d3: 35 00 5f 5f 65               	xorl	$1700749056, %eax
     1d8: 72 72                        	jb	0x24c <.debug_info+0x24c>
     1da: 6e                           	outsb	(%rsi), %dx
     1db: 6f                           	outsl	(%rsi), %dx
     1dc: 5f                           	popq	%rdi
     1dd: 6c                           	insb	%dx, %es:(%rdi)
     1de: 6f                           	outsl	(%rsi), %dx
     1df: 63 61 74                     	movslq	116(%rcx), %esp
     1e2: 69 6f 6e 40 40 47 4c         	imull	$1279737920, 110(%rdi), %ebp
     1e9: 49 42                        	<unknown>
     1eb: 43 5f                        	popq	%r15
     1ed: 32 2e                        	xorb	(%rsi), %ch
     1ef: 32 2e                        	xorb	(%rsi), %ch
     1f1: 35 00 5f 5a 31               	xorl	$828006144, %eax
     1f6: 38 70 68                     	cmpb	%dh, 104(%rax)
     1f9: 61                           	<unknown>
     1fa: 73 65                        	jae	0x261 <.debug_info+0x261>
     1fc: 35 5f 77 6f 72               	xorl	$1919907679, %eax
     201: 64 31 5f 77                  	xorl	%ebx, %fs:119(%rdi)
     205: 6f                           	outsl	(%rsi), %dx
     206: 72 64                        	jb	0x26c <.debug_info+0x26c>
     208: 32 50 4b                     	xorb	75(%rax), %dl
     20b: 63 53 30                     	movslq	48(%rbx), %edx
     20e: 5f                           	popq	%rdi
     20f: 00 69 73                     	addb	%ch, 115(%rcx)
     212: 73 70                        	jae	0x284 <.debug_info+0x284>
     214: 61                           	<unknown>
     215: 63 65 40                     	movslq	64(%rbp), %esp
     218: 40 47                        	<unknown>
     21a: 4c 49                        	<unknown>
     21c: 42 43                        	<unknown>
     21e: 5f                           	popq	%rdi
     21f: 32 2e                        	xorb	(%rsi), %ch
     221: 32 2e                        	xorb	(%rsi), %ch
     223: 35 00 73 74 64               	xorl	$1685353216, %eax
     228: 6f                           	outsl	(%rsi), %dx
     229: 75 74                        	jne	0x29f <.debug_info+0x29f>
     22b: 40 40                        	<unknown>
     22d: 47 4c                        	<unknown>
     22f: 49 42                        	<unknown>
     231: 43 5f                        	popq	%r15
     233: 32 2e                        	xorb	(%rsi), %ch
     235: 32 2e                        	xorb	(%rsi), %ch
     237: 35 00 62 6f 6d               	xorl	$1836016128, %eax
     23c: 62                           	<unknown>
     23d: 5f                           	popq	%rdi
     23e: 69 64 00 5f 5a 36 70 68      	imull	$1752184410, 95(%rax,%rax), %esp
     246: 61                           	<unknown>
     247: 73 65                        	jae	0x2ae <.debug_info+0x2ae>
     249: 31 50 63                     	xorl	%edx, 99(%rax)
     24c: 00 73 70                     	addb	%dh, 112(%rbx)
     24f: 72 69                        	jb	0x2ba <.debug_info+0x2ba>
     251: 6e                           	outsb	(%rsi), %dx
     252: 74 66                        	je	0x2ba <.debug_info+0x2ba>
     254: 40 40                        	<unknown>
     256: 47 4c                        	<unknown>
     258: 49 42                        	<unknown>
     25a: 43 5f                        	popq	%r15
     25c: 32 2e                        	xorb	(%rsi), %ch
     25e: 32 2e                        	xorb	(%rsi), %ch
     260: 35 00 5f 5a 36               	xorl	$911892224, %eax
     265: 70 68                        	jo	0x2cf <.debug_info+0x2cf>
     267: 61                           	<unknown>
     268: 73 65                        	jae	0x2cf <.debug_info+0x2cf>
     26a: 35 50 63 00 6e               	xorl	$1845519184, %eax
     26f: 34 32                        	xorb	$50, %al
     271: 00 5f 5a                     	addb	%bl, 90(%rdi)
     274: 36 70 68                     	jo	0x2df <.debug_info+0x2df>
     277: 61                           	<unknown>
     278: 73 65                        	jae	0x2df <.debug_info+0x2df>
     27a: 33 50 63                     	xorl	99(%rax), %edx
     27d: 00 5f 5a                     	addb	%bl, 90(%rdi)
     280: 31 32                        	xorl	%esi, (%rdx)
     282: 70 68                        	jo	0x2ec <.debug_info+0x2ec>
     284: 61                           	<unknown>
     285: 73 65                        	jae	0x2ec <.debug_info+0x2ec>
     287: 35 5f 77 6f 72               	xorl	$1919907679, %eax
     28c: 64 32 50 4b                  	xorb	%fs:75(%rax), %dl
     290: 63 6d 00                     	movslq	(%rbp), %ebp
     293: 5f                           	popq	%rdi
     294: 65 64 61                     	<unknown>
     297: 74 61                        	je	0x2fa <.debug_info+0x2fa>
     299: 00 73 6f                     	addb	%dh, 111(%rbx)
     29c: 63 6b 65                     	movslq	101(%rbx), %ebp
     29f: 74 40                        	je	0x2e1 <.debug_info+0x2e1>
     2a1: 40 47                        	<unknown>
     2a3: 4c 49                        	<unknown>
     2a5: 42 43                        	<unknown>
     2a7: 5f                           	popq	%rdi
     2a8: 32 2e                        	xorb	(%rsi), %ch
     2aa: 32 2e                        	xorb	(%rsi), %ch
     2ac: 35 00 5f 5a 36               	xorl	$911892224, %eax
     2b1: 70 68                        	jo	0x31b <.debug_info+0x31b>
     2b3: 61                           	<unknown>
     2b4: 73 65                        	jae	0x31b <.debug_info+0x31b>
     2b6: 37                           	<unknown>
     2b7: 50                           	pushq	%rax
     2b8: 63 00                        	movslq	(%rax), %eax
     2ba: 6e                           	outsb	(%rsi), %dx
     2bb: 64 65 66 75 73               	jne	0x333 <.debug_info+0x333>
     2c0: 65 64 00 5f 5a               	addb	%bl, %fs:90(%rdi)
     2c5: 31 35 73 69 67 61            	xorl	%esi, 1634167155(%rip)  # 61676c3e <_end+0x61071afe>
     2cb: 6c                           	insb	%dx, %es:(%rdi)
     2cc: 72 6d                        	jb	0x33b <.debug_info+0x33b>
     2ce: 5f                           	popq	%rdi
     2cf: 68 61 6e 64 6c               	pushq	$1818521185
     2d4: 65 72 69                     	jb	0x340 <.debug_info+0x340>
     2d7: 00 73 74                     	addb	%dh, 116(%rbx)
     2da: 72 74                        	jb	0x350 <.debug_info+0x350>
     2dc: 6f                           	outsl	(%rsi), %dx
     2dd: 75 6c                        	jne	0x34b <.debug_info+0x34b>
     2df: 40 40                        	<unknown>
     2e1: 47 4c                        	<unknown>
     2e3: 49 42                        	<unknown>
     2e5: 43 5f                        	popq	%r15
     2e7: 32 2e                        	xorb	(%rsi), %ch
     2e9: 32 2e                        	xorb	(%rsi), %ch
     2eb: 35 00 6e 6f 64               	xorl	$1685024256, %eax
     2f0: 65 31 00                     	xorl	%eax, %gs:(%rax)
     2f3: 5f                           	popq	%rdi
     2f4: 5a                           	popq	%rdx
     2f5: 31 32                        	xorl	%esi, (%rdx)
     2f7: 73 65                        	jae	0x35e <.debug_info+0x35e>
     2f9: 63 72 65                     	movslq	101(%rdx), %esi
     2fc: 74 5f                        	je	0x35d <.debug_info+0x35d>
     2fe: 70 68                        	jo	0x368 <.debug_info+0x368>
     300: 61                           	<unknown>
     301: 73 65                        	jae	0x368 <.debug_info+0x368>
     303: 76 00                        	jbe	0x305 <.debug_info+0x305>
     305: 5f                           	popq	%rdi
     306: 5a                           	popq	%rdx
     307: 31 30                        	xorl	%esi, (%rax)
     309: 63 61 6c                     	movslq	108(%rcx), %esp
     30c: 63 36                        	movslq	(%rsi), %esi
     30e: 5f                           	popq	%rdi
     30f: 65 78 70                     	js	0x382 <.debug_info+0x382>
     312: 72 50                        	jb	0x364 <.debug_info+0x364>
     314: 63 50 35                     	movslq	53(%rax), %edx
     317: 63 61 6c                     	movslq	108(%rcx), %esp
     31a: 63 36                        	movslq	(%rsi), %esi
     31c: 00 5f 49                     	addb	%bl, 73(%rdi)
     31f: 4f 5f                        	popq	%r15
     321: 73 74                        	jae	0x397 <.debug_info+0x397>
     323: 64 69 6e 5f 75 73 65 64      	imull	$1684370293, %fs:95(%rsi), %ebp
     32b: 00 77 72                     	addb	%dh, 114(%rdi)
     32e: 69 74 65 40 40 47 4c 49      	imull	$1229735744, 64(%rbp,%riz,2), %esi
     336: 42 43                        	<unknown>
     338: 5f                           	popq	%rdi
     339: 32 2e                        	xorb	(%rsi), %ch
     33b: 32 2e                        	xorb	(%rsi), %ch
     33d: 35 00 6e 33 34               	xorl	$875785728, %eax
     342: 00 5f 5a                     	addb	%bl, 90(%rdi)
     345: 31 32                        	xorl	%esi, (%rdx)
     347: 63 61 6c                     	movslq	108(%rcx), %esp
     34a: 63 36                        	movslq	(%rsi), %esi
     34c: 5f                           	popq	%rdi
     34d: 66 61                        	<unknown>
     34f: 63 74 6f 72                  	movslq	114(%rdi,%rbp,2), %esi
     353: 50                           	pushq	%rax
     354: 63 50 35                     	movslq	53(%rax), %edx
     357: 63 61 6c                     	movslq	108(%rcx), %esp
     35a: 63 36                        	movslq	(%rsi), %esi
     35c: 00 73 74                     	addb	%dh, 116(%rbx)
     35f: 72 73                        	jb	0x3d4 <.debug_info+0x3d4>
     361: 70 6e                        	jo	0x3d1 <.debug_info+0x3d1>
     363: 40 40                        	<unknown>
     365: 47 4c                        	<unknown>
     367: 49 42                        	<unknown>
     369: 43 5f                        	popq	%r15
     36b: 32 2e                        	xorb	(%rsi), %ch
     36d: 32 2e                        	xorb	(%rsi), %ch
     36f: 35 00 73 74 72               	xorl	$1920234240, %eax
     374: 6c                           	insb	%dx, %es:(%rdi)
     375: 65 6e                        	outsb	%gs:(%rsi), %dx
     377: 40 40                        	<unknown>
     379: 47 4c                        	<unknown>
     37b: 49 42                        	<unknown>
     37d: 43 5f                        	popq	%r15
     37f: 32 2e                        	xorb	(%rsi), %ch
     381: 32 2e                        	xorb	(%rsi), %ch
     383: 35 00 6e 34 37               	xorl	$926182912, %eax
     388: 00 5f 5a                     	addb	%bl, 90(%rdi)
     38b: 31 32                        	xorl	%esi, (%rdx)
     38d: 69 6e 69 74 5f 74 69         	imull	$1769234292, 105(%rsi), %ebp
     394: 6d                           	insl	%dx, %es:(%rdi)
     395: 65 6f                        	outsl	%gs:(%rsi), %dx
     397: 75 74                        	jne	0x40d <.debug_info+0x40d>
     399: 69 00 6d 61 69 6e            	imull	$1852399981, (%rax), %eax
     39f: 00 75 73                     	addb	%dh, 115(%rbp)
     3a2: 65 72 69                     	jb	0x40e <.debug_info+0x40e>
     3a5: 64 00 5f 5f                  	addb	%bl, %fs:95(%rdi)
     3a9: 64 73 6f                     	jae	0x41b <.debug_info+0x41b>
     3ac: 5f                           	popq	%rdi
     3ad: 68 61 6e 64 6c               	pushq	$1818521185
     3b2: 65 00 5f 5f                  	addb	%bl, %gs:95(%rdi)
     3b6: 61                           	<unknown>
     3b7: 73 73                        	jae	0x42c <.debug_info+0x42c>
     3b9: 65 72 74                     	jb	0x430 <.debug_info+0x430>
     3bc: 5f                           	popq	%rdi
     3bd: 66 61                        	<unknown>
     3bf: 69 6c 40 40 47 4c 49 42      	imull	$1112099911, 64(%rax,%rax,2), %ebp
     3c7: 43 5f                        	popq	%r15
     3c9: 32 2e                        	xorb	(%rsi), %ch
     3cb: 32 2e                        	xorb	(%rsi), %ch
     3cd: 35 00 5f 5a 32               	xorl	$844783360, %eax
     3d2: 31 69 6e                     	xorl	%ebp, 110(%rcx)
     3d5: 69 74 69 61 6c 69 7a 65      	imull	$1702521196, 97(%rcx,%rbp,2), %esi
     3dd: 5f                           	popq	%rdi
     3de: 62                           	<unknown>
     3df: 6f                           	outsl	(%rsi), %dx
     3e0: 6d                           	insl	%dx, %es:(%rdi)
     3e1: 62                           	<unknown>
     3e2: 5f                           	popq	%rdi
     3e3: 73 6f                        	jae	0x454 <.debug_info+0x454>
     3e5: 6c                           	insb	%dx, %es:(%rdi)
     3e6: 76 65                        	jbe	0x44d <.debug_info+0x44d>
     3e8: 76 00                        	jbe	0x3ea <.debug_info+0x3ea>
     3ea: 6e                           	outsb	(%rsi), %dx
     3eb: 34 38                        	xorb	$56, %al
     3ed: 00 5f 5a                     	addb	%bl, 90(%rdi)
     3f0: 36 70 68                     	jo	0x45b <.debug_info+0x45b>
     3f3: 61                           	<unknown>
     3f4: 73 65                        	jae	0x45b <.debug_info+0x45b>
     3f6: 34 50                        	xorb	$80, %al
     3f8: 63 00                        	movslq	(%rax), %eax
     3fa: 61                           	<unknown>
     3fb: 74 65                        	je	0x462 <.debug_info+0x462>
     3fd: 78 69                        	js	0x468 <.debug_info+0x468>
     3ff: 74 00                        	je	0x401 <.debug_info+0x401>
     401: 73 73                        	jae	0x476 <.debug_info+0x476>
     403: 63 61 6e                     	movslq	110(%rcx), %esp
     406: 66 40 40                     	<unknown>
     409: 47 4c                        	<unknown>
     40b: 49 42                        	<unknown>
     40d: 43 5f                        	popq	%r15
     40f: 32 2e                        	xorb	(%rsi), %ch
     411: 32 2e                        	xorb	(%rsi), %ch
     413: 35 00 73 6c 65               	xorl	$1701606144, %eax
     418: 65 70 40                     	jo	0x45b <.debug_info+0x45b>
     41b: 40 47                        	<unknown>
     41d: 4c 49                        	<unknown>
     41f: 42 43                        	<unknown>
     421: 5f                           	popq	%rdi
     422: 32 2e                        	xorb	(%rsi), %ch
     424: 32 2e                        	xorb	(%rsi), %ch
     426: 35 00 73 74 64               	xorl	$1685353216, %eax
     42b: 69 6e 40 40 47 4c 49         	imull	$1229735744, 64(%rsi), %ebp
     432: 42 43                        	<unknown>
     434: 5f                           	popq	%rdi
     435: 32 2e                        	xorb	(%rsi), %ch
     437: 32 2e                        	xorb	(%rsi), %ch
     439: 35 00 6e 32 32               	xorl	$842165760, %eax
     43e: 00 63 6f                     	addb	%ah, 111(%rbx)
     441: 6e                           	outsb	(%rsi), %dx
     442: 6e                           	outsb	(%rsi), %dx
     443: 65 63 74 40 40               	movslq	%gs:64(%rax,%rax,2), %esi
     448: 47 4c                        	<unknown>
     44a: 49 42                        	<unknown>
     44c: 43 5f                        	popq	%r15
     44e: 32 2e                        	xorb	(%rsi), %ch
     450: 32 2e                        	xorb	(%rsi), %ch
     452: 35 00 6e 33 32               	xorl	$842231296, %eax
     457: 00 5f 5f                     	addb	%bl, 95(%rdi)
     45a: 63 78 61                     	movslq	97(%rax), %edi
     45d: 5f                           	popq	%rdi
     45e: 61                           	<unknown>
     45f: 74 65                        	je	0x4c6 <.debug_info+0x4c6>
     461: 78 69                        	js	0x4cc <.debug_info+0x4cc>
     463: 74 40                        	je	0x4a5 <.debug_info+0x4a5>
     465: 40 47                        	<unknown>
     467: 4c 49                        	<unknown>
     469: 42 43                        	<unknown>
     46b: 5f                           	popq	%rdi
     46c: 32 2e                        	xorb	(%rsi), %ch
     46e: 32 2e                        	xorb	(%rsi), %ch
     470: 35 00 6e 34 35               	xorl	$892628480, %eax
     475: 00 73 74                     	addb	%dh, 116(%rbx)
     478: 72 63                        	jb	0x4dd <.debug_info+0x4dd>
     47a: 70 79                        	jo	0x4f5 <.debug_info+0x4f5>
     47c: 40 40                        	<unknown>
     47e: 47 4c                        	<unknown>
     480: 49 42                        	<unknown>
     482: 43 5f                        	popq	%r15
     484: 32 2e                        	xorb	(%rsi), %ch
     486: 32 2e                        	xorb	(%rsi), %ch
     488: 35 00 5f 5a 31               	xorl	$828006144, %eax
     48d: 31 69 6e                     	xorl	%ebp, 110(%rcx)
     490: 69 74 5f 64 72 69 76 65      	imull	$1702259058, 100(%rdi,%rbx,2), %esi
     498: 72 50                        	jb	0x4ea <.debug_info+0x4ea>
     49a: 63 00                        	movslq	(%rax), %eax
     49c: 5f                           	popq	%rdi
     49d: 5a                           	popq	%rdx
     49e: 31 33                        	xorl	%esi, (%rbx)
     4a0: 69 6e 76 61 6c 69 64         	imull	$1684630625, 118(%rsi), %ebp
     4a7: 5f                           	popq	%rdi
     4a8: 70 68                        	jo	0x512 <.debug_info+0x512>
     4aa: 61                           	<unknown>
     4ab: 73 65                        	jae	0x512 <.debug_info+0x512>
     4ad: 50                           	pushq	%rax
     4ae: 63 00                        	movslq	(%rax), %eax
     4b0: 68 6f 73 74 5f               	pushq	$1601467247
     4b5: 74 61                        	je	0x518 <.debug_info+0x518>
     4b7: 62                           	<unknown>
     4b8: 6c                           	insb	%dx, %es:(%rdi)
     4b9: 65 00 6e 6f                  	addb	%ch, %gs:111(%rsi)
     4bd: 64 65 36 00 6e 33            	addb	%ch, %ss:51(%rsi)
     4c3: 33 00                        	xorl	(%rax), %eax
     4c5: 67 65 74 68                  	je	0x531 <.debug_info+0x531>
     4c9: 6f                           	outsl	(%rsi), %dx
     4ca: 73 74                        	jae	0x540 <.debug_info+0x540>
     4cc: 62                           	<unknown>
     4cd: 79 6e                        	jns	0x53d <.debug_info+0x53d>
     4cf: 61                           	<unknown>
     4d0: 6d                           	insl	%dx, %es:(%rdi)
     4d1: 65 40 40                     	<unknown>
     4d4: 47 4c                        	<unknown>
     4d6: 49 42                        	<unknown>
     4d8: 43 5f                        	popq	%r15
     4da: 32 2e                        	xorb	(%rsi), %ch
     4dc: 32 2e                        	xorb	(%rsi), %ch
     4de: 35 00 5f 5f 54               	xorl	$1415536384, %eax
     4e3: 4d 43                        	<unknown>
     4e5: 5f                           	popq	%rdi
     4e6: 45 4e                        	<unknown>
     4e8: 44 5f                        	popq	%rdi
     4ea: 5f                           	popq	%rdi
     4eb: 00 6e 34                     	addb	%ch, 52(%rsi)
     4ee: 36 00 66 6f                  	addb	%ah, %ss:111(%rsi)
     4f2: 70 65                        	jo	0x559 <.debug_info+0x559>
     4f4: 6e                           	outsb	(%rsi), %dx
     4f5: 40 40                        	<unknown>
     4f7: 47 4c                        	<unknown>
     4f9: 49 42                        	<unknown>
     4fb: 43 5f                        	popq	%r15
     4fd: 32 2e                        	xorb	(%rsi), %ch
     4ff: 32 2e                        	xorb	(%rsi), %ch
     501: 35 00 73 69 67               	xorl	$1734963968, %eax
     506: 6e                           	outsb	(%rsi), %dx
     507: 61                           	<unknown>
     508: 6c                           	insb	%dx, %es:(%rdi)
     509: 40 40                        	<unknown>
     50b: 47 4c                        	<unknown>
     50d: 49 42                        	<unknown>
     50f: 43 5f                        	popq	%r15
     511: 32 2e                        	xorb	(%rsi), %ch
     513: 32 2e                        	xorb	(%rsi), %ch
     515: 35 00 5f 5a 32               	xorl	$844783360, %eax
     51a: 66 38 50 31                  	cmpb	%dl, 49(%rax)
     51e: 34 74                        	xorb	$116, %al
     520: 72 65                        	jb	0x587 <.debug_info+0x587>
     522: 65 4e 6f                     	outsl	%gs:(%rsi), %dx
     525: 64 65 53                     	pushq	%rbx
     528: 74 72                        	je	0x59c <.debug_info+0x59c>
     52a: 75 63                        	jne	0x58f <.debug_info+0x58f>
     52c: 74 69                        	je	0x597 <.debug_info+0x597>
     52e: 00 73 69                     	addb	%dh, 105(%rbx)
     531: 67 65 6d                     	insl	%dx, %es:(%edi)
     534: 70 74                        	jo	0x5aa <.debug_info+0x5aa>
     536: 79 73                        	jns	0x5ab <.debug_info+0x5ab>
     538: 65 74 40                     	je	0x57b <.debug_info+0x57b>
     53b: 40 47                        	<unknown>
     53d: 4c 49                        	<unknown>
     53f: 42 43                        	<unknown>
     541: 5f                           	popq	%rdi
     542: 32 2e                        	xorb	(%rsi), %ch
     544: 32 2e                        	xorb	(%rsi), %ch
     546: 35 00 73 69 67               	xorl	$1734963968, %eax
     54b: 61                           	<unknown>
     54c: 63 74 69 6f                  	movslq	111(%rcx,%rbp,2), %esi
     550: 6e                           	outsb	(%rsi), %dx
     551: 40 40                        	<unknown>
     553: 47 4c                        	<unknown>
     555: 49 42                        	<unknown>
     557: 43 5f                        	popq	%r15
     559: 32 2e                        	xorb	(%rsi), %ch
     55b: 32 2e                        	xorb	(%rsi), %ch
     55d: 35 00 6e 6f 64               	xorl	$1685024256, %eax
     562: 65 35 00 73 74 64            	xorl	$1685353216, %eax
     568: 65 72 72                     	jb	0x5dd <.debug_info+0x5dd>
     56b: 40 40                        	<unknown>
     56d: 47 4c                        	<unknown>
     56f: 49 42                        	<unknown>
     571: 43 5f                        	popq	%r15
     573: 32 2e                        	xorb	(%rsi), %ch
     575: 32 2e                        	xorb	(%rsi), %ch
     577: 35 00 5f 5a 31               	xorl	$828006144, %eax
     57c: 31 64 72 69                  	xorl	%esp, 105(%rdx,%rsi,2)
     580: 76 65                        	jbe	0x5e7 <.debug_info+0x5e7>
     582: 72 5f                        	jb	0x5e3 <.debug_info+0x5e3>
     584: 70 6f                        	jo	0x5f5 <.debug_info+0x5f5>
     586: 73 74                        	jae	0x5fc <.debug_info+0x5fc>
     588: 50                           	pushq	%rax
     589: 63 53 5f                     	movslq	95(%rbx), %edx
     58c: 53                           	pushq	%rbx
     58d: 5f                           	popq	%rdi
     58e: 69 53 5f 00 5f 5f 64         	imull	$1683971840, 95(%rbx), %edx
     595: 61                           	<unknown>
     596: 74 61                        	je	0x5f9 <.debug_info+0x5f9>
     598: 5f                           	popq	%rdi
     599: 73 74                        	jae	0x60f <.debug_info+0x60f>
     59b: 61                           	<unknown>
     59c: 72 74                        	jb	0x612 <.debug_info+0x612>
     59e: 00 73 74                     	addb	%dh, 116(%rbx)
     5a1: 72 63                        	jb	0x606 <.debug_info+0x606>
     5a3: 6d                           	insl	%dx, %es:(%rdi)
     5a4: 70 40                        	jo	0x5e6 <.debug_info+0x5e6>
     5a6: 40 47                        	<unknown>
     5a8: 4c 49                        	<unknown>
     5aa: 42 43                        	<unknown>
     5ac: 5f                           	popq	%rdi
     5ad: 32 2e                        	xorb	(%rsi), %ch
     5af: 32 2e                        	xorb	(%rsi), %ch
     5b1: 35 00 73 74 72               	xorl	$1920234240, %eax
     5b6: 74 6f                        	je	0x627 <.debug_info+0x627>
     5b8: 6c                           	insb	%dx, %es:(%rdi)
     5b9: 40 40                        	<unknown>
     5bb: 47 4c                        	<unknown>
     5bd: 49 42                        	<unknown>
     5bf: 43 5f                        	popq	%r15
     5c1: 32 2e                        	xorb	(%rsi), %ch
     5c3: 32 2e                        	xorb	(%rsi), %ch
     5c5: 35 00 6e 34 33               	xorl	$859074048, %eax
     5ca: 00 66 70                     	addb	%ah, 112(%rsi)
     5cd: 72 69                        	jb	0x638 <.debug_info+0x638>
     5cf: 6e                           	outsb	(%rsi), %dx
     5d0: 74 66                        	je	0x638 <.debug_info+0x638>
     5d2: 40 40                        	<unknown>
     5d4: 47 4c                        	<unknown>
     5d6: 49 42                        	<unknown>
     5d8: 43 5f                        	popq	%r15
     5da: 32 2e                        	xorb	(%rsi), %ch
     5dc: 32 2e                        	xorb	(%rsi), %ch
     5de: 35 00 72 65 61               	xorl	$1634038272, %eax
     5e3: 64 40 40                     	<unknown>
     5e6: 47 4c                        	<unknown>
     5e8: 49 42                        	<unknown>
     5ea: 43 5f                        	popq	%r15
     5ec: 32 2e                        	xorb	(%rsi), %ch
     5ee: 32 2e                        	xorb	(%rsi), %ch
     5f0: 35 00 5f 5a 31               	xorl	$828006144, %eax
     5f5: 35 69 6e 69 74               	xorl	$1953066601, %eax
     5fa: 69 61 6c 69 7a 65 5f         	imull	$1600485993, 108(%rcx), %esp
     601: 62                           	<unknown>
     602: 6f                           	outsl	(%rsi), %dx
     603: 6d                           	insl	%dx, %es:(%rdi)
     604: 62                           	<unknown>
     605: 76 00                        	jbe	0x607 <.debug_info+0x607>
     607: 69 6e 70 75 74 5f 73         	imull	$1935635573, 112(%rsi), %ebp
     60e: 74 72                        	je	0x682 <.debug_info+0x682>
     610: 69 6e 67 73 00 5f 5a         	imull	$1516175475, 103(%rsi), %ebp
     617: 37                           	<unknown>
     618: 73 75                        	jae	0x68f <.debug_info+0x68f>
     61a: 62                           	<unknown>
     61b: 6d                           	insl	%dx, %es:(%rdi)
     61c: 69 74 72 50 4b 63 69 53      	imull	$1399415627, 80(%rdx,%rsi,2), %esi
     624: 30 5f 53                     	xorb	%bl, 83(%rdi)
     627: 30 5f 53                     	xorb	%bl, 83(%rdi)
     62a: 30 5f 53                     	xorb	%bl, 83(%rdi)
     62d: 30 5f 53                     	xorb	%bl, 83(%rdi)
     630: 30 5f 50                     	xorb	%bl, 80(%rdi)
     633: 63 00                        	movslq	(%rax), %eax
     635: 5f                           	popq	%rdi
     636: 5f                           	popq	%rdi
     637: 62                           	<unknown>
     638: 73 73                        	jae	0x6ad <.debug_info+0x6ad>
     63a: 5f                           	popq	%rdi
     63b: 73 74                        	jae	0x6b1 <.debug_info+0x6b1>
     63d: 61                           	<unknown>
     63e: 72 74                        	jb	0x6b4 <.debug_info+0x6b4>
     640: 00 5f 5a                     	addb	%bl, 90(%rdi)
     643: 31 32                        	xorl	%esi, (%rdx)
     645: 70 68                        	jo	0x6af <.debug_info+0x6af>
     647: 61                           	<unknown>
     648: 73 65                        	jae	0x6af <.debug_info+0x6af>
     64a: 35 5f 77 6f 72               	xorl	$1919907679, %eax
     64f: 64 31 50 4b                  	xorl	%edx, %fs:75(%rax)
     653: 63 00                        	movslq	(%rax), %eax
     655: 5f                           	popq	%rdi
     656: 5a                           	popq	%rdx
     657: 39 72 65                     	cmpl	%esi, 101(%rdx)
     65a: 61                           	<unknown>
     65b: 64 5f                        	popq	%rdi
     65d: 6c                           	insb	%dx, %es:(%rdi)
     65e: 69 6e 65 76 00 6e 6f         	imull	$1869480054, 101(%rsi), %ebp
     665: 64 65 34 00                  	xorb	$0, %al
     669: 6e                           	outsb	(%rsi), %dx
     66a: 32 31                        	xorb	(%rcx), %dh
     66c: 00 70 75                     	addb	%dh, 117(%rax)
     66f: 74 73                        	je	0x6e4 <.debug_info+0x6e4>
     671: 40 40                        	<unknown>
     673: 47 4c                        	<unknown>
     675: 49 42                        	<unknown>
     677: 43 5f                        	popq	%r15
     679: 32 2e                        	xorb	(%rsi), %ch
     67b: 32 2e                        	xorb	(%rsi), %ch
     67d: 35 00 6e 33 31               	xorl	$825454080, %eax
     682: 00 5f 5f                     	addb	%bl, 95(%rdi)
     685: 6c                           	insb	%dx, %es:(%rdi)
     686: 69 62 63 5f 63 73 75         	imull	$1970496351, 99(%rdx), %esp
     68d: 5f                           	popq	%rdi
     68e: 69 6e 69 74 00 66 67         	imull	$1734738036, 105(%rsi), %ebp
     695: 65 74 73                     	je	0x70b <.debug_info+0x70b>
     698: 40 40                        	<unknown>
     69a: 47 4c                        	<unknown>
     69c: 49 42                        	<unknown>
     69e: 43 5f                        	popq	%r15
     6a0: 32 2e                        	xorb	(%rsi), %ch
     6a2: 32 2e                        	xorb	(%rsi), %ch
     6a4: 35 00 6d 65 6d               	xorl	$1835363584, %eax
     6a9: 6d                           	insl	%dx, %es:(%rdi)
     6aa: 6f                           	outsl	(%rsi), %dx
     6ab: 76 65                        	jbe	0x712 <.debug_info+0x712>
     6ad: 40 40                        	<unknown>
     6af: 47 4c                        	<unknown>
     6b1: 49 42                        	<unknown>
     6b3: 43 5f                        	popq	%r15
     6b5: 32 2e                        	xorb	(%rsi), %ch
     6b7: 32 2e                        	xorb	(%rsi), %ch
     6b9: 35 00 5f 65 78               	xorl	$2019909376, %eax
     6be: 69 74 40 40 47 4c 49 42      	imull	$1112099911, 64(%rax,%rax,2), %esi
     6c6: 43 5f                        	popq	%r15
     6c8: 32 2e                        	xorb	(%rsi), %ch
     6ca: 32 2e                        	xorb	(%rsi), %ch
     6cc: 35 00 5f 5a 31               	xorl	$828006144, %eax
     6d1: 30 62 6c                     	xorb	%ah, 108(%rdx)
     6d4: 61                           	<unknown>
     6d5: 6e                           	outsb	(%rsi), %dx
     6d6: 6b 5f 6c 69                  	imull	$105, 108(%rdi), %ebx
     6da: 6e                           	outsb	(%rsi), %dx
     6db: 65 50                        	pushq	%rax
     6dd: 63 00                        	movslq	(%rax), %eax
     6df: 6e                           	outsb	(%rsi), %dx
     6e0: 34 34                        	xorb	$52, %al
     6e2: 00 5f 5a                     	addb	%bl, 90(%rdi)
     6e5: 36 70 68                     	jo	0x750 <.debug_info+0x750>
     6e8: 61                           	<unknown>
     6e9: 73 65                        	jae	0x750 <.debug_info+0x750>
     6eb: 32 50 63                     	xorb	99(%rax), %dl
     6ee: 00 5f 5a                     	addb	%bl, 90(%rdi)
     6f1: 36 70 68                     	jo	0x75c <.debug_info+0x75c>
     6f4: 61                           	<unknown>
     6f5: 73 65                        	jae	0x75c <.debug_info+0x75c>
     6f7: 36 50                        	pushq	%rax
     6f9: 63 00                        	movslq	(%rax), %eax
     6fb: 6e                           	outsb	(%rsi), %dx
     6fc: 6f                           	outsl	(%rsi), %dx
     6fd: 64 65 33 00                  	xorl	%gs:(%rax), %eax
     701: 5f                           	popq	%rdi
     702: 5a                           	popq	%rdx
     703: 31 32                        	xorl	%esi, (%rdx)
     705: 65 78 70                     	js	0x778 <.debug_info+0x778>
     708: 6c                           	insb	%dx, %es:(%rdi)
     709: 6f                           	outsl	(%rsi), %dx
     70a: 64 65 5f                     	popq	%rdi
     70d: 62                           	<unknown>
     70e: 6f                           	outsl	(%rsi), %dx
     70f: 6d                           	insl	%dx, %es:(%rdi)
     710: 62                           	<unknown>
     711: 76 00                        	jbe	0x713 <.debug_info+0x713>
     713: 6e                           	outsb	(%rsi), %dx
     714: 31 00                        	xorl	%eax, (%rax)
     716: 5f                           	popq	%rdi
     717: 5a                           	popq	%rdx
     718: 31 33                        	xorl	%esi, (%rbx)
     71a: 70 68                        	jo	0x784 <.debug_info+0x784>
     71c: 61                           	<unknown>
     71d: 73 65                        	jae	0x784 <.debug_info+0x784>
     71f: 5f                           	popq	%rdi
     720: 64 65 66 75 73               	jne	0x798 <.debug_info+0x798>
     725: 65 64 76 00                  	jbe	0x729 <.debug_info+0x729>
     729: 5f                           	popq	%rdi
     72a: 5f                           	popq	%rdi
     72b: 6c                           	insb	%dx, %es:(%rdi)
     72c: 69 62 63 5f 63 73 75         	imull	$1970496351, 99(%rdx), %esp
     733: 5f                           	popq	%rdi
     734: 66 69 6e 69 00 5f            	imulw	$24320, 105(%rsi), %bp
     73a: 5a                           	popq	%rdx
     73b: 31 30                        	xorl	%esi, (%rax)
     73d: 63 61 6c                     	movslq	108(%rcx), %esp
     740: 63 36                        	movslq	(%rsi), %esi
     742: 5f                           	popq	%rdi
     743: 74 65                        	je	0x7aa <.debug_info+0x7aa>
     745: 72 6d                        	jb	0x7b4 <.debug_info+0x7b4>
     747: 50                           	pushq	%rax
     748: 63 50 35                     	movslq	53(%rax), %edx
     74b: 63 61 6c                     	movslq	108(%rcx), %esp
     74e: 63 36                        	movslq	(%rsi), %esi
     750: 00 75 73                     	addb	%dh, 115(%rbp)
     753: 65 72 5f                     	jb	0x7b5 <.debug_info+0x7b5>
     756: 70 61                        	jo	0x7b9 <.debug_info+0x7b9>
     758: 73 73                        	jae	0x7cd <.debug_info+0x7cd>
     75a: 77 6f                        	ja	0x7cb <.debug_info+0x7cb>
     75c: 72 64                        	jb	0x7c2 <.debug_info+0x7c2>
     75e: 00 5f 5f                     	addb	%bl, 95(%rdi)
     761: 6c                           	insb	%dx, %es:(%rdi)
     762: 69 62 63 5f 73 74 61         	imull	$1635021663, 99(%rdx), %esp
     769: 72 74                        	jb	0x7df <.debug_info+0x7df>
     76b: 5f                           	popq	%rdi
     76c: 6d                           	insl	%dx, %es:(%rdi)
     76d: 61                           	<unknown>
     76e: 69 6e 40 40 47 4c 49         	imull	$1229735744, 64(%rsi), %ebp
     775: 42 43                        	<unknown>
     777: 5f                           	popq	%rdi
     778: 32 2e                        	xorb	(%rsi), %ch
     77a: 32 2e                        	xorb	(%rsi), %ch
     77c: 35 00 5f 5a 31               	xorl	$828006144, %eax
     781: 36 72 65                     	jb	0x7e9 <.debug_info+0x7e9>
     784: 61                           	<unknown>
     785: 64 5f                        	popq	%rdi
     787: 73 69                        	jae	0x7f2 <.debug_info+0x7f2>
     789: 78 5f                        	js	0x7ea <.debug_info+0x7ea>
     78b: 6e                           	outsb	(%rsi), %dx
     78c: 75 6d                        	jne	0x7fb <.debug_info+0x7fb>
     78e: 62                           	<unknown>
     78f: 65 72 73                     	jb	0x805 <.debug_info+0x805>
     792: 50                           	pushq	%rax
     793: 4b 63 50 69                  	movslq	105(%r8), %rdx
     797: 00 5f 5a                     	addb	%bl, 90(%rdi)
     79a: 31 65 76                     	xorl	%esp, 118(%rbp)
     79d: 00 6e 34                     	addb	%ch, 52(%rsi)
     7a0: 31 00                        	xorl	%eax, (%rax)
     7a2: 5f                           	popq	%rdi
     7a3: 5f                           	popq	%rdi
     7a4: 67 6d                        	insl	%dx, %es:(%edi)
     7a6: 6f                           	outsl	(%rsi), %dx
     7a7: 6e                           	outsb	(%rsi), %dx
     7a8: 5f                           	popq	%rdi
     7a9: 73 74                        	jae	0x81f <.debug_info+0x81f>
     7ab: 61                           	<unknown>
     7ac: 72 74                        	jb	0x822 <.debug_info+0x822>
     7ae: 5f                           	popq	%rdi
     7af: 5f                           	popq	%rdi
     7b0: 00 61 6c                     	addb	%ah, 108(%rcx)
     7b3: 61                           	<unknown>
     7b4: 72 6d                        	jb	0x823 <.debug_info+0x823>
     7b6: 40 40                        	<unknown>
     7b8: 47 4c                        	<unknown>
     7ba: 49 42                        	<unknown>
     7bc: 43 5f                        	popq	%r15
     7be: 32 2e                        	xorb	(%rsi), %ch
     7c0: 32 2e                        	xorb	(%rsi), %ch
     7c2: 35 00 5f 5a 38               	xorl	$945446656, %eax
     7c7: 73 65                        	jae	0x82e <.debug_info+0x82e>
     7c9: 6e                           	outsb	(%rsi), %dx
     7ca: 64 5f                        	popq	%rdi
     7cc: 6d                           	insl	%dx, %es:(%rdi)
     7cd: 73 67                        	jae	0x836 <.debug_info+0x836>
     7cf: 69 00 63 6c 6f 73            	imull	$1936682083, (%rax), %eax
     7d5: 65 40 40                     	<unknown>
     7d8: 47 4c                        	<unknown>
     7da: 49 42                        	<unknown>
     7dc: 43 5f                        	popq	%r15
     7de: 32 2e                        	xorb	(%rsi), %ch
     7e0: 32 2e                        	xorb	(%rsi), %ch
     7e2: 35                           	<unknown>
     7e3: 00                           	<unknown>

Disassembly of section .shstrtab:

0000000000000000 <.shstrtab>:
       0: 00 2e                        	addb	%ch, (%rsi)
       2: 73 79                        	jae	0x7d <.debug_info+0x7d>
       4: 6d                           	insl	%dx, %es:(%rdi)
       5: 74 61                        	je	0x68 <.debug_info+0x68>
       7: 62 00 2e 73                  	<unknown>
       b: 74 72                        	je	0x7f <.debug_info+0x7f>
       d: 74 61                        	je	0x70 <.debug_info+0x70>
       f: 62 00 2e 73                  	<unknown>
      13: 68 73 74 72 74               	pushq	$1953657971
      18: 61                           	<unknown>
      19: 62 00 2e 69                  	<unknown>
      1d: 6e                           	outsb	(%rsi), %dx
      1e: 74 65                        	je	0x85 <.debug_info+0x85>
      20: 72 70                        	jb	0x92 <.debug_info+0x92>
      22: 00 2e                        	addb	%ch, (%rsi)
      24: 6e                           	outsb	(%rsi), %dx
      25: 6f                           	outsl	(%rsi), %dx
      26: 74 65                        	je	0x8d <.debug_info+0x8d>
      28: 2e 41 42                     	<unknown>
      2b: 49 2d 74 61 67 00            	subq	$6775156, %rax
      31: 2e 6e                        	outsb	%cs:(%rsi), %dx
      33: 6f                           	outsl	(%rsi), %dx
      34: 74 65                        	je	0x9b <.debug_info+0x9b>
      36: 2e 67 6e                     	outsb	%cs:(%esi), %dx
      39: 75 2e                        	jne	0x69 <.debug_info+0x69>
      3b: 62                           	<unknown>
      3c: 75 69                        	jne	0xa7 <.debug_info+0xa7>
      3e: 6c                           	insb	%dx, %es:(%rdi)
      3f: 64 2d 69 64 00 2e            	subl	$771777641, %eax
      45: 67 6e                        	outsb	(%esi), %dx
      47: 75 2e                        	jne	0x77 <.debug_info+0x77>
      49: 68 61 73 68 00               	pushq	$6845281
      4e: 2e 64 79 6e                  	jns	0xc0 <.debug_info+0xc0>
      52: 73 79                        	jae	0xcd <.debug_info+0xcd>
      54: 6d                           	insl	%dx, %es:(%rdi)
      55: 00 2e                        	addb	%ch, (%rsi)
      57: 64 79 6e                     	jns	0xc8 <.debug_info+0xc8>
      5a: 73 74                        	jae	0xd0 <.debug_info+0xd0>
      5c: 72 00                        	jb	0x5e <.debug_info+0x5e>
      5e: 2e 67 6e                     	outsb	%cs:(%esi), %dx
      61: 75 2e                        	jne	0x91 <.debug_info+0x91>
      63: 76 65                        	jbe	0xca <.debug_info+0xca>
      65: 72 73                        	jb	0xda <.debug_info+0xda>
      67: 69 6f 6e 00 2e 67 6e         	imull	$1852255744, 110(%rdi), %ebp
      6e: 75 2e                        	jne	0x9e <.debug_info+0x9e>
      70: 76 65                        	jbe	0xd7 <.debug_info+0xd7>
      72: 72 73                        	jb	0xe7 <.debug_info+0xe7>
      74: 69 6f 6e 5f 72 00 2e         	imull	$771781215, 110(%rdi), %ebp
      7b: 72 65                        	jb	0xe2 <.debug_info+0xe2>
      7d: 6c                           	insb	%dx, %es:(%rdi)
      7e: 61                           	<unknown>
      7f: 2e 64 79 6e                  	jns	0xf1 <.debug_info+0xf1>
      83: 00 2e                        	addb	%ch, (%rsi)
      85: 72 65                        	jb	0xec <.debug_info+0xec>
      87: 6c                           	insb	%dx, %es:(%rdi)
      88: 61                           	<unknown>
      89: 2e 70 6c                     	jo	0xf8 <.debug_info+0xf8>
      8c: 74 00                        	je	0x8e <.debug_info+0x8e>
      8e: 2e 69 6e 69 74 00 2e 74      	imull	$1949171828, %cs:105(%rsi), %ebp
      96: 65 78 74                     	js	0x10d <.debug_info+0x10d>
      99: 00 2e                        	addb	%ch, (%rsi)
      9b: 66 69 6e 69 00 2e            	imulw	$11776, 105(%rsi), %bp
      a1: 72 6f                        	jb	0x112 <.debug_info+0x112>
      a3: 64 61                        	<unknown>
      a5: 74 61                        	je	0x108 <.debug_info+0x108>
      a7: 00 2e                        	addb	%ch, (%rsi)
      a9: 65 68 5f 66 72 61            	pushq	$1634887263
      af: 6d                           	insl	%dx, %es:(%rdi)
      b0: 65 5f                        	popq	%rdi
      b2: 68 64 72 00 2e               	pushq	$771781220
      b7: 65 68 5f 66 72 61            	pushq	$1634887263
      bd: 6d                           	insl	%dx, %es:(%rdi)
      be: 65 00 2e                     	addb	%ch, %gs:(%rsi)
      c1: 69 6e 69 74 5f 61 72         	imull	$1918984052, 105(%rsi), %ebp
      c8: 72 61                        	jb	0x12b <.debug_info+0x12b>
      ca: 79 00                        	jns	0xcc <.debug_info+0xcc>
      cc: 2e 66 69 6e 69 5f 61         	imulw	$24927, %cs:105(%rsi), %bp
      d3: 72 72                        	jb	0x147 <.debug_info+0x147>
      d5: 61                           	<unknown>
      d6: 79 00                        	jns	0xd8 <.debug_info+0xd8>
      d8: 2e 64 79 6e                  	jns	0x14a <.debug_info+0x14a>
      dc: 61                           	<unknown>
      dd: 6d                           	insl	%dx, %es:(%rdi)
      de: 69 63 00 2e 67 6f 74         	imull	$1953457966, (%rbx), %esp
      e5: 00 2e                        	addb	%ch, (%rsi)
      e7: 67 6f                        	outsl	(%esi), %dx
      e9: 74 2e                        	je	0x119 <.debug_info+0x119>
      eb: 70 6c                        	jo	0x159 <.debug_info+0x159>
      ed: 74 00                        	je	0xef <.debug_info+0xef>
      ef: 2e 64 61                     	<unknown>
      f2: 74 61                        	je	0x155 <.debug_info+0x155>
      f4: 00 2e                        	addb	%ch, (%rsi)
      f6: 62                           	<unknown>
      f7: 73 73                        	jae	0x16c <.debug_info+0x16c>
      f9: 00 2e                        	addb	%ch, (%rsi)
      fb: 63 6f 6d                     	movslq	109(%rdi), %ebp
      fe: 6d                           	insl	%dx, %es:(%rdi)
      ff: 65 6e                        	outsb	%gs:(%rsi), %dx
     101: 74 00                        	je	0x103 <.debug_info+0x103>
     103: 2e 64 65 62                  	<unknown>
     107: 75 67                        	jne	0x170 <.debug_info+0x170>
     109: 5f                           	popq	%rdi
     10a: 61                           	<unknown>
     10b: 72 61                        	jb	0x16e <.debug_info+0x16e>
     10d: 6e                           	outsb	(%rsi), %dx
     10e: 67 65 73 00                  	jae	0x112 <.debug_info+0x112>
     112: 2e 64 65 62                  	<unknown>
     116: 75 67                        	jne	0x17f <.debug_info+0x17f>
     118: 5f                           	popq	%rdi
     119: 69 6e 66 6f 00 2e 64         	imull	$1680736367, 102(%rsi), %ebp
     120: 65 62                        	<unknown>
     122: 75 67                        	jne	0x18b <.debug_info+0x18b>
     124: 5f                           	popq	%rdi
     125: 61                           	<unknown>
     126: 62                           	<unknown>
     127: 62 72 65 76 00               	<unknown>
     12c: 2e 64 65 62                  	<unknown>
     130: 75 67                        	jne	0x199 <.debug_info+0x199>
     132: 5f                           	popq	%rdi
     133: 6c                           	insb	%dx, %es:(%rdi)
     134: 69 6e 65 00 2e 64 65         	imull	$1701064192, 101(%rsi), %ebp
     13b: 62                           	<unknown>
     13c: 75 67                        	jne	0x1a5 <.debug_info+0x1a5>
     13e: 5f                           	popq	%rdi
     13f: 73 74                        	jae	0x1b5 <.debug_info+0x1b5>
     141: 72 00                        	jb	0x143 <.debug_info+0x143>
     143: 2e 64 65 62                  	<unknown>
     147: 75 67                        	jne	0x1b0 <.debug_info+0x1b0>
     149: 5f                           	popq	%rdi
     14a: 6c                           	insb	%dx, %es:(%rdi)
     14b: 6f                           	outsl	(%rsi), %dx
     14c: 63 6c 69 73                  	movslq	115(%rcx,%rbp,2), %ebp
     150: 74 73                        	je	0x1c5 <.debug_info+0x1c5>
     152: 00 2e                        	addb	%ch, (%rsi)
     154: 64 65 62                     	<unknown>
     157: 75 67                        	jne	0x1c0 <.debug_info+0x1c0>
     159: 5f                           	popq	%rdi
     15a: 72 6e                        	jb	0x1ca <.debug_info+0x1ca>
     15c: 67 6c                        	insb	%dx, %es:(%edi)
     15e: 69 73 74                     	<unknown>
     161: 73 00                        	jae	0x163 <.debug_info+0x163>
